 flightControlSystem_sfun

 Timestamp is 608acb62 (Thu Apr 29 20:36:10 2021)

 Preferred load address is 0000000180000000

 Start         Length     Name                   Class
 0001:00000000 00000390H .text$di                CODE
 0001:00000390 0004d4b0H .text$mn                CODE
 0001:0004d840 00000040H .text$mn$00             CODE
 0001:0004d880 00000d00H .text$x                 CODE
 0001:0004e580 00000375H .text$yd                CODE
 0002:00000000 000007e8H .idata$5                DATA
 0002:000007e8 00000028H .00cfg                  DATA
 0002:00000810 00000008H .CRT$XCA                DATA
 0002:00000818 00000050H .CRT$XCU                DATA
 0002:00000868 00000008H .CRT$XCZ                DATA
 0002:00000870 00000008H .CRT$XIA                DATA
 0002:00000878 00000008H .CRT$XIZ                DATA
 0002:00000880 00000008H .CRT$XPA                DATA
 0002:00000888 00000008H .CRT$XPZ                DATA
 0002:00000890 00000008H .CRT$XTA                DATA
 0002:00000898 00000008H .CRT$XTZ                DATA
 0002:000008a0 00000000H .gehcont$y              DATA
 0002:000008a0 00000000H .gfids$y                DATA
 0002:000008a0 000052e0H .rdata                  DATA
 0002:00005b80 00000008H .rdata$CastGuardVftablesA DATA
 0002:00005b88 00000008H .rdata$CastGuardVftablesC DATA
 0002:00005b90 00000f64H .rdata$r                DATA
 0002:00006af4 000002ecH .rdata$zzzdbg           DATA
 0002:00006de0 00000008H .rtc$IAA                DATA
 0002:00006de8 00000008H .rtc$IZZ                DATA
 0002:00006df0 00000008H .rtc$TAA                DATA
 0002:00006df8 00000008H .rtc$TZZ                DATA
 0002:00006e00 000029e8H .xdata                  DATA
 0002:000097e8 000000f8H .xdata$x                DATA
 0002:000098e0 000001fcH .edata                  DATA
 0002:00009adc 000001ccH .idata$2                DATA
 0002:00009ca8 00000018H .idata$3                DATA
 0002:00009cc0 000007e8H .idata$4                DATA
 0002:0000a4a8 00001e70H .idata$6                DATA
 0003:00000000 00013b40H .data                   DATA
 0003:00013b40 00000230H .data$r                 DATA
 0003:00013d70 00000830H .data$rs                DATA
 0003:000145a0 00000b80H .bss                    DATA
 0004:00000000 00002c7cH .pdata                  DATA

  Address         Publics by Value              Rva+Base               Lib:Object

 0000:00000000       __arm64x_native_entrypoint 0000000000000000     <absolute>
 0000:00000000       __hybrid_code_map          0000000000000000     <absolute>
 0000:00000000       __x64_code_ranges_to_entry_points_count 0000000000000000     <absolute>
 0000:00000000       __arm64x_extra_rfe_table   0000000000000000     <absolute>
 0000:00000000       __guard_iat_table          0000000000000000     <absolute>
 0000:00000000       __dynamic_value_reloc_table 0000000000000000     <absolute>
 0000:00000000       ___safe_se_handler_table   0000000000000000     <absolute>
 0000:00000000       __hybrid_auxiliary_iat_copy 0000000000000000     <absolute>
 0000:00000000       __arm64x_extra_rfe_table_size 0000000000000000     <absolute>
 0000:00000000       __guard_eh_cont_count      0000000000000000     <absolute>
 0000:00000000       __hybrid_code_map_count    0000000000000000     <absolute>
 0000:00000000       __guard_fids_table         0000000000000000     <absolute>
 0000:00000000       __enclave_config           0000000000000000     <absolute>
 0000:00000000       __x64_code_ranges_to_entry_points 0000000000000000     <absolute>
 0000:00000000       __hybrid_auxiliary_iat     0000000000000000     <absolute>
 0000:00000000       ___safe_se_handler_count   0000000000000000     <absolute>
 0000:00000000       __guard_fids_count         0000000000000000     <absolute>
 0000:00000000       __arm64x_redirection_metadata_count 0000000000000000     <absolute>
 0000:00000000       __AbsoluteZero             0000000000000000     <absolute>
 0000:00000000       __guard_longjmp_table      0000000000000000     <absolute>
 0000:00000000       __guard_eh_cont_table      0000000000000000     <absolute>
 0000:00000000       __arm64x_redirection_metadata 0000000000000000     <absolute>
 0000:00000000       __guard_iat_count          0000000000000000     <absolute>
 0000:00000000       __guard_check_icall_a64n_fptr 0000000000000000     <absolute>
 0000:00000000       __guard_longjmp_count      0000000000000000     <absolute>
 0000:00000000       __volatile_metadata        0000000000000000     <absolute>
 0000:00000100       __guard_flags              0000000000000100     <absolute>
 0000:00000000       __ImageBase                0000000180000000     <linker-defined>
 0001:00000390       flightControlSystem_initializer 0000000180001390 f   flightControlSystem_sfun.obj
 0001:000003a0       flightControlSystem_terminator 00000001800013a0 f   flightControlSystem_sfun.obj
 0001:000003b0       load_flightControlSystem_optimization_info 00000001800013b0 f   flightControlSystem_sfun.obj
 0001:00000460       unload_flightControlSystem_optimization_info 0000000180001460 f   flightControlSystem_sfun.obj
 0001:00000490       sf_flightControlSystem_method_dispatcher 0000000180001490 f   flightControlSystem_sfun.obj
 0001:000004e0       sf_flightControlSystem_process_check_sum_call 00000001800014e0 f   flightControlSystem_sfun.obj
 0001:000009d0       sf_flightControlSystem_get_eml_resolved_functions_info 00000001800019d0 f   flightControlSystem_sfun.obj
 0001:00000bb0       sf_flightControlSystem_third_party_uses_info 0000000180001bb0 f   flightControlSystem_sfun.obj
 0001:00000d80       sf_flightControlSystem_jit_fallback_info 0000000180001d80 f   flightControlSystem_sfun.obj
 0001:00000f50       sf_flightControlSystem_get_post_codegen_info 0000000180001f50 f   flightControlSystem_sfun.obj
 0001:00001130       sf_flightControlSystem_updateBuildInfo_args_info 0000000180002130 f   flightControlSystem_sfun.obj
 0001:00001300       flightControlSystem_register_exported_symbols 0000000180002300 f   flightControlSystem_sfun.obj
 0001:00001310       sf_c4_flightControlSystem_get_eml_resolved_functions_info 0000000180002310 f   c4_flightControlSystem.obj
 0001:00001390       sf_c4_flightControlSystem_get_check_sum 0000000180002390 f   c4_flightControlSystem.obj
 0001:00001460       c4_flightControlSystem_method_dispatcher 0000000180002460 f   c4_flightControlSystem.obj
 0001:0002e040       sf_c4_flightControlSystem_third_party_uses_info 000000018002f040 f   c4_flightControlSystem.obj
 0001:0002e100       sf_c4_flightControlSystem_jit_fallback_info 000000018002f100 f   c4_flightControlSystem.obj
 0001:0002e290       sf_c4_flightControlSystem_updateBuildInfo_args_info 000000018002f290 f   c4_flightControlSystem.obj
 0001:0002e630       sf_c4_flightControlSystem_get_post_codegen_info 000000018002f630 f   c4_flightControlSystem.obj
 0001:0002eb30       frexpf                     000000018002fb30 f i c4_flightControlSystem.obj
 0001:0002eb60       mexFunction                000000018002fb60 f   flightControlSystem_sfun_registry.obj
 0001:00031340       _ssSetInputPortDirectFeedThroughFcn 0000000180032340 f   flightControlSystem_sfun_registry.obj
 0001:000314b0       _ssSetRWorkValueFcn        00000001800324b0 f   flightControlSystem_sfun_registry.obj
 0001:00031530       _ssGetRWorkValueFcn        0000000180032530 f   flightControlSystem_sfun_registry.obj
 0001:000315a0       _ssSetIWorkValueFcn        00000001800325a0 f   flightControlSystem_sfun_registry.obj
 0001:00031620       _ssGetIWorkValueFcn        0000000180032620 f   flightControlSystem_sfun_registry.obj
 0001:00031690       _ssSetPWorkValueFcn        0000000180032690 f   flightControlSystem_sfun_registry.obj
 0001:00031710       _ssGetPWorkValueFcn        0000000180032710 f   flightControlSystem_sfun_registry.obj
 0001:00031780       _ssGetInputPortSignalFcn   0000000180032780 f   flightControlSystem_sfun_registry.obj
 0001:00031b10       _ssGetInputPortBufferDstPortFcn 0000000180032b10 f   flightControlSystem_sfun_registry.obj
 0001:00031b90       _ssGetInputPortSignalPtrsFcn 0000000180032b90 f   flightControlSystem_sfun_registry.obj
 0001:00031f20       ssGetParameterTuningCompliance 0000000180032f20 f   flightControlSystem_sfun_registry.obj
 0001:00031f90       ssGetDTypeIdFromMxArray    0000000180032f90 f   flightControlSystem_sfun_registry.obj
 0001:000320b0       ssWriteRTWMx2dMatParam     00000001800330b0 f   flightControlSystem_sfun_registry.obj
 0001:00032140       ssWriteRTWMxVectParam      0000000180033140 f   flightControlSystem_sfun_registry.obj
 0001:000321c0       ssWriteRTWParameters       00000001800331c0 f   flightControlSystem_sfun_registry.obj
 0001:00032780       ssWriteRTWParamSettings    0000000180033780 f   flightControlSystem_sfun_registry.obj
 0001:00032e70       ssWriteRTWStr              0000000180033e70 f   flightControlSystem_sfun_registry.obj
 0001:00032ed0       ssWriteRTWWorkVect         0000000180033ed0 f   flightControlSystem_sfun_registry.obj
 0001:00033430       ssWarning                  0000000180034430 f   flightControlSystem_sfun_registry.obj
 0001:00033520       ssWriteRTWNameValuePair    0000000180034520 f   flightControlSystem_sfun_registry.obj
 0001:00033a20       _ssSetInputPortMatrixDimensions 0000000180034a20 f   flightControlSystem_sfun_registry.obj
 0001:00033b40       _ssSetOutputPortMatrixDimensions 0000000180034b40 f   flightControlSystem_sfun_registry.obj
 0001:00033c60       _ssSetInputPortVectorDimension 0000000180034c60 f   flightControlSystem_sfun_registry.obj
 0001:00033d10       _ssSetOutputPortVectorDimension 0000000180034d10 f   flightControlSystem_sfun_registry.obj
 0001:00033dc0       ssIsRunTimeParamTunable    0000000180034dc0 f   flightControlSystem_sfun_registry.obj
 0001:00033e30       ssGetSFuncBlockHandle      0000000180034e30 f   flightControlSystem_sfun_registry.obj
 0001:00033ea0       _ssGetCurrentInputPortWidth 0000000180034ea0 f   flightControlSystem_sfun_registry.obj
 0001:00033fe0       _ssGetCurrentOutputPortWidth 0000000180034fe0 f   flightControlSystem_sfun_registry.obj
 0001:00034120       _ssGetCallSystemNumFcnCallDestinations 0000000180035120 f   flightControlSystem_sfun_registry.obj
 0001:00034190       ssGetIsZeroCrossControlDisabled 0000000180035190 f   flightControlSystem_sfun_registry.obj
 0001:00034200       ssSetIsInputPortUsedForContZcSignal 0000000180035200 f   flightControlSystem_sfun_registry.obj
 0001:00034270       ssSetZcSignalIsZcElementDisc 0000000180035270 f   flightControlSystem_sfun_registry.obj
 0001:00034320       ssSetZcSignalName          0000000180035320 f   flightControlSystem_sfun_registry.obj
 0001:00034390       ssSetZcSignalWidth         0000000180035390 f   flightControlSystem_sfun_registry.obj
 0001:00034400       ssSetZcSignalZcEventType   0000000180035400 f   flightControlSystem_sfun_registry.obj
 0001:00034470       ssSetZcSignalType          0000000180035470 f   flightControlSystem_sfun_registry.obj
 0001:000344e0       ssSetZcSignalZcTol         00000001800354e0 f   flightControlSystem_sfun_registry.obj
 0001:00034550       ssSetZcSignalNeedsEventNotification 0000000180035550 f   flightControlSystem_sfun_registry.obj
 0001:000345c0       ssCreateAndAddZcSignalInfo 00000001800355c0 f   flightControlSystem_sfun_registry.obj
 0001:00034630       ssCloneAndAddZcSignalInfo  0000000180035630 f   flightControlSystem_sfun_registry.obj
 0001:000346a0       ssGetNumZcSignals          00000001800356a0 f   flightControlSystem_sfun_registry.obj
 0001:00034710       ssGetZcSignalVector        0000000180035710 f   flightControlSystem_sfun_registry.obj
 0001:00034780       ssGetZcSignalName          0000000180035780 f   flightControlSystem_sfun_registry.obj
 0001:000347f0       ssGetZcSignalWidth         00000001800357f0 f   flightControlSystem_sfun_registry.obj
 0001:00034860       ssGetZcSignalZcEventType   0000000180035860 f   flightControlSystem_sfun_registry.obj
 0001:000348d0       ssGetZcSignalZcEvents      00000001800358d0 f   flightControlSystem_sfun_registry.obj
 0001:00034940       ssGetZcSignalType          0000000180035940 f   flightControlSystem_sfun_registry.obj
 0001:000349b0       ssGetZcSignalZcTol         00000001800359b0 f   flightControlSystem_sfun_registry.obj
 0001:00034a30       ssGetZcSignalNeedsEventNotification 0000000180035a30 f   flightControlSystem_sfun_registry.obj
 0001:00034aa0       ssGetZcSignalIsZcElementDisc 0000000180035aa0 f   flightControlSystem_sfun_registry.obj
 0001:00034b40       ssGetIsInputPortElementContinuous 0000000180035b40 f   flightControlSystem_sfun_registry.obj
 0001:00034be0       _ssGetAbsTol               0000000180035be0 f   flightControlSystem_sfun_registry.obj
 0001:00034c50       _ssSetStateAbsTol          0000000180035c50 f   flightControlSystem_sfun_registry.obj
 0001:00034d30       _ssSetInputPortReusableFcn 0000000180035d30 f   flightControlSystem_sfun_registry.obj
 0001:00034e30       _ssSetOutputPortReusableFcn 0000000180035e30 f   flightControlSystem_sfun_registry.obj
 0001:00034f30       _ssSetSymbolicDimsSupport  0000000180035f30 f   flightControlSystem_sfun_registry.obj
 0001:00034fa0       _ssRegisterSymbolicDimsExpr 0000000180035fa0 f   flightControlSystem_sfun_registry.obj
 0001:00035020       _ssRegisterSymbolicDims    0000000180036020 f   flightControlSystem_sfun_registry.obj
 0001:000350c0       _ssRegisterSymbolicDimsString 00000001800360c0 f   flightControlSystem_sfun_registry.obj
 0001:00035140       _ssRegisterSymbolicDimsIntValue 0000000180036140 f   flightControlSystem_sfun_registry.obj
 0001:000351b0       _ssRegisterSymbolicDimsPlus 00000001800361b0 f   flightControlSystem_sfun_registry.obj
 0001:00035230       _ssRegisterSymbolicDimsMinus 0000000180036230 f   flightControlSystem_sfun_registry.obj
 0001:000352b0       _ssRegisterSymbolicDimsMultiply 00000001800362b0 f   flightControlSystem_sfun_registry.obj
 0001:00035330       _ssRegisterSymbolicDimsDivide 0000000180036330 f   flightControlSystem_sfun_registry.obj
 0001:000353b0       _ssGetNumSymbolicDims      00000001800363b0 f   flightControlSystem_sfun_registry.obj
 0001:00035420       _ssGetSymbolicDim          0000000180036420 f   flightControlSystem_sfun_registry.obj
 0001:000354a0       _ssSetInputPortSymbolicDimsId 00000001800364a0 f   flightControlSystem_sfun_registry.obj
 0001:00035510       _ssGetCompInputPortSymbolicDimsId 0000000180036510 f   flightControlSystem_sfun_registry.obj
 0001:00035580       _ssSetCompInputPortSymbolicDimsId 0000000180036580 f   flightControlSystem_sfun_registry.obj
 0001:000355f0       _ssSetOutputPortSymbolicDimsId 00000001800365f0 f   flightControlSystem_sfun_registry.obj
 0001:00035660       _ssGetCompOutputPortSymbolicDimsId 0000000180036660 f   flightControlSystem_sfun_registry.obj
 0001:000356d0       _ssSetCompOutputPortSymbolicDimsId 00000001800366d0 f   flightControlSystem_sfun_registry.obj
 0001:00035740       _ssSetCompDWorkSymbolicDimsId 0000000180036740 f   flightControlSystem_sfun_registry.obj
 0001:000357b0       sf_process_check_sum_call  00000001800367b0 f   flightControlSystem_sfun_registry.obj
 0001:00035800       sf_process_get_third_party_uses_info_call 0000000180036800 f   flightControlSystem_sfun_registry.obj
 0001:00035a30       sf_process_get_jit_fallback_info_call 0000000180036a30 f   flightControlSystem_sfun_registry.obj
 0001:00035c60       sf_process_get_post_codegen_info_call 0000000180036c60 f   flightControlSystem_sfun_registry.obj
 0001:00035e90       sf_process_get_updateBuildInfo_args_info_call 0000000180036e90 f   flightControlSystem_sfun_registry.obj
 0001:000360c0       sf_process_get_eml_resolved_functions_info_call 00000001800370c0 f   flightControlSystem_sfun_registry.obj
 0001:000362f0       sf_mex_unlock_call         00000001800372f0 f   flightControlSystem_sfun_registry.obj
 0001:00036510       sf_machine_global_initializer_called 0000000180037510 f   flightControlSystem_sfun_registry.obj
 0001:00036540       sf_machine_global_method_dispatcher 0000000180037540 f   flightControlSystem_sfun_registry.obj
 0001:000365a0       sf_machine_global_terminator 00000001800375a0 f   flightControlSystem_sfun_registry.obj
 0001:000365d0       sf_register_machine_exported_symbols 00000001800375d0 f   flightControlSystem_sfun_registry.obj
 0001:000365f0       callCustomFcn              00000001800375f0 f   flightControlSystem_sfun_registry.obj
 0001:00036600       sf_machine_global_initializer 0000000180037600 f   flightControlSystem_sfun_registry.obj
 0001:00036670       mdlGetSimState             0000000180037670 f   flightControlSystem_sfun_registry.obj
 0001:000366b0       mdlSetSimState             00000001800376b0 f   flightControlSystem_sfun_registry.obj
 0001:00037000       ProcessMexSfunctionEveryCall 0000000180038000 f   flightControlSystem_sfun_registry.obj
 0001:00038180       __local_stdio_printf_options 0000000180039180 f i flightControlSystem_sfun_registry.obj
 0001:00038190       _vsnprintf_l               0000000180039190 f i flightControlSystem_sfun_registry.obj
 0001:00038210       _vsprintf_l                0000000180039210 f i flightControlSystem_sfun_registry.obj
 0001:00038260       sprintf                    0000000180039260 f i flightControlSystem_sfun_registry.obj
 0001:000382b0       mexfilerequiredapiversion  00000001800392b0 f   c_mexapi_version.obj
 0001:000382e0       ?get_size@?$typed_base_any_policy@H@anyimpl@cvflann@@UEAA_KXZ 00000001800392e0 f i extractSurfCore.obj
 0001:000382f0       ?type@?$typed_base_any_policy@H@anyimpl@cvflann@@UEAAAEBVtype_info@@XZ 00000001800392f0 f i extractSurfCore.obj
 0001:00038300       ?static_delete@?$small_any_policy@H@anyimpl@cvflann@@UEAAXPEAPEAX@Z 0000000180039300 f i extractSurfCore.obj
 0001:00038310       ?copy_from_value@?$small_any_policy@H@anyimpl@cvflann@@UEAAXPEBXPEAPEAX@Z 0000000180039310 f i extractSurfCore.obj
 0001:00038350       ?clone@?$small_any_policy@H@anyimpl@cvflann@@UEAAXPEBQEAXPEAPEAX@Z 0000000180039350 f i extractSurfCore.obj
 0001:00038370       ?move@?$small_any_policy@H@anyimpl@cvflann@@UEAAXPEBQEAXPEAPEAX@Z 0000000180039370 f i extractSurfCore.obj
 0001:00038390       ?get_value@?$small_any_policy@H@anyimpl@cvflann@@UEAAPEAXPEAPEAX@Z 0000000180039390 f i extractSurfCore.obj
 0001:000383a0       ?get_value@?$small_any_policy@H@anyimpl@cvflann@@UEAAPEBXPEBQEAX@Z 00000001800393a0 f i extractSurfCore.obj
 0001:000383b0       ?print@?$small_any_policy@H@anyimpl@cvflann@@UEAAXAEAV?$basic_ostream@DU?$char_traits@D@std@@@std@@PEBQEAX@Z 00000001800393b0 f i extractSurfCore.obj
 0001:000383e0       ??_G?$small_any_policy@H@anyimpl@cvflann@@UEAAPEAXI@Z 00000001800393e0 f i extractSurfCore.obj
 0001:000383e0       ??_E?$small_any_policy@H@anyimpl@cvflann@@UEAAPEAXI@Z 00000001800393e0 f i extractSurfCore.obj
 0001:00038420       ?get_size@?$typed_base_any_policy@M@anyimpl@cvflann@@UEAA_KXZ 0000000180039420 f i extractSurfCore.obj
 0001:00038430       ?type@?$typed_base_any_policy@M@anyimpl@cvflann@@UEAAAEBVtype_info@@XZ 0000000180039430 f i extractSurfCore.obj
 0001:00038440       ?static_delete@?$small_any_policy@M@anyimpl@cvflann@@UEAAXPEAPEAX@Z 0000000180039440 f i extractSurfCore.obj
 0001:00038450       ?copy_from_value@?$small_any_policy@M@anyimpl@cvflann@@UEAAXPEBXPEAPEAX@Z 0000000180039450 f i extractSurfCore.obj
 0001:00038490       ?clone@?$small_any_policy@M@anyimpl@cvflann@@UEAAXPEBQEAXPEAPEAX@Z 0000000180039490 f i extractSurfCore.obj
 0001:000384b0       ?move@?$small_any_policy@M@anyimpl@cvflann@@UEAAXPEBQEAXPEAPEAX@Z 00000001800394b0 f i extractSurfCore.obj
 0001:000384d0       ?get_value@?$small_any_policy@M@anyimpl@cvflann@@UEAAPEAXPEAPEAX@Z 00000001800394d0 f i extractSurfCore.obj
 0001:000384e0       ?get_value@?$small_any_policy@M@anyimpl@cvflann@@UEAAPEBXPEBQEAX@Z 00000001800394e0 f i extractSurfCore.obj
 0001:000384f0       ?print@?$small_any_policy@M@anyimpl@cvflann@@UEAAXAEAV?$basic_ostream@DU?$char_traits@D@std@@@std@@PEBQEAX@Z 00000001800394f0 f i extractSurfCore.obj
 0001:00038520       ??_E?$small_any_policy@M@anyimpl@cvflann@@UEAAPEAXI@Z 0000000180039520 f i extractSurfCore.obj
 0001:00038520       ??_G?$small_any_policy@M@anyimpl@cvflann@@UEAAPEAXI@Z 0000000180039520 f i extractSurfCore.obj
 0001:00038560       ?get_size@?$typed_base_any_policy@_N@anyimpl@cvflann@@UEAA_KXZ 0000000180039560 f i extractSurfCore.obj
 0001:00038570       ?type@?$typed_base_any_policy@_N@anyimpl@cvflann@@UEAAAEBVtype_info@@XZ 0000000180039570 f i extractSurfCore.obj
 0001:00038580       ?static_delete@?$small_any_policy@_N@anyimpl@cvflann@@UEAAXPEAPEAX@Z 0000000180039580 f i extractSurfCore.obj
 0001:00038590       ?copy_from_value@?$small_any_policy@_N@anyimpl@cvflann@@UEAAXPEBXPEAPEAX@Z 0000000180039590 f i extractSurfCore.obj
 0001:000385d0       ?clone@?$small_any_policy@_N@anyimpl@cvflann@@UEAAXPEBQEAXPEAPEAX@Z 00000001800395d0 f i extractSurfCore.obj
 0001:000385f0       ?move@?$small_any_policy@_N@anyimpl@cvflann@@UEAAXPEBQEAXPEAPEAX@Z 00000001800395f0 f i extractSurfCore.obj
 0001:00038610       ?get_value@?$small_any_policy@_N@anyimpl@cvflann@@UEAAPEAXPEAPEAX@Z 0000000180039610 f i extractSurfCore.obj
 0001:00038620       ?get_value@?$small_any_policy@_N@anyimpl@cvflann@@UEAAPEBXPEBQEAX@Z 0000000180039620 f i extractSurfCore.obj
 0001:00038630       ?print@?$small_any_policy@_N@anyimpl@cvflann@@UEAAXAEAV?$basic_ostream@DU?$char_traits@D@std@@@std@@PEBQEAX@Z 0000000180039630 f i extractSurfCore.obj
 0001:00038660       ??_E?$small_any_policy@_N@anyimpl@cvflann@@UEAAPEAXI@Z 0000000180039660 f i extractSurfCore.obj
 0001:00038660       ??_G?$small_any_policy@_N@anyimpl@cvflann@@UEAAPEAXI@Z 0000000180039660 f i extractSurfCore.obj
 0001:000386a0       ?get_size@?$typed_base_any_policy@I@anyimpl@cvflann@@UEAA_KXZ 00000001800396a0 f i extractSurfCore.obj
 0001:000386b0       ?type@?$typed_base_any_policy@I@anyimpl@cvflann@@UEAAAEBVtype_info@@XZ 00000001800396b0 f i extractSurfCore.obj
 0001:000386c0       ?static_delete@?$small_any_policy@I@anyimpl@cvflann@@UEAAXPEAPEAX@Z 00000001800396c0 f i extractSurfCore.obj
 0001:000386d0       ?copy_from_value@?$small_any_policy@I@anyimpl@cvflann@@UEAAXPEBXPEAPEAX@Z 00000001800396d0 f i extractSurfCore.obj
 0001:00038710       ?clone@?$small_any_policy@I@anyimpl@cvflann@@UEAAXPEBQEAXPEAPEAX@Z 0000000180039710 f i extractSurfCore.obj
 0001:00038730       ?move@?$small_any_policy@I@anyimpl@cvflann@@UEAAXPEBQEAXPEAPEAX@Z 0000000180039730 f i extractSurfCore.obj
 0001:00038750       ?get_value@?$small_any_policy@I@anyimpl@cvflann@@UEAAPEAXPEAPEAX@Z 0000000180039750 f i extractSurfCore.obj
 0001:00038760       ?get_value@?$small_any_policy@I@anyimpl@cvflann@@UEAAPEBXPEBQEAX@Z 0000000180039760 f i extractSurfCore.obj
 0001:00038770       ?print@?$small_any_policy@I@anyimpl@cvflann@@UEAAXAEAV?$basic_ostream@DU?$char_traits@D@std@@@std@@PEBQEAX@Z 0000000180039770 f i extractSurfCore.obj
 0001:000387a0       ??_G?$small_any_policy@I@anyimpl@cvflann@@UEAAPEAXI@Z 00000001800397a0 f i extractSurfCore.obj
 0001:000387a0       ??_E?$small_any_policy@I@anyimpl@cvflann@@UEAAPEAXI@Z 00000001800397a0 f i extractSurfCore.obj
 0001:000387e0       ?get_size@?$typed_base_any_policy@W4flann_centers_init_t@cvflann@@@anyimpl@cvflann@@UEAA_KXZ 00000001800397e0 f i extractSurfCore.obj
 0001:000387f0       ?type@?$typed_base_any_policy@W4flann_centers_init_t@cvflann@@@anyimpl@cvflann@@UEAAAEBVtype_info@@XZ 00000001800397f0 f i extractSurfCore.obj
 0001:00038800       ?static_delete@?$big_any_policy@W4flann_centers_init_t@cvflann@@@anyimpl@cvflann@@UEAAXPEAPEAX@Z 0000000180039800 f i extractSurfCore.obj
 0001:00038850       ?copy_from_value@?$big_any_policy@W4flann_centers_init_t@cvflann@@@anyimpl@cvflann@@UEAAXPEBXPEAPEAX@Z 0000000180039850 f i extractSurfCore.obj
 0001:000388b0       ?clone@?$big_any_policy@W4flann_centers_init_t@cvflann@@@anyimpl@cvflann@@UEAAXPEBQEAXPEAPEAX@Z 00000001800398b0 f i extractSurfCore.obj
 0001:00038920       ?move@?$big_any_policy@W4flann_centers_init_t@cvflann@@@anyimpl@cvflann@@UEAAXPEBQEAXPEAPEAX@Z 0000000180039920 f i extractSurfCore.obj
 0001:00038950       ?get_value@?$big_any_policy@W4flann_centers_init_t@cvflann@@@anyimpl@cvflann@@UEAAPEAXPEAPEAX@Z 0000000180039950 f i extractSurfCore.obj
 0001:00038970       ?get_value@?$big_any_policy@W4flann_centers_init_t@cvflann@@@anyimpl@cvflann@@UEAAPEBXPEBQEAX@Z 0000000180039970 f i extractSurfCore.obj
 0001:00038990       ?print@?$big_any_policy@W4flann_centers_init_t@cvflann@@@anyimpl@cvflann@@UEAAXAEAV?$basic_ostream@DU?$char_traits@D@std@@@std@@PEBQEAX@Z 0000000180039990 f i extractSurfCore.obj
 0001:000389c0       ??_E?$big_any_policy@W4flann_centers_init_t@cvflann@@@anyimpl@cvflann@@UEAAPEAXI@Z 00000001800399c0 f i extractSurfCore.obj
 0001:000389c0       ??_G?$big_any_policy@W4flann_centers_init_t@cvflann@@@anyimpl@cvflann@@UEAAPEAXI@Z 00000001800399c0 f i extractSurfCore.obj
 0001:00038a00       ?get_size@?$typed_base_any_policy@W4flann_algorithm_t@cvflann@@@anyimpl@cvflann@@UEAA_KXZ 0000000180039a00 f i extractSurfCore.obj
 0001:00038a10       ?type@?$typed_base_any_policy@W4flann_algorithm_t@cvflann@@@anyimpl@cvflann@@UEAAAEBVtype_info@@XZ 0000000180039a10 f i extractSurfCore.obj
 0001:00038a20       ?static_delete@?$big_any_policy@W4flann_algorithm_t@cvflann@@@anyimpl@cvflann@@UEAAXPEAPEAX@Z 0000000180039a20 f i extractSurfCore.obj
 0001:00038a70       ?copy_from_value@?$big_any_policy@W4flann_algorithm_t@cvflann@@@anyimpl@cvflann@@UEAAXPEBXPEAPEAX@Z 0000000180039a70 f i extractSurfCore.obj
 0001:00038ad0       ?clone@?$big_any_policy@W4flann_algorithm_t@cvflann@@@anyimpl@cvflann@@UEAAXPEBQEAXPEAPEAX@Z 0000000180039ad0 f i extractSurfCore.obj
 0001:00038b40       ?move@?$big_any_policy@W4flann_algorithm_t@cvflann@@@anyimpl@cvflann@@UEAAXPEBQEAXPEAPEAX@Z 0000000180039b40 f i extractSurfCore.obj
 0001:00038b70       ?get_value@?$big_any_policy@W4flann_algorithm_t@cvflann@@@anyimpl@cvflann@@UEAAPEAXPEAPEAX@Z 0000000180039b70 f i extractSurfCore.obj
 0001:00038b90       ?get_value@?$big_any_policy@W4flann_algorithm_t@cvflann@@@anyimpl@cvflann@@UEAAPEBXPEBQEAX@Z 0000000180039b90 f i extractSurfCore.obj
 0001:00038bb0       ?print@?$big_any_policy@W4flann_algorithm_t@cvflann@@@anyimpl@cvflann@@UEAAXAEAV?$basic_ostream@DU?$char_traits@D@std@@@std@@PEBQEAX@Z 0000000180039bb0 f i extractSurfCore.obj
 0001:00038be0       ??_E?$big_any_policy@W4flann_algorithm_t@cvflann@@@anyimpl@cvflann@@UEAAPEAXI@Z 0000000180039be0 f i extractSurfCore.obj
 0001:00038be0       ??_G?$big_any_policy@W4flann_algorithm_t@cvflann@@@anyimpl@cvflann@@UEAAPEAXI@Z 0000000180039be0 f i extractSurfCore.obj
 0001:00038c20       ?get_size@?$typed_base_any_policy@V?$basic_string@DU?$char_traits@D@std@@V?$allocator@D@2@@std@@@anyimpl@cvflann@@UEAA_KXZ 0000000180039c20 f i extractSurfCore.obj
 0001:00038c30       ?type@?$typed_base_any_policy@V?$basic_string@DU?$char_traits@D@std@@V?$allocator@D@2@@std@@@anyimpl@cvflann@@UEAAAEBVtype_info@@XZ 0000000180039c30 f i extractSurfCore.obj
 0001:00038c40       ?static_delete@?$big_any_policy@V?$basic_string@DU?$char_traits@D@std@@V?$allocator@D@2@@std@@@anyimpl@cvflann@@UEAAXPEAPEAX@Z 0000000180039c40 f i extractSurfCore.obj
 0001:00038ca0       ?copy_from_value@?$big_any_policy@V?$basic_string@DU?$char_traits@D@std@@V?$allocator@D@2@@std@@@anyimpl@cvflann@@UEAAXPEBXPEAPEAX@Z 0000000180039ca0 f i extractSurfCore.obj
 0001:00038d10       ?clone@?$big_any_policy@V?$basic_string@DU?$char_traits@D@std@@V?$allocator@D@2@@std@@@anyimpl@cvflann@@UEAAXPEBQEAXPEAPEAX@Z 0000000180039d10 f i extractSurfCore.obj
 0001:00038d80       ?move@?$big_any_policy@V?$basic_string@DU?$char_traits@D@std@@V?$allocator@D@2@@std@@@anyimpl@cvflann@@UEAAXPEBQEAXPEAPEAX@Z 0000000180039d80 f i extractSurfCore.obj
 0001:00038dc0       ?get_value@?$big_any_policy@V?$basic_string@DU?$char_traits@D@std@@V?$allocator@D@2@@std@@@anyimpl@cvflann@@UEAAPEAXPEAPEAX@Z 0000000180039dc0 f i extractSurfCore.obj
 0001:00038de0       ?get_value@?$big_any_policy@V?$basic_string@DU?$char_traits@D@std@@V?$allocator@D@2@@std@@@anyimpl@cvflann@@UEAAPEBXPEBQEAX@Z 0000000180039de0 f i extractSurfCore.obj
 0001:00038e00       ?print@?$big_any_policy@V?$basic_string@DU?$char_traits@D@std@@V?$allocator@D@2@@std@@@anyimpl@cvflann@@UEAAXAEAV?$basic_ostream@DU?$char_traits@D@std@@@std@@PEBQEAX@Z 0000000180039e00 f i extractSurfCore.obj
 0001:00038e40       ??_G?$big_any_policy@V?$basic_string@DU?$char_traits@D@std@@V?$allocator@D@2@@std@@@anyimpl@cvflann@@UEAAPEAXI@Z 0000000180039e40 f i extractSurfCore.obj
 0001:00038e40       ??_E?$big_any_policy@V?$basic_string@DU?$char_traits@D@std@@V?$allocator@D@2@@std@@@anyimpl@cvflann@@UEAAPEAXI@Z 0000000180039e40 f i extractSurfCore.obj
 0001:00038e80       ?get_size@?$typed_base_any_policy@Uempty_any@anyimpl@cvflann@@@anyimpl@cvflann@@UEAA_KXZ 0000000180039e80 f i extractSurfCore.obj
 0001:00038e90       ?type@?$typed_base_any_policy@Uempty_any@anyimpl@cvflann@@@anyimpl@cvflann@@UEAAAEBVtype_info@@XZ 0000000180039e90 f i extractSurfCore.obj
 0001:00038ea0       ?static_delete@?$big_any_policy@Uempty_any@anyimpl@cvflann@@@anyimpl@cvflann@@UEAAXPEAPEAX@Z 0000000180039ea0 f i extractSurfCore.obj
 0001:00038ef0       ?copy_from_value@?$big_any_policy@Uempty_any@anyimpl@cvflann@@@anyimpl@cvflann@@UEAAXPEBXPEAPEAX@Z 0000000180039ef0 f i extractSurfCore.obj
 0001:00038f50       ?clone@?$big_any_policy@Uempty_any@anyimpl@cvflann@@@anyimpl@cvflann@@UEAAXPEBQEAXPEAPEAX@Z 0000000180039f50 f i extractSurfCore.obj
 0001:00038fb0       ?move@?$big_any_policy@Uempty_any@anyimpl@cvflann@@@anyimpl@cvflann@@UEAAXPEBQEAXPEAPEAX@Z 0000000180039fb0 f i extractSurfCore.obj
 0001:00038fc0       ?get_value@?$big_any_policy@Uempty_any@anyimpl@cvflann@@@anyimpl@cvflann@@UEAAPEAXPEAPEAX@Z 0000000180039fc0 f i extractSurfCore.obj
 0001:00038fe0       ?get_value@?$big_any_policy@Uempty_any@anyimpl@cvflann@@@anyimpl@cvflann@@UEAAPEBXPEBQEAX@Z 0000000180039fe0 f i extractSurfCore.obj
 0001:00039000       ?print@?$big_any_policy@Uempty_any@anyimpl@cvflann@@@anyimpl@cvflann@@UEAAXAEAV?$basic_ostream@DU?$char_traits@D@std@@@std@@PEBQEAX@Z 000000018003a000 f i extractSurfCore.obj
 0001:00039030       ??_E?$big_any_policy@Uempty_any@anyimpl@cvflann@@@anyimpl@cvflann@@UEAAPEAXI@Z 000000018003a030 f i extractSurfCore.obj
 0001:00039030       ??_G?$big_any_policy@Uempty_any@anyimpl@cvflann@@@anyimpl@cvflann@@UEAAPEAXI@Z 000000018003a030 f i extractSurfCore.obj
 0001:00039070       ?get_size@?$typed_base_any_policy@PEBD@anyimpl@cvflann@@UEAA_KXZ 000000018003a070 f i extractSurfCore.obj
 0001:00039080       ?type@?$typed_base_any_policy@PEBD@anyimpl@cvflann@@UEAAAEBVtype_info@@XZ 000000018003a080 f i extractSurfCore.obj
 0001:00039090       ?static_delete@?$small_any_policy@PEBD@anyimpl@cvflann@@UEAAXPEAPEAX@Z 000000018003a090 f i extractSurfCore.obj
 0001:000390a0       ?copy_from_value@?$small_any_policy@PEBD@anyimpl@cvflann@@UEAAXPEBXPEAPEAX@Z 000000018003a0a0 f i extractSurfCore.obj
 0001:000390e0       ?clone@?$small_any_policy@PEBD@anyimpl@cvflann@@UEAAXPEBQEAXPEAPEAX@Z 000000018003a0e0 f i extractSurfCore.obj
 0001:00039100       ?move@?$small_any_policy@PEBD@anyimpl@cvflann@@UEAAXPEBQEAXPEAPEAX@Z 000000018003a100 f i extractSurfCore.obj
 0001:00039120       ?get_value@?$small_any_policy@PEBD@anyimpl@cvflann@@UEAAPEAXPEAPEAX@Z 000000018003a120 f i extractSurfCore.obj
 0001:00039130       ?get_value@?$small_any_policy@PEBD@anyimpl@cvflann@@UEAAPEBXPEBQEAX@Z 000000018003a130 f i extractSurfCore.obj
 0001:00039140       ?print@?$small_any_policy@PEBD@anyimpl@cvflann@@UEAAXAEAV?$basic_ostream@DU?$char_traits@D@std@@@std@@PEBQEAX@Z 000000018003a140 f i extractSurfCore.obj
 0001:00039170       ??_G?$small_any_policy@PEBD@anyimpl@cvflann@@UEAAPEAXI@Z 000000018003a170 f i extractSurfCore.obj
 0001:00039170       ??_E?$small_any_policy@PEBD@anyimpl@cvflann@@UEAAPEAXI@Z 000000018003a170 f i extractSurfCore.obj
 0001:000391f0       extractSurf_assignOutput   000000018003a1f0 f   extractSurfCore.obj
 0001:00039360       extractSurf_assignOutputRM 000000018003a360 f   extractSurfCore.obj
 0001:000394d0       extractSurf_compute        000000018003a4d0 f   extractSurfCore.obj
 0001:00039760       extractSurf_computeRM      000000018003a760 f   extractSurfCore.obj
 0001:000399f0       ?keyPoints2Fields@@YAXAEAV?$vector@VKeyPoint@cv@@V?$allocator@VKeyPoint@cv@@@std@@@std@@_NPEAM22PEAC2@Z 000000018003a9f0 f   extractSurfCore.obj
 0001:00039bc0       ?keyPoints2FieldsRM@@YAXAEAV?$vector@VKeyPoint@cv@@V?$allocator@VKeyPoint@cv@@@std@@@std@@_NPEAM22PEAC2@Z 000000018003abc0 f   extractSurfCore.obj
 0001:00039da0       ?struct2KeyPoints@@YAXPEAM00PEACAEAV?$vector@VKeyPoint@cv@@V?$allocator@VKeyPoint@cv@@@std@@@std@@H@Z 000000018003ada0 f   extractSurfCore.obj
 0001:00039f50       ?struct2KeyPointsRM@@YAXPEAM00PEACAEAV?$vector@VKeyPoint@cv@@V?$allocator@VKeyPoint@cv@@@std@@@std@@H@Z 000000018003af50 f   extractSurfCore.obj
 0001:0003a170       ??$?0$$V@?$_Compressed_pair@V?$allocator@D@std@@V?$_String_val@U?$_Simple_types@D@std@@@2@$00@std@@QEAA@U_Zero_then_variadic_args_t@1@@Z 000000018003b170 f i extractSurfCore.obj
 0001:0003a1a0       ??$?0$$V@?$_Compressed_pair@V?$allocator@VKeyPoint@cv@@@std@@V?$_Vector_val@U?$_Simple_types@VKeyPoint@cv@@@std@@@2@$00@std@@QEAA@U_Zero_then_variadic_args_t@1@@Z 000000018003b1a0 f i extractSurfCore.obj
 0001:0003a1d0       ??$?0$$V@?$_Ref_count_obj2@VMWSURF@cv@@@std@@QEAA@XZ 000000018003b1d0 f i extractSurfCore.obj
 0001:0003a220       ??$?0V?$allocator@D@std@@$$V@?$_Compressed_pair@V?$allocator@D@std@@V?$_String_val@U?$_Simple_types@D@std@@@2@$00@std@@QEAA@U_One_then_variadic_args_t@1@$$QEAV?$allocator@D@1@@Z 000000018003b220 f i extractSurfCore.obj
 0001:0003a260       ??$?0V?$allocator@VKeyPoint@cv@@@std@@$$V@?$_Compressed_pair@V?$allocator@VKeyPoint@cv@@@std@@V?$_Vector_val@U?$_Simple_types@VKeyPoint@cv@@@std@@@2@$00@std@@QEAA@U_One_then_variadic_args_t@1@$$QEAV?$allocator@VKeyPoint@cv@@@1@@Z 000000018003b260 f i extractSurfCore.obj
 0001:0003a2a0       ??$?6U?$char_traits@D@std@@@std@@YAAEAV?$basic_ostream@DU?$char_traits@D@std@@@0@AEAV10@PEBD@Z 000000018003b2a0 f i extractSurfCore.obj
 0001:0003a650       ??$_Allocate@$0BA@U_Default_allocate_traits@std@@$0A@@std@@YAPEAX_K@Z 000000018003b650 f i extractSurfCore.obj
 0001:0003a690       ??$_Allocate_manually_vector_aligned@U_Default_allocate_traits@std@@@std@@YAPEAX_K@Z 000000018003b690 f i extractSurfCore.obj
 0001:0003a720       ??$_Construct_in_place@PEADAEBQEAD@std@@YAXAEAPEADAEBQEAD@Z 000000018003b720 f i extractSurfCore.obj
 0001:0003a770       ??$_Construct_in_place@VMWSURF@cv@@$$V@std@@YAXAEAVMWSURF@cv@@@Z 000000018003b770 f i extractSurfCore.obj
 0001:0003a7c0       ??$_Convert_size@_K@std@@YA_K_K@Z 000000018003b7c0 f i extractSurfCore.obj
 0001:0003a7d0       ??$_Deallocate@$0BA@$0A@@std@@YAXPEAX_K@Z 000000018003b7d0 f i extractSurfCore.obj
 0001:0003a810       ??$_Destroy_in_place@PEAD@std@@YAXAEAPEAD@Z 000000018003b810 f i extractSurfCore.obj
 0001:0003a820       ??$_Destroy_in_place@VMWSURF@cv@@@std@@YAXAEAVMWSURF@cv@@@Z 000000018003b820 f i extractSurfCore.obj
 0001:0003a860       ??$_Destroy_range@V?$allocator@VKeyPoint@cv@@@std@@@std@@YAXPEAVKeyPoint@cv@@QEAV12@AEAV?$allocator@VKeyPoint@cv@@@0@@Z 000000018003b860 f i extractSurfCore.obj
 0001:0003a870       ??$_Emplace_back@AEAVKeyPoint@cv@@@?$_Uninitialized_backout_al@V?$allocator@VKeyPoint@cv@@@std@@@std@@QEAAXAEAVKeyPoint@cv@@@Z 000000018003b870 f i extractSurfCore.obj
 0001:0003a8d0       ??$_Emplace_back@VKeyPoint@cv@@@?$_Uninitialized_backout_al@V?$allocator@VKeyPoint@cv@@@std@@@std@@QEAAX$$QEAVKeyPoint@cv@@@Z 000000018003b8d0 f i extractSurfCore.obj
 0001:0003a930       ??$_Emplace_back_with_unused_capacity@AEBVKeyPoint@cv@@@?$vector@VKeyPoint@cv@@V?$allocator@VKeyPoint@cv@@@std@@@std@@AEAAXAEBVKeyPoint@cv@@@Z 000000018003b930 f i extractSurfCore.obj
 0001:0003a9e0       ??$_Emplace_reallocate@AEBVKeyPoint@cv@@@?$vector@VKeyPoint@cv@@V?$allocator@VKeyPoint@cv@@@std@@@std@@QEAAPEAVKeyPoint@cv@@QEAV23@AEBV23@@Z 000000018003b9e0 f i extractSurfCore.obj
 0001:0003ac10       ??$_Get_size_of_n@$00@std@@YA_K_K@Z 000000018003bc10 f i extractSurfCore.obj
 0001:0003ac30       ??$_Get_size_of_n@$0BM@@std@@YA_K_K@Z 000000018003bc30 f i extractSurfCore.obj
 0001:0003ac70       ??$_Get_unwrapped@AEBQEAVKeyPoint@cv@@@std@@YAPEAVKeyPoint@cv@@AEBQEAV12@@Z 000000018003bc70 f i extractSurfCore.obj
 0001:0003ac80       ??$_Getvals@_W@?$time_get@DV?$istreambuf_iterator@DU?$char_traits@D@std@@@std@@@std@@IEAAX_WAEBV_Locinfo@1@@Z 000000018003bc80 f i extractSurfCore.obj
 0001:0003adf0       ??$_Getvals@_W@?$time_get@_WV?$istreambuf_iterator@_WU?$char_traits@_W@std@@@std@@@std@@IEAAX_WAEBV_Locinfo@1@@Z 000000018003bdf0 f i extractSurfCore.obj
 0001:0003af60       ??$_Maklocstr@D@std@@YAPEADPEBDPEADAEBU_Cvtvec@@@Z 000000018003bf60 f i extractSurfCore.obj
 0001:0003b000       ??$_Maklocstr@_W@std@@YAPEA_WPEBDPEA_WAEBU_Cvtvec@@@Z 000000018003c000 f i extractSurfCore.obj
 0001:0003b1d0       ??$_Move_construct_from@VMWSURF@cv@@@?$_Ptr_base@VMWSURF@cv@@@std@@IEAAX$$QEAV01@@Z 000000018003c1d0 f i extractSurfCore.obj
 0001:0003b220       ??$_Pocca@V?$allocator@D@std@@@std@@YAXAEAV?$allocator@D@0@AEBV10@@Z 000000018003c220 f i extractSurfCore.obj
 0001:0003b230       ??$_Reallocate_for@V<lambda_66f57f934f28d61049862f64df852ff0>@@PEBD@?$basic_string@DU?$char_traits@D@std@@V?$allocator@D@2@@std@@AEAAAEAV01@_KV<lambda_66f57f934f28d61049862f64df852ff0>@@PEBD@Z 000000018003c230 f i extractSurfCore.obj
 0001:0003b350       ??$_Set_ptr_rep_and_enable_shared@VMWSURF@cv@@@?$shared_ptr@VMWSURF@cv@@@std@@AEAAXQEAVMWSURF@cv@@QEAV_Ref_count_base@1@@Z 000000018003c350 f i extractSurfCore.obj
 0001:0003b380       ??$_Ucopy@PEAVKeyPoint@cv@@@?$vector@VKeyPoint@cv@@V?$allocator@VKeyPoint@cv@@@std@@@std@@AEAAPEAVKeyPoint@cv@@PEAV23@00@Z 000000018003c380 f i extractSurfCore.obj
 0001:0003b3c0       ??$_Unfancy@D@std@@YAPEADPEAD@Z 000000018003c3c0 f i extractSurfCore.obj
 0001:0003b3d0       ??$_Unfancy@VKeyPoint@cv@@@std@@YAPEAVKeyPoint@cv@@PEAV12@@Z 000000018003c3d0 f i extractSurfCore.obj
 0001:0003b3e0       ??$_Uninitialized_copy@PEAVKeyPoint@cv@@V?$allocator@VKeyPoint@cv@@@std@@@std@@YAPEAVKeyPoint@cv@@QEAV12@0PEAV12@AEAV?$allocator@VKeyPoint@cv@@@0@@Z 000000018003c3e0 f i extractSurfCore.obj
 0001:0003b480       ??$_Uninitialized_move@PEAVKeyPoint@cv@@V?$allocator@VKeyPoint@cv@@@std@@@std@@YAPEAVKeyPoint@cv@@QEAV12@0PEAV12@AEAV?$allocator@VKeyPoint@cv@@@0@@Z 000000018003c480 f i extractSurfCore.obj
 0001:0003b530       ??$_Voidify_iter@PEAPEAD@std@@YAPEAXPEAPEAD@Z 000000018003c530 f i extractSurfCore.obj
 0001:0003b540       ??$_Voidify_iter@PEAVMWSURF@cv@@@std@@YAPEAXPEAVMWSURF@cv@@@Z 000000018003c540 f i extractSurfCore.obj
 0001:0003b550       ??$addressof@$$CBV?$basic_string@DU?$char_traits@D@std@@V?$allocator@D@2@@std@@@std@@YAPEBV?$basic_string@DU?$char_traits@D@std@@V?$allocator@D@2@@0@AEBV10@@Z 000000018003c550 f i extractSurfCore.obj
 0001:0003b560       ??$addressof@PEAD@std@@YAPEAPEADAEAPEAD@Z 000000018003c560 f i extractSurfCore.obj
 0001:0003b570       ??$addressof@VMWSURF@cv@@@std@@YAPEAVMWSURF@cv@@AEAV12@@Z 000000018003c570 f i extractSurfCore.obj
 0001:0003b580       ??$cArrayFromMat@M@@YAXPEAMAEBVMat@cv@@@Z 000000018003c580 f i extractSurfCore.obj
 0001:0003b7a0       ??$cArrayFromMat_RowMaj@M@@YAXPEAMAEBVMat@cv@@@Z 000000018003c7a0 f i extractSurfCore.obj
 0001:0003b8d0       ??$construct@VKeyPoint@cv@@AEAV12@@?$_Default_allocator_traits@V?$allocator@VKeyPoint@cv@@@std@@@std@@SAXAEAV?$allocator@VKeyPoint@cv@@@1@QEAVKeyPoint@cv@@AEAV34@@Z 000000018003c8d0 f i extractSurfCore.obj
 0001:0003b920       ??$construct@VKeyPoint@cv@@AEBV12@@?$_Default_allocator_traits@V?$allocator@VKeyPoint@cv@@@std@@@std@@SAXAEAV?$allocator@VKeyPoint@cv@@@1@QEAVKeyPoint@cv@@AEBV34@@Z 000000018003c920 f i extractSurfCore.obj
 0001:0003b970       ??$construct@VKeyPoint@cv@@V12@@?$_Default_allocator_traits@V?$allocator@VKeyPoint@cv@@@std@@@std@@SAXAEAV?$allocator@VKeyPoint@cv@@@1@QEAVKeyPoint@cv@@$$QEAV34@@Z 000000018003c970 f i extractSurfCore.obj
 0001:0003b9c0       ??$copyToArrayBGR_RowMaj@M@@YAXPEAM0HHH@Z 000000018003c9c0 f i extractSurfCore.obj
 0001:0003ba60       ??$copyToArray_RowMaj@M@@YAXPEAM0HH@Z 000000018003ca60 f i extractSurfCore.obj
 0001:0003baa0       ??$emplace_back@AEBVKeyPoint@cv@@@?$vector@VKeyPoint@cv@@V?$allocator@VKeyPoint@cv@@@std@@@std@@QEAAXAEBVKeyPoint@cv@@@Z 000000018003caa0 f i extractSurfCore.obj
 0001:0003bb20       ??$forward@AEAVKeyPoint@cv@@@std@@YAAEAVKeyPoint@cv@@AEAV12@@Z 000000018003cb20 f i extractSurfCore.obj
 0001:0003bb30       ??$forward@AEBQEAD@std@@YAAEBQEADAEBQEAD@Z 000000018003cb30 f i extractSurfCore.obj
 0001:0003bb40       ??$forward@AEBVKeyPoint@cv@@@std@@YAAEBVKeyPoint@cv@@AEBV12@@Z 000000018003cb40 f i extractSurfCore.obj
 0001:0003bb50       ??$forward@V?$allocator@D@std@@@std@@YA$$QEAV?$allocator@D@0@AEAV10@@Z 000000018003cb50 f i extractSurfCore.obj
 0001:0003bb60       ??$forward@V?$allocator@VKeyPoint@cv@@@std@@@std@@YA$$QEAV?$allocator@VKeyPoint@cv@@@0@AEAV10@@Z 000000018003cb60 f i extractSurfCore.obj
 0001:0003bb70       ??$forward@VKeyPoint@cv@@@std@@YA$$QEAVKeyPoint@cv@@AEAV12@@Z 000000018003cb70 f i extractSurfCore.obj
 0001:0003bb80       ??$make_shared@VMWSURF@cv@@$$V@std@@YA?AV?$shared_ptr@VMWSURF@cv@@@0@XZ 000000018003cb80 f i extractSurfCore.obj
 0001:0003bc40       ??$max@_K@std@@YAAEB_KAEB_K0@Z 000000018003cc40 f i extractSurfCore.obj
 0001:0003bc90       ??$min@_K@std@@YAAEB_KAEB_K0@Z 000000018003cc90 f i extractSurfCore.obj
 0001:0003bce0       ??$move@AEAM@std@@YA$$QEAMAEAM@Z 000000018003cce0 f i extractSurfCore.obj
 0001:0003bcf0       ??$move@AEAV?$shared_ptr@VMWSURF@cv@@@std@@@std@@YA$$QEAV?$shared_ptr@VMWSURF@cv@@@0@AEAV10@@Z 000000018003ccf0 f i extractSurfCore.obj
 0001:0003bd00       ??$move@AEAVKeyPoint@cv@@@std@@YA$$QEAVKeyPoint@cv@@AEAV12@@Z 000000018003cd00 f i extractSurfCore.obj
 0001:0003bd10       ??0?$Point_@M@cv@@QEAA@$$QEAV01@@Z 000000018003cd10 f i extractSurfCore.obj
 0001:0003bd70       ??0?$Point_@M@cv@@QEAA@AEBV01@@Z 000000018003cd70 f i extractSurfCore.obj
 0001:0003bdb0       ??0?$Point_@M@cv@@QEAA@MM@Z 000000018003cdb0 f i extractSurfCore.obj
 0001:0003bdf0       ??0?$Ptr@VMWSURF@cv@@@cv@@QEAA@$$QEAV?$shared_ptr@VMWSURF@cv@@@std@@@Z 000000018003cdf0 f i extractSurfCore.obj
 0001:0003be20       ??0?$Size_@H@cv@@QEAA@HH@Z 000000018003ce20 f i extractSurfCore.obj
 0001:0003be50       ??0?$_Ptr_base@VMWSURF@cv@@@std@@IEAA@XZ 000000018003ce50 f i extractSurfCore.obj
 0001:0003be80       ??0?$_String_val@U?$_Simple_types@D@std@@@std@@QEAA@XZ 000000018003ce80 f i extractSurfCore.obj
 0001:0003bec0       ??0?$_Uninitialized_backout_al@V?$allocator@VKeyPoint@cv@@@std@@@std@@QEAA@PEAVKeyPoint@cv@@AEAV?$allocator@VKeyPoint@cv@@@1@@Z 000000018003cec0 f i extractSurfCore.obj
 0001:0003bf00       ??0?$_Vector_val@U?$_Simple_types@VKeyPoint@cv@@@std@@@std@@QEAA@XZ 000000018003cf00 f i extractSurfCore.obj
 0001:0003bf40       ??0?$allocator@D@std@@QEAA@XZ 000000018003cf40 f i extractSurfCore.obj
 0001:0003bf50       ??0?$allocator@VKeyPoint@cv@@@std@@QEAA@XZ 000000018003cf50 f i extractSurfCore.obj
 0001:0003bf60       ??0?$basic_string@DU?$char_traits@D@std@@V?$allocator@D@2@@std@@QEAA@AEBV01@@Z 000000018003cf60 f i extractSurfCore.obj
 0001:0003bfe0       ??0?$basic_string@DU?$char_traits@D@std@@V?$allocator@D@2@@std@@QEAA@QEBD@Z 000000018003cfe0 f i extractSurfCore.obj
 0001:0003c050       ??0?$shared_ptr@VMWSURF@cv@@@std@@QEAA@$$QEAV01@@Z 000000018003d050 f i extractSurfCore.obj
 0001:0003c090       ??0?$shared_ptr@VMWSURF@cv@@@std@@QEAA@XZ 000000018003d090 f i extractSurfCore.obj
 0001:0003c0b0       ??0?$vector@VKeyPoint@cv@@V?$allocator@VKeyPoint@cv@@@std@@@std@@QEAA@AEBV01@@Z 000000018003d0b0 f i extractSurfCore.obj
 0001:0003c1c0       ??0?$vector@VKeyPoint@cv@@V?$allocator@VKeyPoint@cv@@@std@@@std@@QEAA@XZ 000000018003d1c0 f i extractSurfCore.obj
 0001:0003c200       ??0KeyPoint@cv@@QEAA@$$QEAV01@@Z 000000018003d200 f i extractSurfCore.obj
 0001:0003c290       ??0KeyPoint@cv@@QEAA@AEBV01@@Z 000000018003d290 f i extractSurfCore.obj
 0001:0003c320       ??0KeyPoint@cv@@QEAA@MMMMMHH@Z 000000018003d320 f i extractSurfCore.obj
 0001:0003c3b0       ??0Mat@cv@@QEAA@AEBV01@@Z  000000018003d3b0 f i extractSurfCore.obj
 0001:0003c550       ??0Mat@cv@@QEAA@HHHPEAX_K@Z 000000018003d550 f i extractSurfCore.obj
 0001:0003c890       ??0Mat@cv@@QEAA@XZ         000000018003d890 f i extractSurfCore.obj
 0001:0003c950       ??0MatSize@cv@@QEAA@PEAH@Z 000000018003d950 f i extractSurfCore.obj
 0001:0003c970       ??0MatStep@cv@@QEAA@XZ     000000018003d970 f i extractSurfCore.obj
 0001:0003c9c0       ??0MatStep@cv@@QEAA@_K@Z   000000018003d9c0 f i extractSurfCore.obj
 0001:0003ca20       ??0_Bxty@?$_String_val@U?$_Simple_types@D@std@@@std@@QEAA@XZ 000000018003da20 f i extractSurfCore.obj
 0001:0003ca30       ??0_Fake_proxy_ptr_impl@std@@QEAA@AEBU_Fake_allocator@1@AEBU_Container_base0@1@@Z 000000018003da30 f i extractSurfCore.obj
 0001:0003ca50       ??0_Ref_count_base@std@@IEAA@XZ 000000018003da50 f i extractSurfCore.obj
 0001:0003ca80       ??0_Sentry_base@?$basic_ostream@DU?$char_traits@D@std@@@std@@QEAA@AEAV12@@Z 000000018003da80 f i extractSurfCore.obj
 0001:0003caf0       ??0bad_alloc@std@@AEAA@QEBD@Z 000000018003daf0 f i extractSurfCore.obj
 0001:0003cb30       ??0bad_alloc@std@@QEAA@AEBV01@@Z 000000018003db30 f i extractSurfCore.obj
 0001:0003cb70       ??0bad_array_new_length@std@@QEAA@AEBV01@@Z 000000018003db70 f i extractSurfCore.obj
 0001:0003cbb0       ??0bad_array_new_length@std@@QEAA@XZ 000000018003dbb0 f i extractSurfCore.obj
 0001:0003cbf0       ??0exception@std@@QEAA@AEBV01@@Z 000000018003dbf0 f i extractSurfCore.obj
 0001:0003cc50       ??0exception@std@@QEAA@QEBDH@Z 000000018003dc50 f i extractSurfCore.obj
 0001:0003cca0       ??0sentry@?$basic_ostream@DU?$char_traits@D@std@@@std@@QEAA@AEAV12@@Z 000000018003dca0 f i extractSurfCore.obj
 0001:0003cd80       ??1?$Ptr@VMWSURF@cv@@@cv@@QEAA@XZ 000000018003dd80 f i extractSurfCore.obj
 0001:0003cda0       ??1?$_Compressed_pair@V?$allocator@D@std@@V?$_String_val@U?$_Simple_types@D@std@@@2@$00@std@@QEAA@XZ 000000018003dda0 f i extractSurfCore.obj
 0001:0003cdc0       ??1?$_Ref_count_obj2@VMWSURF@cv@@@std@@UEAA@XZ 000000018003ddc0 f i extractSurfCore.obj
 0001:0003cdf0       ??1?$_String_val@U?$_Simple_types@D@std@@@std@@QEAA@XZ 000000018003ddf0 f i extractSurfCore.obj
 0001:0003ce10       ??1?$_Tidy_guard@V?$vector@VKeyPoint@cv@@V?$allocator@VKeyPoint@cv@@@std@@@std@@@std@@QEAA@XZ 000000018003de10 f i extractSurfCore.obj
 0001:0003ce40       ??1?$_Uninitialized_backout_al@V?$allocator@VKeyPoint@cv@@@std@@@std@@QEAA@XZ 000000018003de40 f i extractSurfCore.obj
 0001:0003ce70       ??1?$basic_string@DU?$char_traits@D@std@@V?$allocator@D@2@@std@@QEAA@XZ 000000018003de70 f i extractSurfCore.obj
 0001:0003cea0       ??1?$big_any_policy@Uempty_any@anyimpl@cvflann@@@anyimpl@cvflann@@UEAA@XZ 000000018003dea0 f i extractSurfCore.obj
 0001:0003cec0       ??1?$big_any_policy@V?$basic_string@DU?$char_traits@D@std@@V?$allocator@D@2@@std@@@anyimpl@cvflann@@UEAA@XZ 000000018003dec0 f i extractSurfCore.obj
 0001:0003cee0       ??1?$big_any_policy@W4flann_algorithm_t@cvflann@@@anyimpl@cvflann@@UEAA@XZ 000000018003dee0 f i extractSurfCore.obj
 0001:0003cf00       ??1?$big_any_policy@W4flann_centers_init_t@cvflann@@@anyimpl@cvflann@@UEAA@XZ 000000018003df00 f i extractSurfCore.obj
 0001:0003cf20       ??1?$shared_ptr@VMWSURF@cv@@@std@@QEAA@XZ 000000018003df20 f i extractSurfCore.obj
 0001:0003cf40       ??1?$small_any_policy@H@anyimpl@cvflann@@UEAA@XZ 000000018003df40 f i extractSurfCore.obj
 0001:0003cf60       ??1?$small_any_policy@I@anyimpl@cvflann@@UEAA@XZ 000000018003df60 f i extractSurfCore.obj
 0001:0003cf80       ??1?$small_any_policy@M@anyimpl@cvflann@@UEAA@XZ 000000018003df80 f i extractSurfCore.obj
 0001:0003cfa0       ??1?$small_any_policy@PEBD@anyimpl@cvflann@@UEAA@XZ 000000018003dfa0 f i extractSurfCore.obj
 0001:0003cfc0       ??1?$small_any_policy@_N@anyimpl@cvflann@@UEAA@XZ 000000018003dfc0 f i extractSurfCore.obj
 0001:0003cfe0       ??1?$typed_base_any_policy@H@anyimpl@cvflann@@UEAA@XZ 000000018003dfe0 f i extractSurfCore.obj
 0001:0003d000       ??1?$typed_base_any_policy@I@anyimpl@cvflann@@UEAA@XZ 000000018003e000 f i extractSurfCore.obj
 0001:0003d020       ??1?$typed_base_any_policy@M@anyimpl@cvflann@@UEAA@XZ 000000018003e020 f i extractSurfCore.obj
 0001:0003d040       ??1?$typed_base_any_policy@PEBD@anyimpl@cvflann@@UEAA@XZ 000000018003e040 f i extractSurfCore.obj
 0001:0003d060       ??1?$typed_base_any_policy@Uempty_any@anyimpl@cvflann@@@anyimpl@cvflann@@UEAA@XZ 000000018003e060 f i extractSurfCore.obj
 0001:0003d080       ??1?$typed_base_any_policy@V?$basic_string@DU?$char_traits@D@std@@V?$allocator@D@2@@std@@@anyimpl@cvflann@@UEAA@XZ 000000018003e080 f i extractSurfCore.obj
 0001:0003d0a0       ??1?$typed_base_any_policy@W4flann_algorithm_t@cvflann@@@anyimpl@cvflann@@UEAA@XZ 000000018003e0a0 f i extractSurfCore.obj
 0001:0003d0c0       ??1?$typed_base_any_policy@W4flann_centers_init_t@cvflann@@@anyimpl@cvflann@@UEAA@XZ 000000018003e0c0 f i extractSurfCore.obj
 0001:0003d0e0       ??1?$typed_base_any_policy@_N@anyimpl@cvflann@@UEAA@XZ 000000018003e0e0 f i extractSurfCore.obj
 0001:0003d100       ??1?$vector@VKeyPoint@cv@@V?$allocator@VKeyPoint@cv@@@std@@@std@@QEAA@XZ 000000018003e100 f i extractSurfCore.obj
 0001:0003d120       ??1Mat@cv@@QEAA@XZ         000000018003e120 f i extractSurfCore.obj
 0001:0003d160       ??1_Bxty@?$_String_val@U?$_Simple_types@D@std@@@std@@QEAA@XZ 000000018003e160 f i extractSurfCore.obj
 0001:0003d170       ??1_Ref_count_base@std@@UEAA@XZ 000000018003e170 f i extractSurfCore.obj
 0001:0003d180       ??1_Sentry_base@?$basic_ostream@DU?$char_traits@D@std@@@std@@QEAA@XZ 000000018003e180 f i extractSurfCore.obj
 0001:0003d1e0       ??1bad_alloc@std@@UEAA@XZ  000000018003e1e0 f i extractSurfCore.obj
 0001:0003d200       ??1bad_array_new_length@std@@UEAA@XZ 000000018003e200 f i extractSurfCore.obj
 0001:0003d220       ??1base_any_policy@anyimpl@cvflann@@UEAA@XZ 000000018003e220 f i extractSurfCore.obj
 0001:0003d240       ??1exception@std@@UEAA@XZ  000000018003e240 f i extractSurfCore.obj
 0001:0003d270       ??1sentry@?$basic_ostream@DU?$char_traits@D@std@@@std@@QEAA@XZ 000000018003e270 f i extractSurfCore.obj
 0001:0003d2d0       ??2@YAPEAX_KPEAX@Z         000000018003e2d0 f i extractSurfCore.obj
 0001:0003d2e0       ??4?$basic_string@DU?$char_traits@D@std@@V?$allocator@D@2@@std@@QEAAAEAV01@AEBV01@@Z 000000018003e2e0 f i extractSurfCore.obj
 0001:0003d340       ??6anyimpl@cvflann@@YAAEAV?$basic_ostream@DU?$char_traits@D@std@@@std@@AEAV23@AEBUempty_any@01@@Z 000000018003e340 f i extractSurfCore.obj
 0001:0003d370       ??A?$vector@VKeyPoint@cv@@V?$allocator@VKeyPoint@cv@@@std@@@std@@QEAAAEAVKeyPoint@cv@@_K@Z 000000018003e370 f i extractSurfCore.obj
 0001:0003d3a0       ??AMatSize@cv@@QEBAAEBHH@Z 000000018003e3a0 f i extractSurfCore.obj
 0001:0003d3c0       ??AMatStep@cv@@QEAAAEA_KH@Z 000000018003e3c0 f i extractSurfCore.obj
 0001:0003d3e0       ??AMatStep@cv@@QEBAAEB_KH@Z 000000018003e3e0 f i extractSurfCore.obj
 0001:0003d400       ??Bsentry@?$basic_ostream@DU?$char_traits@D@std@@@std@@QEBA_NXZ 000000018003e400 f i extractSurfCore.obj
 0001:0003d410       ??C?$Ptr@VMWSURF@cv@@@cv@@QEBAPEAVMWSURF@1@XZ 000000018003e410 f i extractSurfCore.obj
 0001:0003d430       ??R<lambda_66f57f934f28d61049862f64df852ff0>@@QEBAXQEAD_KQEBD@Z 000000018003e430 f i extractSurfCore.obj
 0001:0003d490       ??RMatSize@cv@@QEBA?AV?$Size_@H@1@XZ 000000018003e490 f i extractSurfCore.obj
 0001:0003d4f0       ??_E?$_Ref_count_obj2@VMWSURF@cv@@@std@@UEAAPEAXI@Z 000000018003e4f0 f i extractSurfCore.obj
 0001:0003d4f0       ??_G?$_Ref_count_obj2@VMWSURF@cv@@@std@@UEAAPEAXI@Z 000000018003e4f0 f i extractSurfCore.obj
 0001:0003d530       ??_G?$basic_string@DU?$char_traits@D@std@@V?$allocator@D@2@@std@@QEAAPEAXI@Z 000000018003e530 f i extractSurfCore.obj
 0001:0003d570       ??_G?$vector@VKeyPoint@cv@@V?$allocator@VKeyPoint@cv@@@std@@@std@@QEAAPEAXI@Z 000000018003e570 f i extractSurfCore.obj
 0001:0003d5b0       ??_GMat@cv@@QEAAPEAXI@Z    000000018003e5b0 f i extractSurfCore.obj
 0001:0003d5f0       ??_Gbad_alloc@std@@UEAAPEAXI@Z 000000018003e5f0 f i extractSurfCore.obj
 0001:0003d5f0       ??_Ebad_alloc@std@@UEAAPEAXI@Z 000000018003e5f0 f i extractSurfCore.obj
 0001:0003d630       ??_Ebad_array_new_length@std@@UEAAPEAXI@Z 000000018003e630 f i extractSurfCore.obj
 0001:0003d630       ??_Gbad_array_new_length@std@@UEAAPEAXI@Z 000000018003e630 f i extractSurfCore.obj
 0001:0003d670       ??_Gbase_any_policy@anyimpl@cvflann@@UEAAPEAXI@Z 000000018003e670 f i extractSurfCore.obj
 0001:0003d670       ??_Ebase_any_policy@anyimpl@cvflann@@UEAAPEAXI@Z 000000018003e670 f i extractSurfCore.obj
 0001:0003d6b0       ??_Eexception@std@@UEAAPEAXI@Z 000000018003e6b0 f i extractSurfCore.obj
 0001:0003d6b0       ??_Gexception@std@@UEAAPEAXI@Z 000000018003e6b0 f i extractSurfCore.obj
 0001:0003d6f0       ?_Adjust_manually_vector_aligned@std@@YAXAEAPEAXAEA_K@Z 000000018003e6f0 f i extractSurfCore.obj
 0001:0003d790       ?_Alloc_proxy@_Container_base0@std@@QEAAXAEBU_Fake_allocator@2@@Z 000000018003e790 f i extractSurfCore.obj
 0001:0003d7a0       ?_Allocate@_Default_allocate_traits@std@@SAPEAX_K@Z 000000018003e7a0 f i extractSurfCore.obj
 0001:0003d7c0       ?_Buy_raw@?$vector@VKeyPoint@cv@@V?$allocator@VKeyPoint@cv@@@std@@@std@@AEAAX_K@Z 000000018003e7c0 f i extractSurfCore.obj
 0001:0003d860       ?_Calculate_growth@?$basic_string@DU?$char_traits@D@std@@V?$allocator@D@2@@std@@AEBA_K_K@Z 000000018003e860 f i extractSurfCore.obj
 0001:0003d8a0       ?_Calculate_growth@?$basic_string@DU?$char_traits@D@std@@V?$allocator@D@2@@std@@CA_K_K00@Z 000000018003e8a0 f i extractSurfCore.obj
 0001:0003d940       ?_Calculate_growth@?$vector@VKeyPoint@cv@@V?$allocator@VKeyPoint@cv@@@std@@@std@@AEBA_K_K@Z 000000018003e940 f i extractSurfCore.obj
 0001:0003d9d0       ?_Change_array@?$vector@VKeyPoint@cv@@V?$allocator@VKeyPoint@cv@@@std@@@std@@AEAAXQEAVKeyPoint@cv@@_K1@Z 000000018003e9d0 f i extractSurfCore.obj
 0001:0003dad0       ?_Construct_lv_contents@?$basic_string@DU?$char_traits@D@std@@V?$allocator@D@2@@std@@AEAAXAEBV12@@Z 000000018003ead0 f i extractSurfCore.obj
 0001:0003dc20       ?_Copy_assign@?$basic_string@DU?$char_traits@D@std@@V?$allocator@D@2@@std@@AEAAXAEBV12@U?$integral_constant@_N$0A@@2@@Z 000000018003ec20 f i extractSurfCore.obj
 0001:0003dc90       ?_Decref@?$_Ptr_base@VMWSURF@cv@@@std@@IEAAXXZ 000000018003ec90 f i extractSurfCore.obj
 0001:0003dcc0       ?_Decref@_Ref_count_base@std@@QEAAXXZ 000000018003ecc0 f i extractSurfCore.obj
 0001:0003dd10       ?_Decwref@_Ref_count_base@std@@QEAAXXZ 000000018003ed10 f i extractSurfCore.obj
 0001:0003dd50       ?_Delete_this@?$_Ref_count_obj2@VMWSURF@cv@@@std@@EEAAXXZ 000000018003ed50 f i extractSurfCore.obj
 0001:0003dda0       ?_Destroy@?$_Ref_count_obj2@VMWSURF@cv@@@std@@EEAAXXZ 000000018003eda0 f i extractSurfCore.obj
 0001:0003ddc0       ?_Destroy@?$vector@VKeyPoint@cv@@V?$allocator@VKeyPoint@cv@@@std@@@std@@AEAAXPEAVKeyPoint@cv@@0@Z 000000018003edc0 f i extractSurfCore.obj
 0001:0003de00       ?_Get_deleter@_Ref_count_base@std@@UEBAPEAXAEBVtype_info@@@Z 000000018003ee00 f i extractSurfCore.obj
 0001:0003de10       ?_Get_first@?$_Compressed_pair@V?$allocator@D@std@@V?$_String_val@U?$_Simple_types@D@std@@@2@$00@std@@QEAAAEAV?$allocator@D@2@XZ 000000018003ee10 f i extractSurfCore.obj
 0001:0003de20       ?_Get_first@?$_Compressed_pair@V?$allocator@D@std@@V?$_String_val@U?$_Simple_types@D@std@@@2@$00@std@@QEBAAEBV?$allocator@D@2@XZ 000000018003ee20 f i extractSurfCore.obj
 0001:0003de30       ?_Get_first@?$_Compressed_pair@V?$allocator@VKeyPoint@cv@@@std@@V?$_Vector_val@U?$_Simple_types@VKeyPoint@cv@@@std@@@2@$00@std@@QEAAAEAV?$allocator@VKeyPoint@cv@@@2@XZ 000000018003ee30 f i extractSurfCore.obj
 0001:0003de40       ?_Get_first@?$_Compressed_pair@V?$allocator@VKeyPoint@cv@@@std@@V?$_Vector_val@U?$_Simple_types@VKeyPoint@cv@@@std@@@2@$00@std@@QEBAAEBV?$allocator@VKeyPoint@cv@@@2@XZ 000000018003ee40 f i extractSurfCore.obj
 0001:0003de50       ?_Getal@?$basic_string@DU?$char_traits@D@std@@V?$allocator@D@2@@std@@AEAAAEAV?$allocator@D@2@XZ 000000018003ee50 f i extractSurfCore.obj
 0001:0003de70       ?_Getal@?$basic_string@DU?$char_traits@D@std@@V?$allocator@D@2@@std@@AEBAAEBV?$allocator@D@2@XZ 000000018003ee70 f i extractSurfCore.obj
 0001:0003de90       ?_Getal@?$vector@VKeyPoint@cv@@V?$allocator@VKeyPoint@cv@@@std@@@std@@AEAAAEAV?$allocator@VKeyPoint@cv@@@2@XZ 000000018003ee90 f i extractSurfCore.obj
 0001:0003deb0       ?_Getal@?$vector@VKeyPoint@cv@@V?$allocator@VKeyPoint@cv@@@std@@@std@@AEBAAEBV?$allocator@VKeyPoint@cv@@@2@XZ 000000018003eeb0 f i extractSurfCore.obj
 0001:0003ded0       ?_Large_string_engaged@?$_String_val@U?$_Simple_types@D@std@@@std@@QEBA_NXZ 000000018003eed0 f i extractSurfCore.obj
 0001:0003df00       ?_Maklocwcs@std@@YAPEA_WPEB_W@Z 000000018003ef00 f i extractSurfCore.obj
 0001:0003df60       ?_Myptr@?$_String_val@U?$_Simple_types@D@std@@@std@@QEAAPEADXZ 000000018003ef60 f i extractSurfCore.obj
 0001:0003dfa0       ?_Myptr@?$_String_val@U?$_Simple_types@D@std@@@std@@QEBAPEBDXZ 000000018003efa0 f i extractSurfCore.obj
 0001:0003dfe0       ?_Orphan_all@_Container_base0@std@@QEAAXXZ 000000018003efe0 f i extractSurfCore.obj
 0001:0003dff0       ?_Orphan_range@?$vector@VKeyPoint@cv@@V?$allocator@VKeyPoint@cv@@@std@@@std@@AEBAXPEAVKeyPoint@cv@@0@Z 000000018003eff0 f i extractSurfCore.obj
 0001:0003e000       ?_Release@?$_Uninitialized_backout_al@V?$allocator@VKeyPoint@cv@@@std@@@std@@QEAAPEAVKeyPoint@cv@@XZ 000000018003f000 f i extractSurfCore.obj
 0001:0003e020       ?_Release@_Fake_proxy_ptr_impl@std@@QEAAXXZ 000000018003f020 f i extractSurfCore.obj
 0001:0003e030       ?_Throw_bad_array_new_length@std@@YAXXZ 000000018003f030 f i extractSurfCore.obj
 0001:0003e060       ?_Tidy@?$vector@VKeyPoint@cv@@V?$allocator@VKeyPoint@cv@@@std@@@std@@AEAAXXZ 000000018003f060 f i extractSurfCore.obj
 0001:0003e140       ?_Tidy_deallocate@?$basic_string@DU?$char_traits@D@std@@V?$allocator@D@2@@std@@AEAAXXZ 000000018003f140 f i extractSurfCore.obj
 0001:0003e200       ?_Tidy_init@?$basic_string@DU?$char_traits@D@std@@V?$allocator@D@2@@std@@AEAAXXZ 000000018003f200 f i extractSurfCore.obj
 0001:0003e250       ?_Umove@?$vector@VKeyPoint@cv@@V?$allocator@VKeyPoint@cv@@@std@@@std@@AEAAPEAVKeyPoint@cv@@PEAV34@00@Z 000000018003f250 f i extractSurfCore.obj
 0001:0003e290       ?_Umove_if_noexcept1@?$vector@VKeyPoint@cv@@V?$allocator@VKeyPoint@cv@@@std@@@std@@AEAAXPEAVKeyPoint@cv@@00U?$integral_constant@_N$00@2@@Z 000000018003f290 f i extractSurfCore.obj
 0001:0003e2d0       ?_Umove_if_noexcept@?$vector@VKeyPoint@cv@@V?$allocator@VKeyPoint@cv@@@std@@@std@@AEAAXPEAVKeyPoint@cv@@00@Z 000000018003f2d0 f i extractSurfCore.obj
 0001:0003e330       ?_Xlen_string@std@@YAXXZ   000000018003f330 f i extractSurfCore.obj
 0001:0003e350       ?_Xlength@?$vector@VKeyPoint@cv@@V?$allocator@VKeyPoint@cv@@@std@@@std@@CAXXZ 000000018003f350 f i extractSurfCore.obj
 0001:0003e370       ?allocate@?$allocator@D@std@@QEAAPEAD_K@Z 000000018003f370 f i extractSurfCore.obj
 0001:0003e3a0       ?allocate@?$allocator@VKeyPoint@cv@@@std@@QEAAPEAVKeyPoint@cv@@_K@Z 000000018003f3a0 f i extractSurfCore.obj
 0001:0003e3d0       ?assign@?$_Narrow_char_traits@DH@std@@SAXAEADAEBD@Z 000000018003f3d0 f i extractSurfCore.obj
 0001:0003e3f0       ?assign@?$basic_string@DU?$char_traits@D@std@@V?$allocator@D@2@@std@@QEAAAEAV12@QEBD@Z 000000018003f3f0 f i extractSurfCore.obj
 0001:0003e430       ?assign@?$basic_string@DU?$char_traits@D@std@@V?$allocator@D@2@@std@@QEAAAEAV12@QEBD_K@Z 000000018003f430 f i extractSurfCore.obj
 0001:0003e4f0       ?c_str@?$basic_string@DU?$char_traits@D@std@@V?$allocator@D@2@@std@@QEBAPEBDXZ 000000018003f4f0 f i extractSurfCore.obj
 0001:0003e510       ?capacity@?$vector@VKeyPoint@cv@@V?$allocator@VKeyPoint@cv@@@std@@@std@@QEBA_KXZ 000000018003f510 f i extractSurfCore.obj
 0001:0003e550       ?channels@Mat@cv@@QEBAHXZ  000000018003f550 f i extractSurfCore.obj
 0001:0003e570       ?copy@?$_Char_traits@DH@std@@SAPEADQEADQEBD_K@Z 000000018003f570 f i extractSurfCore.obj
 0001:0003e5b0       ?deallocate@?$allocator@D@std@@QEAAXQEAD_K@Z 000000018003f5b0 f i extractSurfCore.obj
 0001:0003e5e0       ?deallocate@?$allocator@VKeyPoint@cv@@@std@@QEAAXQEAVKeyPoint@cv@@_K@Z 000000018003f5e0 f i extractSurfCore.obj
 0001:0003e610       ?empty@?$Ptr@VMWSURF@cv@@@cv@@QEBA_NXZ 000000018003f610 f i extractSurfCore.obj
 0001:0003e650       ?eof@?$_Narrow_char_traits@DH@std@@SAHXZ 000000018003f650 f i extractSurfCore.obj
 0001:0003e660       ?eq_int_type@?$_Narrow_char_traits@DH@std@@SA_NAEBH0@Z 000000018003f660 f i extractSurfCore.obj
 0001:0003e6a0       ?get@?$_Ptr_base@VMWSURF@cv@@@std@@IEBAPEAVMWSURF@cv@@XZ 000000018003f6a0 f i extractSurfCore.obj
 0001:0003e6b0       ?length@?$_Narrow_char_traits@DH@std@@SA_KQEBD@Z 000000018003f6b0 f i extractSurfCore.obj
 0001:0003e6d0       ?max@?$numeric_limits@_J@std@@SA_JXZ 000000018003f6d0 f i extractSurfCore.obj
 0001:0003e6e0       ?max_size@?$_Default_allocator_traits@V?$allocator@D@std@@@std@@SA_KAEBV?$allocator@D@2@@Z 000000018003f6e0 f i extractSurfCore.obj
 0001:0003e6f0       ?max_size@?$_Default_allocator_traits@V?$allocator@VKeyPoint@cv@@@std@@@std@@SA_KAEBV?$allocator@VKeyPoint@cv@@@2@@Z 000000018003f6f0 f i extractSurfCore.obj
 0001:0003e700       ?max_size@?$basic_string@DU?$char_traits@D@std@@V?$allocator@D@2@@std@@QEBA_KXZ 000000018003f700 f i extractSurfCore.obj
 0001:0003e770       ?max_size@?$vector@VKeyPoint@cv@@V?$allocator@VKeyPoint@cv@@@std@@@std@@QEBA_KXZ 000000018003f770 f i extractSurfCore.obj
 0001:0003e7c0       ?move@?$_Char_traits@DH@std@@SAPEADQEADQEBD_K@Z 000000018003f7c0 f i extractSurfCore.obj
 0001:0003e800       ?push_back@?$vector@VKeyPoint@cv@@V?$allocator@VKeyPoint@cv@@@std@@@std@@QEAAXAEBVKeyPoint@cv@@@Z 000000018003f800 f i extractSurfCore.obj
 0001:0003e830       ?release@Mat@cv@@QEAAXXZ   000000018003f830 f i extractSurfCore.obj
 0001:0003e8f0       ?select_on_container_copy_construction@?$_Default_allocator_traits@V?$allocator@D@std@@@std@@SA?AV?$allocator@D@2@AEBV32@@Z 000000018003f8f0 f i extractSurfCore.obj
 0001:0003e900       ?select_on_container_copy_construction@?$_Default_allocator_traits@V?$allocator@VKeyPoint@cv@@@std@@@std@@SA?AV?$allocator@VKeyPoint@cv@@@2@AEBV32@@Z 000000018003f900 f i extractSurfCore.obj
 0001:0003e910       ?size@?$vector@VKeyPoint@cv@@V?$allocator@VKeyPoint@cv@@@std@@@std@@QEBA_KXZ 000000018003f910 f i extractSurfCore.obj
 0001:0003e950       ?total@Mat@cv@@QEBA_KXZ    000000018003f950 f i extractSurfCore.obj
 0001:0003e9e0       ?what@exception@std@@UEBAPEBDXZ 000000018003f9e0 f i extractSurfCore.obj
 0001:0003ea20       wmemcpy                    000000018003fa20 f i extractSurfCore.obj
 0001:0003ea60       cvRectToBoundingBox        000000018003fa60 f   cgCommon.obj
 0001:0003eb80       cvRectToBoundingBoxRowMajor 000000018003fb80 f   cgCommon.obj
 0001:0003ec80       ??$addressof@$$CBV?$_Vector_val@U?$_Simple_types@V?$Rect_@H@cv@@@std@@@std@@@std@@YAPEBV?$_Vector_val@U?$_Simple_types@V?$Rect_@H@cv@@@std@@@0@AEBV10@@Z 000000018003fc80 f i cgCommon.obj
 0001:0003ec90       ??0?$_Vector_const_iterator@V?$_Vector_val@U?$_Simple_types@V?$Rect_@H@cv@@@std@@@std@@@std@@QEAA@PEAV?$Rect_@H@cv@@PEBU_Container_base0@1@@Z 000000018003fc90 f i cgCommon.obj
 0001:0003ecd0       ??8?$_Vector_const_iterator@V?$_Vector_val@U?$_Simple_types@V?$Rect_@H@cv@@@std@@@std@@@std@@QEBA_NAEBV01@@Z 000000018003fcd0 f i cgCommon.obj
 0001:0003ed20       ??9?$_Vector_const_iterator@V?$_Vector_val@U?$_Simple_types@V?$Rect_@H@cv@@@std@@@std@@@std@@QEBA_NAEBV01@@Z 000000018003fd20 f i cgCommon.obj
 0001:0003ed60       ??C?$_Vector_const_iterator@V?$_Vector_val@U?$_Simple_types@V?$Rect_@H@cv@@@std@@@std@@@std@@QEBAPEBV?$Rect_@H@cv@@XZ 000000018003fd60 f i cgCommon.obj
 0001:0003ed70       ??E?$_Vector_const_iterator@V?$_Vector_val@U?$_Simple_types@V?$Rect_@H@cv@@@std@@@std@@@std@@QEAAAEAV01@XZ 000000018003fd70 f i cgCommon.obj
 0001:0003ed90       ?_Adopt@_Iterator_base0@std@@QEAAXPEBX@Z 000000018003fd90 f i cgCommon.obj
 0001:0003eda0       ?_Compat@?$_Vector_const_iterator@V?$_Vector_val@U?$_Simple_types@V?$Rect_@H@cv@@@std@@@std@@@std@@QEBAXAEBV12@@Z 000000018003fda0 f i cgCommon.obj
 0001:0003edb0       ?begin@?$vector@V?$Rect_@H@cv@@V?$allocator@V?$Rect_@H@cv@@@std@@@std@@QEBA?AV?$_Vector_const_iterator@V?$_Vector_val@U?$_Simple_types@V?$Rect_@H@cv@@@std@@@std@@@2@XZ 000000018003fdb0 f i cgCommon.obj
 0001:0003ee00       ?end@?$vector@V?$Rect_@H@cv@@V?$allocator@V?$Rect_@H@cv@@@std@@@std@@QEBA?AV?$_Vector_const_iterator@V?$_Vector_val@U?$_Simple_types@V?$Rect_@H@cv@@@std@@@std@@@2@XZ 000000018003fe00 f i cgCommon.obj
 0001:0003ee50       ?size@?$vector@V?$Rect_@H@cv@@V?$allocator@V?$Rect_@H@cv@@@std@@@std@@QEBA_KXZ 000000018003fe50 f i cgCommon.obj
 0001:0003f040       ??0MWSURF@cv@@QEAA@XZ      0000000180040040 f   mwsurf.obj
 0001:0003f140       ??0MWSURF@cv@@QEAA@NHH_N0@Z 0000000180040140 f   mwsurf.obj
 0001:0003f250       ?descriptorSize@MWSURF@cv@@UEBAHXZ 0000000180040250 f   mwsurf.obj
 0001:0003f290       ?descriptorType@MWSURF@cv@@UEBAHXZ 0000000180040290 f   mwsurf.obj
 0001:0003f2b0       ?setUpright@MWSURF@cv@@QEAAX_N@Z 00000001800402b0 f   mwsurf.obj
 0001:0003f2d0       ?setExtended@MWSURF@cv@@QEAAX_N@Z 00000001800402d0 f   mwsurf.obj
 0001:0003f2f0       ?setThreshold@MWSURF@cv@@QEAAXN@Z 00000001800402f0 f   mwsurf.obj
 0001:0003f320       ?setNOctaves@MWSURF@cv@@QEAAXH@Z 0000000180040320 f   mwsurf.obj
 0001:0003f340       ?setNOctaveLayers@MWSURF@cv@@QEAAXH@Z 0000000180040340 f   mwsurf.obj
 0001:0003f360       ??RMWSURF@cv@@QEBAXAEBV_InputArray@1@0AEAV?$vector@VKeyPoint@cv@@V?$allocator@VKeyPoint@cv@@@std@@@std@@@Z 0000000180040360 f   mwsurf.obj
 0001:0003f3b0       ??RMWSURF@cv@@QEBAXAEBV_InputArray@1@0AEAV?$vector@VKeyPoint@cv@@V?$allocator@VKeyPoint@cv@@@std@@@std@@AEBV_OutputArray@1@_N@Z 00000001800403b0 f   mwsurf.obj
 0001:0003fe80       ?detect@MWSURF@cv@@QEBAXAEBVMat@2@AEAV?$vector@VKeyPoint@cv@@V?$allocator@VKeyPoint@cv@@@std@@@std@@0@Z 0000000180040e80 f   mwsurf.obj
 0001:0003fec0       ?compute@MWSURF@cv@@QEBAXAEBVMat@2@AEAV?$vector@VKeyPoint@cv@@V?$allocator@VKeyPoint@cv@@@std@@@std@@AEAV32@@Z 0000000180040ec0 f   mwsurf.obj
 0001:0003ff00       ?detectImpl@MWSURF@cv@@IEBAXAEBVMat@2@AEAV?$vector@VKeyPoint@cv@@V?$allocator@VKeyPoint@cv@@@std@@@std@@0@Z 0000000180040f00 f   mwsurf.obj
 0001:0003ff90       ?computeImpl@MWSURF@cv@@IEBAXAEBVMat@2@AEAV?$vector@VKeyPoint@cv@@V?$allocator@VKeyPoint@cv@@@std@@@std@@AEAV32@@Z 0000000180040f90 f   mwsurf.obj
 0001:000411b0       ?findMaximaInLayer@MWSURFFindInvoker@cv@@SAXAEBVMat@2@0AEBV?$vector@VMat@cv@@V?$allocator@VMat@cv@@@std@@@std@@1AEBV?$vector@HV?$allocator@H@std@@@5@AEAV?$vector@VKeyPoint@cv@@V?$allocator@VKeyPoint@cv@@@std@@@5@HHMH@Z 00000001800421b0 f   mwsurf.obj
 0001:00042450       ??$?0$$V@?$_Compressed_pair@V?$allocator@M@std@@V?$_Vector_val@U?$_Simple_types@M@std@@@2@$00@std@@QEAA@U_Zero_then_variadic_args_t@1@@Z 0000000180043450 f i mwsurf.obj
 0001:00042480       ??$?0$$V@?$_Compressed_pair@V?$allocator@V?$Point_@H@cv@@@std@@V?$_Vector_val@U?$_Simple_types@V?$Point_@H@cv@@@std@@@2@$00@std@@QEAA@U_Zero_then_variadic_args_t@1@@Z 0000000180043480 f i mwsurf.obj
 0001:000424b0       ??$?0AEAPEAVKeyPoint@cv@@AEAPEAV01@$0A@@?$pair@PEAVKeyPoint@cv@@PEAV12@@std@@QEAA@AEAPEAVKeyPoint@cv@@0@Z 00000001800434b0 f i mwsurf.obj
 0001:00042500       ??$?0AEBV?$allocator@H@std@@$$V@?$_Compressed_pair@V?$allocator@H@std@@V?$_Vector_val@U?$_Simple_types@H@std@@@2@$00@std@@QEAA@U_One_then_variadic_args_t@1@AEBV?$allocator@H@1@@Z 0000000180043500 f i mwsurf.obj
 0001:00042540       ??$?0AEBV?$allocator@VMat@cv@@@std@@$$V@?$_Compressed_pair@V?$allocator@VMat@cv@@@std@@V?$_Vector_val@U?$_Simple_types@VMat@cv@@@std@@@2@$00@std@@QEAA@U_One_then_variadic_args_t@1@AEBV?$allocator@VMat@cv@@@1@@Z 0000000180043540 f i mwsurf.obj
 0001:00042580       ??$?0U?$DefaultDeleter@UCvMat@@@cv@@AEAPEAUCvMat@@@?$_Compressed_pair@U?$DefaultDeleter@UCvMat@@@cv@@PEAUCvMat@@$00@std@@QEAA@U_One_then_variadic_args_t@1@$$QEAU?$DefaultDeleter@UCvMat@@@cv@@AEAPEAUCvMat@@@Z 0000000180043580 f i mwsurf.obj
 0001:000425c0       ??$?0UCvMat@@@?$Ptr@UCvMat@@@cv@@QEAA@AEBU?$integral_constant@_N$00@std@@PEAUCvMat@@@Z 00000001800435c0 f i mwsurf.obj
 0001:00042600       ??$?0UCvMat@@@?$Ptr@UCvMat@@@cv@@QEAA@PEAUCvMat@@@Z 0000000180043600 f i mwsurf.obj
 0001:00042630       ??$?0UCvMat@@U?$DefaultDeleter@UCvMat@@@cv@@$0A@@?$shared_ptr@UCvMat@@@std@@QEAA@PEAUCvMat@@U?$DefaultDeleter@UCvMat@@@cv@@@Z 0000000180043630 f i mwsurf.obj
 0001:00042680       ??$?BH@CvPoint@@QEBA?AV?$Point_@H@cv@@XZ 0000000180043680 f i mwsurf.obj
 0001:000426d0       ??$_Adl_verify_range@V?$_Vector_iterator@V?$_Vector_val@U?$_Simple_types@VKeyPoint@cv@@@std@@@std@@@std@@V12@@std@@YAXAEBV?$_Vector_iterator@V?$_Vector_val@U?$_Simple_types@VKeyPoint@cv@@@std@@@std@@@0@0@Z 00000001800436d0 f i mwsurf.obj
 0001:000426e0       ??$_Construct_n_copies_of_ty@U_Value_init_tag@std@@@?$vector@HV?$allocator@H@std@@@std@@AEAAX_KAEBU_Value_init_tag@1@@Z 00000001800436e0 f i mwsurf.obj
 0001:00042790       ??$_Construct_n_copies_of_ty@U_Value_init_tag@std@@@?$vector@VMat@cv@@V?$allocator@VMat@cv@@@std@@@std@@AEAAX_KAEBU_Value_init_tag@1@@Z 0000000180043790 f i mwsurf.obj
 0001:00042840       ??$_Copy_memmove@PEAMPEAM@std@@YAPEAMPEAM00@Z 0000000180043840 f i mwsurf.obj
 0001:000428b0       ??$_Destroy_range@V?$allocator@H@std@@@std@@YAXPEAHQEAHAEAV?$allocator@H@0@@Z 00000001800438b0 f i mwsurf.obj
 0001:000428c0       ??$_Destroy_range@V?$allocator@M@std@@@std@@YAXPEAMQEAMAEAV?$allocator@M@0@@Z 00000001800438c0 f i mwsurf.obj
 0001:000428d0       ??$_Destroy_range@V?$allocator@V?$Point_@H@cv@@@std@@@std@@YAXPEAV?$Point_@H@cv@@QEAV12@AEAV?$allocator@V?$Point_@H@cv@@@0@@Z 00000001800438d0 f i mwsurf.obj
 0001:000428e0       ??$_Destroy_range@V?$allocator@VMat@cv@@@std@@@std@@YAXPEAVMat@cv@@QEAV12@AEAV?$allocator@VMat@cv@@@0@@Z 00000001800438e0 f i mwsurf.obj
 0001:00042930       ??$_Emplace_back@$$V@?$_Uninitialized_backout_al@V?$allocator@V?$Point_@H@cv@@@std@@@std@@QEAAXXZ 0000000180043930 f i mwsurf.obj
 0001:00042980       ??$_Emplace_back@$$V@?$_Uninitialized_backout_al@V?$allocator@VKeyPoint@cv@@@std@@@std@@QEAAXXZ 0000000180043980 f i mwsurf.obj
 0001:000429d0       ??$_Emplace_back@$$V@?$_Uninitialized_backout_al@V?$allocator@VMat@cv@@@std@@@std@@QEAAXXZ 00000001800439d0 f i mwsurf.obj
 0001:00042a20       ??$_Emplace_back@V?$Point_@H@cv@@@?$_Uninitialized_backout_al@V?$allocator@V?$Point_@H@cv@@@std@@@std@@QEAAX$$QEAV?$Point_@H@cv@@@Z 0000000180043a20 f i mwsurf.obj
 0001:00042a80       ??$_Get_size_of_n@$03@std@@YA_K_K@Z 0000000180043a80 f i mwsurf.obj
 0001:00042ad0       ??$_Get_size_of_n@$07@std@@YA_K_K@Z 0000000180043ad0 f i mwsurf.obj
 0001:00042b20       ??$_Get_size_of_n@$0GA@@std@@YA_K_K@Z 0000000180043b20 f i mwsurf.obj
 0001:00042b60       ??$_Get_unwrapped@AEBQEAM@std@@YAPEAMAEBQEAM@Z 0000000180043b60 f i mwsurf.obj
 0001:00042b70       ??$_Get_unwrapped@AEBQEAV?$Point_@H@cv@@@std@@YAPEAV?$Point_@H@cv@@AEBQEAV12@@Z 0000000180043b70 f i mwsurf.obj
 0001:00042b80       ??$_Get_unwrapped@AEBV?$_Vector_iterator@V?$_Vector_val@U?$_Simple_types@VKeyPoint@cv@@@std@@@std@@@std@@@std@@YAPEAVKeyPoint@cv@@AEBV?$_Vector_iterator@V?$_Vector_val@U?$_Simple_types@VKeyPoint@cv@@@std@@@std@@@0@@Z 0000000180043b80 f i mwsurf.obj
 0001:00042ba0       ??$_Guess_median_unchecked@PEAVKeyPoint@cv@@UKeypointGreater@2@@std@@YAXPEAVKeyPoint@cv@@00UKeypointGreater@2@@Z 0000000180043ba0 f i mwsurf.obj
 0001:00042d00       ??$_Insertion_sort_unchecked@PEAVKeyPoint@cv@@UKeypointGreater@2@@std@@YAPEAVKeyPoint@cv@@QEAV12@0UKeypointGreater@2@@Z 0000000180043d00 f i mwsurf.obj
 0001:00042e50       ??$_Make_heap_unchecked@PEAVKeyPoint@cv@@UKeypointGreater@2@@std@@YAXPEAVKeyPoint@cv@@0UKeypointGreater@2@@Z 0000000180043e50 f i mwsurf.obj
 0001:00042f00       ??$_Med3_unchecked@PEAVKeyPoint@cv@@UKeypointGreater@2@@std@@YAXPEAVKeyPoint@cv@@00UKeypointGreater@2@@Z 0000000180043f00 f i mwsurf.obj
 0001:00042fa0       ??$_Move_backward_unchecked@PEAVKeyPoint@cv@@PEAV12@@std@@YAPEAVKeyPoint@cv@@PEAV12@00@Z 0000000180043fa0 f i mwsurf.obj
 0001:00043000       ??$_Next_iter@PEAVKeyPoint@cv@@@std@@YAPEAVKeyPoint@cv@@PEAV12@@Z 0000000180044000 f i mwsurf.obj
 0001:00043020       ??$_Partition_by_median_guess_unchecked@PEAVKeyPoint@cv@@UKeypointGreater@2@@std@@YA?AU?$pair@PEAVKeyPoint@cv@@PEAV12@@0@PEAVKeyPoint@cv@@0UKeypointGreater@3@@Z 0000000180044020 f i mwsurf.obj
 0001:000433e0       ??$_Pass_fn@UKeypointGreater@cv@@$0A@@std@@YA?AUKeypointGreater@cv@@U12@@Z 00000001800443e0 f i mwsurf.obj
 0001:000433f0       ??$_Pop_heap_hole_by_index@PEAVKeyPoint@cv@@V12@UKeypointGreater@2@@std@@YAXPEAVKeyPoint@cv@@_J1$$QEAV12@UKeypointGreater@2@@Z 00000001800443f0 f i mwsurf.obj
 0001:00043580       ??$_Pop_heap_hole_unchecked@PEAVKeyPoint@cv@@V12@UKeypointGreater@2@@std@@YAXPEAVKeyPoint@cv@@00$$QEAV12@UKeypointGreater@2@@Z 0000000180044580 f i mwsurf.obj
 0001:00043600       ??$_Pop_heap_unchecked@PEAVKeyPoint@cv@@UKeypointGreater@2@@std@@YAXPEAVKeyPoint@cv@@0UKeypointGreater@2@@Z 0000000180044600 f i mwsurf.obj
 0001:00043690       ??$_Prev_iter@PEAVKeyPoint@cv@@@std@@YAPEAVKeyPoint@cv@@PEAV12@@Z 0000000180044690 f i mwsurf.obj
 0001:000436b0       ??$_Push_heap_by_index@PEAVKeyPoint@cv@@V12@UKeypointGreater@2@@std@@YAXPEAVKeyPoint@cv@@_J1$$QEAV12@UKeypointGreater@2@@Z 00000001800446b0 f i mwsurf.obj
 0001:00043790       ??$_Resize@U_Value_init_tag@std@@@?$vector@MV?$allocator@M@std@@@std@@AEAAX_KAEBU_Value_init_tag@1@@Z 0000000180044790 f i mwsurf.obj
 0001:00043900       ??$_Resize@U_Value_init_tag@std@@@?$vector@V?$Point_@H@cv@@V?$allocator@V?$Point_@H@cv@@@std@@@std@@AEAAX_KAEBU_Value_init_tag@1@@Z 0000000180044900 f i mwsurf.obj
 0001:00043a70       ??$_Resize@U_Value_init_tag@std@@@?$vector@VKeyPoint@cv@@V?$allocator@VKeyPoint@cv@@@std@@@std@@AEAAX_KAEBU_Value_init_tag@1@@Z 0000000180044a70 f i mwsurf.obj
 0001:00043be0       ??$_Resize_reallocate@U_Value_init_tag@std@@@?$vector@MV?$allocator@M@std@@@std@@AEAAX_KAEBU_Value_init_tag@1@@Z 0000000180044be0 f i mwsurf.obj
 0001:00043d40       ??$_Resize_reallocate@U_Value_init_tag@std@@@?$vector@V?$Point_@H@cv@@V?$allocator@V?$Point_@H@cv@@@std@@@std@@AEAAX_KAEBU_Value_init_tag@1@@Z 0000000180044d40 f i mwsurf.obj
 0001:00043ea0       ??$_Resize_reallocate@U_Value_init_tag@std@@@?$vector@VKeyPoint@cv@@V?$allocator@VKeyPoint@cv@@@std@@@std@@AEAAX_KAEBU_Value_init_tag@1@@Z 0000000180044ea0 f i mwsurf.obj
 0001:00044000       ??$_Set_ptr_rep_and_enable_shared@UCvMat@@@?$shared_ptr@UCvMat@@@std@@AEAAXQEAUCvMat@@QEAV_Ref_count_base@1@@Z 0000000180045000 f i mwsurf.obj
 0001:00044030       ??$_Setpd@PEAUCvMat@@U?$DefaultDeleter@UCvMat@@@cv@@@?$shared_ptr@UCvMat@@@std@@AEAAXQEAUCvMat@@U?$DefaultDeleter@UCvMat@@@cv@@@Z 0000000180045030 f i mwsurf.obj
 0001:000440d0       ??$_Sort_heap_unchecked@PEAVKeyPoint@cv@@UKeypointGreater@2@@std@@YAXPEAVKeyPoint@cv@@0UKeypointGreater@2@@Z 00000001800450d0 f i mwsurf.obj
 0001:00044130       ??$_Sort_unchecked@PEAVKeyPoint@cv@@UKeypointGreater@2@@std@@YAXPEAVKeyPoint@cv@@0_JUKeypointGreater@2@@Z 0000000180045130 f i mwsurf.obj
 0001:00044290       ??$_Unfancy@H@std@@YAPEAHPEAH@Z 0000000180045290 f i mwsurf.obj
 0001:000442a0       ??$_Unfancy@M@std@@YAPEAMPEAM@Z 00000001800452a0 f i mwsurf.obj
 0001:000442b0       ??$_Unfancy@V?$Point_@H@cv@@@std@@YAPEAV?$Point_@H@cv@@PEAV12@@Z 00000001800452b0 f i mwsurf.obj
 0001:000442c0       ??$_Unfancy@VMat@cv@@@std@@YAPEAVMat@cv@@PEAV12@@Z 00000001800452c0 f i mwsurf.obj
 0001:000442d0       ??$_Uninitialized_move@PEAMV?$allocator@M@std@@@std@@YAPEAMQEAM0PEAMAEAV?$allocator@M@0@@Z 00000001800452d0 f i mwsurf.obj
 0001:00044350       ??$_Uninitialized_move@PEAV?$Point_@H@cv@@V?$allocator@V?$Point_@H@cv@@@std@@@std@@YAPEAV?$Point_@H@cv@@QEAV12@0PEAV12@AEAV?$allocator@V?$Point_@H@cv@@@0@@Z 0000000180045350 f i mwsurf.obj
 0001:00044400       ??$_Uninitialized_value_construct_n@V?$allocator@H@std@@@std@@YAPEAHPEAH_KAEAV?$allocator@H@0@@Z 0000000180045400 f i mwsurf.obj
 0001:00044450       ??$_Uninitialized_value_construct_n@V?$allocator@M@std@@@std@@YAPEAMPEAM_KAEAV?$allocator@M@0@@Z 0000000180045450 f i mwsurf.obj
 0001:000444a0       ??$_Uninitialized_value_construct_n@V?$allocator@V?$Point_@H@cv@@@std@@@std@@YAPEAV?$Point_@H@cv@@PEAV12@_KAEAV?$allocator@V?$Point_@H@cv@@@0@@Z 00000001800454a0 f i mwsurf.obj
 0001:00044510       ??$_Uninitialized_value_construct_n@V?$allocator@VKeyPoint@cv@@@std@@@std@@YAPEAVKeyPoint@cv@@PEAV12@_KAEAV?$allocator@VKeyPoint@cv@@@0@@Z 0000000180045510 f i mwsurf.obj
 0001:00044580       ??$_Uninitialized_value_construct_n@V?$allocator@VMat@cv@@@std@@@std@@YAPEAVMat@cv@@PEAV12@_KAEAV?$allocator@VMat@cv@@@0@@Z 0000000180045580 f i mwsurf.obj
 0001:000445f0       ??$_Zero_range@PEAH@std@@YAPEAHQEAH0@Z 00000001800455f0 f i mwsurf.obj
 0001:00044640       ??$_Zero_range@PEAM@std@@YAPEAMQEAM0@Z 0000000180045640 f i mwsurf.obj
 0001:00044690       ??$addressof@$$CBU?$DefaultDeleter@UCvMat@@@cv@@@std@@YAPEBU?$DefaultDeleter@UCvMat@@@cv@@AEBU12@@Z 0000000180045690 f i mwsurf.obj
 0001:000446a0       ??$addressof@V?$_Vector_val@U?$_Simple_types@VKeyPoint@cv@@@std@@@std@@@std@@YAPEAV?$_Vector_val@U?$_Simple_types@VKeyPoint@cv@@@std@@@0@AEAV10@@Z 00000001800456a0 f i mwsurf.obj
 0001:000446b0       ??$at@E@Mat@cv@@QEBAAEBEHH@Z 00000001800456b0 f i mwsurf.obj
 0001:00044700       ??$at@H@Mat@cv@@QEBAAEBHHH@Z 0000000180045700 f i mwsurf.obj
 0001:00044750       ??$at@M@Mat@cv@@QEAAAEAMHH@Z 0000000180045750 f i mwsurf.obj
 0001:000447a0       ??$at@M@Mat@cv@@QEBAAEBMHH@Z 00000001800457a0 f i mwsurf.obj
 0001:000447f0       ??$construct@V?$Point_@H@cv@@$$V@?$_Default_allocator_traits@V?$allocator@V?$Point_@H@cv@@@std@@@std@@SAXAEAV?$allocator@V?$Point_@H@cv@@@1@QEAV?$Point_@H@cv@@@Z 00000001800457f0 f i mwsurf.obj
 0001:00044830       ??$construct@V?$Point_@H@cv@@V12@@?$_Default_allocator_traits@V?$allocator@V?$Point_@H@cv@@@std@@@std@@SAXAEAV?$allocator@V?$Point_@H@cv@@@1@QEAV?$Point_@H@cv@@$$QEAV34@@Z 0000000180045830 f i mwsurf.obj
 0001:00044880       ??$construct@VKeyPoint@cv@@$$V@?$_Default_allocator_traits@V?$allocator@VKeyPoint@cv@@@std@@@std@@SAXAEAV?$allocator@VKeyPoint@cv@@@1@QEAVKeyPoint@cv@@@Z 0000000180045880 f i mwsurf.obj
 0001:000448c0       ??$construct@VMat@cv@@$$V@?$_Default_allocator_traits@V?$allocator@VMat@cv@@@std@@@std@@SAXAEAV?$allocator@VMat@cv@@@1@QEAVMat@cv@@@Z 00000001800458c0 f i mwsurf.obj
 0001:00044900       ??$destroy@VMat@cv@@@?$_Default_allocator_traits@V?$allocator@VMat@cv@@@std@@@std@@SAXAEAV?$allocator@VMat@cv@@@1@QEAVMat@cv@@@Z 0000000180045900 f i mwsurf.obj
 0001:00044920       ??$forward@AEAPEAUCvMat@@@std@@YAAEAPEAUCvMat@@AEAPEAU1@@Z 0000000180045920 f i mwsurf.obj
 0001:00044930       ??$forward@AEAPEAVKeyPoint@cv@@@std@@YAAEAPEAVKeyPoint@cv@@AEAPEAV12@@Z 0000000180045930 f i mwsurf.obj
 0001:00044940       ??$forward@AEBV?$allocator@H@std@@@std@@YAAEBV?$allocator@H@0@AEBV10@@Z 0000000180045940 f i mwsurf.obj
 0001:00044950       ??$forward@AEBV?$allocator@VMat@cv@@@std@@@std@@YAAEBV?$allocator@VMat@cv@@@0@AEBV10@@Z 0000000180045950 f i mwsurf.obj
 0001:00044960       ??$forward@U?$DefaultDeleter@UCvMat@@@cv@@@std@@YA$$QEAU?$DefaultDeleter@UCvMat@@@cv@@AEAU12@@Z 0000000180045960 f i mwsurf.obj
 0001:00044970       ??$forward@V?$Point_@H@cv@@@std@@YA$$QEAV?$Point_@H@cv@@AEAV12@@Z 0000000180045970 f i mwsurf.obj
 0001:00044980       ??$iter_swap@PEAVKeyPoint@cv@@PEAV12@@std@@YAXPEAVKeyPoint@cv@@0@Z 0000000180045980 f i mwsurf.obj
 0001:000449b0       ??$max@H@std@@YAAEBHAEBH0@Z 00000001800459b0 f i mwsurf.obj
 0001:00044a00       ??$max@M@std@@YAAEBMAEBM0@Z 0000000180045a00 f i mwsurf.obj
 0001:00044a50       ??$min@H@std@@YAAEBHAEBH0@Z 0000000180045a50 f i mwsurf.obj
 0001:00044aa0       ??$move@AEAH@std@@YA$$QEAHAEAH@Z 0000000180045aa0 f i mwsurf.obj
 0001:00044ab0       ??$move@AEAU?$DefaultDeleter@UCvMat@@@cv@@@std@@YA$$QEAU?$DefaultDeleter@UCvMat@@@cv@@AEAU12@@Z 0000000180045ab0 f i mwsurf.obj
 0001:00044ac0       ??$move@AEAV?$Point_@H@cv@@@std@@YA$$QEAV?$Point_@H@cv@@AEAV12@@Z 0000000180045ac0 f i mwsurf.obj
 0001:00044ad0       ??$ptr@H@Mat@cv@@QEBAPEBHH@Z 0000000180045ad0 f i mwsurf.obj
 0001:00044b10       ??$ptr@M@Mat@cv@@QEAAPEAMH@Z 0000000180045b10 f i mwsurf.obj
 0001:00044b50       ??$ptr@M@Mat@cv@@QEBAPEBMH@Z 0000000180045b50 f i mwsurf.obj
 0001:00044b90       ??$solve@$00@?$Matx@M$02$02@cv@@QEBA?AV?$Matx@M$02$00@1@AEBV21@H@Z 0000000180045b90 f i mwsurf.obj
 0001:00044c70       ??$sort@V?$_Vector_iterator@V?$_Vector_val@U?$_Simple_types@VKeyPoint@cv@@@std@@@std@@@std@@UKeypointGreater@cv@@@std@@YAXV?$_Vector_iterator@V?$_Vector_val@U?$_Simple_types@VKeyPoint@cv@@@std@@@std@@@0@0UKeypointGreater@cv@@@Z 0000000180045c70 f i mwsurf.obj
 0001:00044d00       ??$swap@VKeyPoint@cv@@$0A@@std@@YAXAEAVKeyPoint@cv@@0@Z 0000000180045d00 f i mwsurf.obj
 0001:00044d60       ??0?$Matx@M$02$00@cv@@QEAA@MMM@Z 0000000180045d60 f i mwsurf.obj
 0001:00044e00       ??0?$Matx@M$02$00@cv@@QEAA@PEBM@Z 0000000180045e00 f i mwsurf.obj
 0001:00044e50       ??0?$Matx@M$02$00@cv@@QEAA@XZ 0000000180045e50 f i mwsurf.obj
 0001:00044e90       ??0?$Matx@M$02$02@cv@@QEAA@MMMMMMMMM@Z 0000000180045e90 f i mwsurf.obj
 0001:00044fc0       ??0?$Point_@H@cv@@QEAA@$$QEAV01@@Z 0000000180045fc0 f i mwsurf.obj
 0001:00045010       ??0?$Point_@H@cv@@QEAA@HH@Z 0000000180046010 f i mwsurf.obj
 0001:00045040       ??0?$Point_@H@cv@@QEAA@XZ  0000000180046040 f i mwsurf.obj
 0001:00045070       ??0?$Size_@H@cv@@QEAA@XZ   0000000180046070 f i mwsurf.obj
 0001:000450a0       ??0?$Vec@M$02@cv@@QEAA@AEBV01@@Z 00000001800460a0 f i mwsurf.obj
 0001:000450d0       ??0?$Vec@M$02@cv@@QEAA@MMM@Z 00000001800460d0 f i mwsurf.obj
 0001:00045120       ??0?$_Ptr_base@UCvMat@@@std@@IEAA@XZ 0000000180046120 f i mwsurf.obj
 0001:00045150       ??0?$_Ref_count_resource@PEAUCvMat@@U?$DefaultDeleter@UCvMat@@@cv@@@std@@QEAA@PEAUCvMat@@U?$DefaultDeleter@UCvMat@@@cv@@@Z 0000000180046150 f i mwsurf.obj
 0001:000451c0       ??0?$_Temporary_owner_del@PEAUCvMat@@U?$DefaultDeleter@UCvMat@@@cv@@@std@@QEAA@QEAUCvMat@@AEAU?$DefaultDeleter@UCvMat@@@cv@@@Z 00000001800461c0 f i mwsurf.obj
 0001:00045200       ??0?$_Uninitialized_backout_al@V?$allocator@V?$Point_@H@cv@@@std@@@std@@QEAA@PEAV?$Point_@H@cv@@AEAV?$allocator@V?$Point_@H@cv@@@1@@Z 0000000180046200 f i mwsurf.obj
 0001:00045240       ??0?$_Uninitialized_backout_al@V?$allocator@VMat@cv@@@std@@@std@@QEAA@PEAVMat@cv@@AEAV?$allocator@VMat@cv@@@1@@Z 0000000180046240 f i mwsurf.obj
 0001:00045280       ??0?$_Vector_const_iterator@V?$_Vector_val@U?$_Simple_types@VKeyPoint@cv@@@std@@@std@@@std@@QEAA@PEAVKeyPoint@cv@@PEBU_Container_base0@1@@Z 0000000180046280 f i mwsurf.obj
 0001:000452c0       ??0?$_Vector_iterator@V?$_Vector_val@U?$_Simple_types@VKeyPoint@cv@@@std@@@std@@@std@@QEAA@PEAVKeyPoint@cv@@PEBU_Container_base0@1@@Z 00000001800462c0 f i mwsurf.obj
 0001:00045300       ??0?$_Vector_val@U?$_Simple_types@H@std@@@std@@QEAA@XZ 0000000180046300 f i mwsurf.obj
 0001:00045340       ??0?$_Vector_val@U?$_Simple_types@M@std@@@std@@QEAA@XZ 0000000180046340 f i mwsurf.obj
 0001:00045380       ??0?$_Vector_val@U?$_Simple_types@V?$Point_@H@cv@@@std@@@std@@QEAA@XZ 0000000180046380 f i mwsurf.obj
 0001:000453c0       ??0?$_Vector_val@U?$_Simple_types@VMat@cv@@@std@@@std@@QEAA@XZ 00000001800463c0 f i mwsurf.obj
 0001:00045400       ??0?$allocator@H@std@@QEAA@XZ 0000000180046400 f i mwsurf.obj
 0001:00045410       ??0?$allocator@M@std@@QEAA@XZ 0000000180046410 f i mwsurf.obj
 0001:00045420       ??0?$allocator@V?$Point_@H@cv@@@std@@QEAA@XZ 0000000180046420 f i mwsurf.obj
 0001:00045430       ??0?$allocator@VMat@cv@@@std@@QEAA@XZ 0000000180046430 f i mwsurf.obj
 0001:00045440       ??0?$lock_guard@Vrecursive_mutex@std@@@std@@QEAA@AEAVrecursive_mutex@1@@Z 0000000180046440 f i mwsurf.obj
 0001:00045480       ??0?$vector@HV?$allocator@H@std@@@std@@QEAA@_KAEBV?$allocator@H@1@@Z 0000000180046480 f i mwsurf.obj
 0001:000454d0       ??0?$vector@MV?$allocator@M@std@@@std@@QEAA@XZ 00000001800464d0 f i mwsurf.obj
 0001:00045510       ??0?$vector@V?$Point_@H@cv@@V?$allocator@V?$Point_@H@cv@@@std@@@std@@QEAA@XZ 0000000180046510 f i mwsurf.obj
 0001:00045550       ??0?$vector@VMat@cv@@V?$allocator@VMat@cv@@@std@@@std@@QEAA@_KAEBV?$allocator@VMat@cv@@@1@@Z 0000000180046550 f i mwsurf.obj
 0001:000455a0       ??0Feature2D@cv@@QEAA@XZ   00000001800465a0 f i mwsurf.obj
 0001:00045640       ??0KeyPoint@cv@@QEAA@XZ    0000000180046640 f i mwsurf.obj
 0001:000456b0       ??0MWSURFBuildInvoker@cv@@QEAA@AEBVMat@1@AEBV?$vector@HV?$allocator@H@std@@@std@@1AEAV?$vector@VMat@cv@@V?$allocator@VMat@cv@@@std@@@4@2@Z 00000001800466b0 f i mwsurf.obj
 0001:00045740       ??0MWSURFFindInvoker@cv@@QEAA@AEBVMat@1@0AEBV?$vector@VMat@cv@@V?$allocator@VMat@cv@@@std@@@std@@1AEBV?$vector@HV?$allocator@H@std@@@4@22AEAV?$vector@VKeyPoint@cv@@V?$allocator@VKeyPoint@cv@@@std@@@4@HM@Z 0000000180046740 f i mwsurf.obj
 0001:00045810       ??0MWSURFInvoker@cv@@QEAA@AEBVMat@1@0AEAV?$vector@VKeyPoint@cv@@V?$allocator@VKeyPoint@cv@@@std@@@std@@AEAV21@_N3@Z 0000000180046810 f i mwsurf.obj
 0001:00045c60       ??0MWSurfHF@cv@@QEAA@XZ    0000000180046c60 f i mwsurf.obj
 0001:00045cb0       ??0ParallelLoopBody@cv@@QEAA@XZ 0000000180046cb0 f i mwsurf.obj
 0001:00045cd0       ??0Range@cv@@QEAA@HH@Z     0000000180046cd0 f i mwsurf.obj
 0001:00045d00       ??0_InputArray@cv@@QEAA@AEBN@Z 0000000180046d00 f i mwsurf.obj
 0001:00045d60       ??0_InputArray@cv@@QEAA@AEBVMat@1@@Z 0000000180046d60 f i mwsurf.obj
 0001:00045da0       ??0_InputArray@cv@@QEAA@XZ 0000000180046da0 f i mwsurf.obj
 0001:00045de0       ??0_Mutex_base@std@@QEAA@H@Z 0000000180046de0 f i mwsurf.obj
 0001:00045e20       ??0_OutputArray@cv@@QEAA@AEAVMat@1@@Z 0000000180046e20 f i mwsurf.obj
 0001:00045e60       ??0recursive_mutex@std@@QEAA@XZ 0000000180046e60 f i mwsurf.obj
 0001:00045e90       ??1?$Ptr@UCvMat@@@cv@@QEAA@XZ 0000000180046e90 f i mwsurf.obj
 0001:00045eb0       ??1?$_Ref_count_resource@PEAUCvMat@@U?$DefaultDeleter@UCvMat@@@cv@@@std@@UEAA@XZ 0000000180046eb0 f i mwsurf.obj
 0001:00045ed0       ??1?$_Temporary_owner_del@PEAUCvMat@@U?$DefaultDeleter@UCvMat@@@cv@@@std@@QEAA@XZ 0000000180046ed0 f i mwsurf.obj
 0001:00045f10       ??1?$_Tidy_guard@V?$vector@HV?$allocator@H@std@@@std@@@std@@QEAA@XZ 0000000180046f10 f i mwsurf.obj
 0001:00045f40       ??1?$_Tidy_guard@V?$vector@VMat@cv@@V?$allocator@VMat@cv@@@std@@@std@@@std@@QEAA@XZ 0000000180046f40 f i mwsurf.obj
 0001:00045f70       ??1?$_Uninitialized_backout_al@V?$allocator@V?$Point_@H@cv@@@std@@@std@@QEAA@XZ 0000000180046f70 f i mwsurf.obj
 0001:00045fa0       ??1?$_Uninitialized_backout_al@V?$allocator@VMat@cv@@@std@@@std@@QEAA@XZ 0000000180046fa0 f i mwsurf.obj
 0001:00045fd0       ??1?$lock_guard@Vrecursive_mutex@std@@@std@@QEAA@XZ 0000000180046fd0 f i mwsurf.obj
 0001:00045ff0       ??1?$shared_ptr@UCvMat@@@std@@QEAA@XZ 0000000180046ff0 f i mwsurf.obj
 0001:00046010       ??1?$vector@HV?$allocator@H@std@@@std@@QEAA@XZ 0000000180047010 f i mwsurf.obj
 0001:00046030       ??1?$vector@MV?$allocator@M@std@@@std@@QEAA@XZ 0000000180047030 f i mwsurf.obj
 0001:00046050       ??1?$vector@V?$Point_@H@cv@@V?$allocator@V?$Point_@H@cv@@@std@@@std@@QEAA@XZ 0000000180047050 f i mwsurf.obj
 0001:00046070       ??1?$vector@VMat@cv@@V?$allocator@VMat@cv@@@std@@@std@@QEAA@XZ 0000000180047070 f i mwsurf.obj
 0001:00046090       ??1MWSURF@cv@@UEAA@XZ      0000000180047090 f i mwsurf.obj
 0001:000460b0       ??1MWSURFBuildInvoker@cv@@UEAA@XZ 00000001800470b0 f i mwsurf.obj
 0001:000460d0       ??1MWSURFFindInvoker@cv@@UEAA@XZ 00000001800470d0 f i mwsurf.obj
 0001:000460f0       ??1MWSURFInvoker@cv@@UEAA@XZ 00000001800470f0 f i mwsurf.obj
 0001:00046140       ??1_InputArray@cv@@QEAA@XZ 0000000180047140 f i mwsurf.obj
 0001:00046150       ??1_Mutex_base@std@@QEAA@XZ 0000000180047150 f i mwsurf.obj
 0001:00046180       ??1_OutputArray@cv@@QEAA@XZ 0000000180047180 f i mwsurf.obj
 0001:000461a0       ??1recursive_mutex@std@@QEAA@XZ 00000001800471a0 f i mwsurf.obj
 0001:000461c0       ??4?$Point_@H@cv@@QEAAAEAV01@$$QEAV01@@Z 00000001800471c0 f i mwsurf.obj
 0001:00046210       ??4?$Point_@M@cv@@QEAAAEAV01@$$QEAV01@@Z 0000000180047210 f i mwsurf.obj
 0001:00046270       ??4?$Point_@M@cv@@QEAAAEAV01@AEBV01@@Z 0000000180047270 f i mwsurf.obj
 0001:000462b0       ??4?$Size_@H@cv@@QEAAAEAV01@AEBV01@@Z 00000001800472b0 f i mwsurf.obj
 0001:000462e0       ??4KeyPoint@cv@@QEAAAEAV01@$$QEAV01@@Z 00000001800472e0 f i mwsurf.obj
 0001:00046370       ??4KeyPoint@cv@@QEAAAEAV01@AEBV01@@Z 0000000180047370 f i mwsurf.obj
 0001:00046400       ??4Mat@cv@@QEAAAEAV01@$$QEAV01@@Z 0000000180047400 f i mwsurf.obj
 0001:00046670       ??8type_info@@QEBA_NAEBV0@@Z 0000000180047670 f i mwsurf.obj
 0001:000466c0       ??A?$Vec@M$02@cv@@QEAAAEAMH@Z 00000001800476c0 f i mwsurf.obj
 0001:000466e0       ??A?$vector@HV?$allocator@H@std@@@std@@QEAAAEAH_K@Z 00000001800476e0 f i mwsurf.obj
 0001:00046710       ??A?$vector@HV?$allocator@H@std@@@std@@QEBAAEBH_K@Z 0000000180047710 f i mwsurf.obj
 0001:00046740       ??A?$vector@MV?$allocator@M@std@@@std@@QEAAAEAM_K@Z 0000000180047740 f i mwsurf.obj
 0001:00046770       ??A?$vector@MV?$allocator@M@std@@@std@@QEBAAEBM_K@Z 0000000180047770 f i mwsurf.obj
 0001:000467a0       ??A?$vector@V?$Point_@H@cv@@V?$allocator@V?$Point_@H@cv@@@std@@@std@@QEAAAEAV?$Point_@H@cv@@_K@Z 00000001800477a0 f i mwsurf.obj
 0001:000467d0       ??A?$vector@V?$Point_@H@cv@@V?$allocator@V?$Point_@H@cv@@@std@@@std@@QEBAAEBV?$Point_@H@cv@@_K@Z 00000001800477d0 f i mwsurf.obj
 0001:00046800       ??A?$vector@VMat@cv@@V?$allocator@VMat@cv@@@std@@@std@@QEAAAEAVMat@cv@@_K@Z 0000000180047800 f i mwsurf.obj
 0001:00046830       ??A?$vector@VMat@cv@@V?$allocator@VMat@cv@@@std@@@std@@QEBAAEBVMat@cv@@_K@Z 0000000180047830 f i mwsurf.obj
 0001:00046860       ??BMatStep@cv@@QEBA_KXZ    0000000180047860 f i mwsurf.obj
 0001:00046880       ??C?$Ptr@UCvMat@@@cv@@QEBAPEAUCvMat@@XZ 0000000180047880 f i mwsurf.obj
 0001:000468a0       ??R?$Matx@M$02$00@cv@@QEAAAEAMH@Z 00000001800478a0 f i mwsurf.obj
 0001:000468c0       ??R?$Matx@M$02$00@cv@@QEBAAEBMH@Z 00000001800478c0 f i mwsurf.obj
 0001:000468e0       ??R?$Matx@M$02$02@cv@@QEBAAEBMHH@Z 00000001800478e0 f i mwsurf.obj
 0001:00046910       ??R?$Matx_DetOp@M$02@internal@cv@@QEBANAEBV?$Matx@M$02$02@2@@Z 0000000180047910 f i mwsurf.obj
 0001:00046b90       ??R?$Matx_FastSolveOp@M$02$02$00@internal@cv@@QEBA_NAEBV?$Matx@M$02$02@2@AEBV?$Matx@M$02$00@2@AEAV42@H@Z 0000000180047b90 f i mwsurf.obj
 0001:000473e0       ??RKeypointGreater@cv@@QEBA_NAEBVKeyPoint@1@0@Z 00000001800483e0 f i mwsurf.obj
 0001:000474f0       ??RMWSURFBuildInvoker@cv@@UEBAXAEBVRange@1@@Z 00000001800484f0 f i mwsurf.obj
 0001:000475d0       ??RMWSURFFindInvoker@cv@@UEBAXAEBVRange@1@@Z 00000001800485d0 f i mwsurf.obj
 0001:000476c0       ??RMWSURFInvoker@cv@@UEBAXAEBVRange@1@@Z 00000001800486c0 f i mwsurf.obj
 0001:00048fc0       ??_DFeature2D@cv@@QEAAXXZ  0000000180049fc0 f i mwsurf.obj
 0001:00048ff0       ??_DMWSURF@cv@@QEAAXXZ     0000000180049ff0 f i mwsurf.obj
 0001:00049020       ??_EFeature2D@cv@@$4PPPPPPPM@A@EAAPEAXI@Z 000000018004a020 f i mwsurf.obj
 0001:0004902c       ??_EMWSURF@cv@@$4PPPPPPPM@A@EAAPEAXI@Z 000000018004a02c f i mwsurf.obj
 0001:00049040       ??_G?$_Ref_count_resource@PEAUCvMat@@U?$DefaultDeleter@UCvMat@@@cv@@@std@@UEAAPEAXI@Z 000000018004a040 f i mwsurf.obj
 0001:00049040       ??_E?$_Ref_count_resource@PEAUCvMat@@U?$DefaultDeleter@UCvMat@@@cv@@@std@@UEAAPEAXI@Z 000000018004a040 f i mwsurf.obj
 0001:00049080       ??_EFeature2D@cv@@UEAAPEAXI@Z 000000018004a080 f i mwsurf.obj
 0001:00049080       ??_GFeature2D@cv@@UEAAPEAXI@Z 000000018004a080 f i mwsurf.obj
 0001:000490d0       ??_EMWSURF@cv@@UEAAPEAXI@Z 000000018004a0d0 f i mwsurf.obj
 0001:000490d0       ??_GMWSURF@cv@@UEAAPEAXI@Z 000000018004a0d0 f i mwsurf.obj
 0001:00049120       ??_GMWSURFBuildInvoker@cv@@UEAAPEAXI@Z 000000018004a120 f i mwsurf.obj
 0001:00049120       ??_EMWSURFBuildInvoker@cv@@UEAAPEAXI@Z 000000018004a120 f i mwsurf.obj
 0001:00049160       ??_EMWSURFFindInvoker@cv@@UEAAPEAXI@Z 000000018004a160 f i mwsurf.obj
 0001:00049160       ??_GMWSURFFindInvoker@cv@@UEAAPEAXI@Z 000000018004a160 f i mwsurf.obj
 0001:000491a0       ??_GMWSURFInvoker@cv@@UEAAPEAXI@Z 000000018004a1a0 f i mwsurf.obj
 0001:000491a0       ??_EMWSURFInvoker@cv@@UEAAPEAXI@Z 000000018004a1a0 f i mwsurf.obj
 0001:000491e0       ??_GParallelLoopBody@cv@@UEAAPEAXI@Z 000000018004a1e0 f i mwsurf.obj
 0001:000491e0       ??_EParallelLoopBody@cv@@UEAAPEAXI@Z 000000018004a1e0 f i mwsurf.obj
 0001:00049220       ??_H@YAXPEAX_K1P6APEAX0@Z@Z 000000018004a220 f i mwsurf.obj
 0001:00049280       ?_Buy_nonzero@?$vector@HV?$allocator@H@std@@@std@@AEAAX_K@Z 000000018004a280 f i mwsurf.obj
 0001:000492c0       ?_Buy_nonzero@?$vector@VMat@cv@@V?$allocator@VMat@cv@@@std@@@std@@AEAAX_K@Z 000000018004a2c0 f i mwsurf.obj
 0001:00049300       ?_Buy_raw@?$vector@HV?$allocator@H@std@@@std@@AEAAX_K@Z 000000018004a300 f i mwsurf.obj
 0001:00049390       ?_Buy_raw@?$vector@VMat@cv@@V?$allocator@VMat@cv@@@std@@@std@@AEAAX_K@Z 000000018004a390 f i mwsurf.obj
 0001:00049430       ?_Calculate_growth@?$vector@MV?$allocator@M@std@@@std@@AEBA_K_K@Z 000000018004a430 f i mwsurf.obj
 0001:000494c0       ?_Calculate_growth@?$vector@V?$Point_@H@cv@@V?$allocator@V?$Point_@H@cv@@@std@@@std@@AEBA_K_K@Z 000000018004a4c0 f i mwsurf.obj
 0001:00049550       ?_Change_array@?$vector@MV?$allocator@M@std@@@std@@AEAAXQEAM_K1@Z 000000018004a550 f i mwsurf.obj
 0001:00049650       ?_Change_array@?$vector@V?$Point_@H@cv@@V?$allocator@V?$Point_@H@cv@@@std@@@std@@AEAAXQEAV?$Point_@H@cv@@_K1@Z 000000018004a650 f i mwsurf.obj
 0001:00049750       ?_Check_C_return@std@@YAHH@Z 000000018004a750 f i mwsurf.obj
 0001:00049780       ?_Decref@?$_Ptr_base@UCvMat@@@std@@IEAAXXZ 000000018004a780 f i mwsurf.obj
 0001:000497b0       ?_Delete_this@?$_Ref_count_resource@PEAUCvMat@@U?$DefaultDeleter@UCvMat@@@cv@@@std@@EEAAXXZ 000000018004a7b0 f i mwsurf.obj
 0001:00049800       ?_Destroy@?$_Ref_count_resource@PEAUCvMat@@U?$DefaultDeleter@UCvMat@@@cv@@@std@@EEAAXXZ 000000018004a800 f i mwsurf.obj
 0001:00049840       ?_Destroy@?$vector@HV?$allocator@H@std@@@std@@AEAAXPEAH0@Z 000000018004a840 f i mwsurf.obj
 0001:00049880       ?_Destroy@?$vector@MV?$allocator@M@std@@@std@@AEAAXPEAM0@Z 000000018004a880 f i mwsurf.obj
 0001:000498c0       ?_Destroy@?$vector@V?$Point_@H@cv@@V?$allocator@V?$Point_@H@cv@@@std@@@std@@AEAAXPEAV?$Point_@H@cv@@0@Z 000000018004a8c0 f i mwsurf.obj
 0001:00049900       ?_Destroy@?$vector@VMat@cv@@V?$allocator@VMat@cv@@@std@@@std@@AEAAXPEAVMat@cv@@0@Z 000000018004a900 f i mwsurf.obj
 0001:00049940       ?_Get_deleter@?$_Ref_count_resource@PEAUCvMat@@U?$DefaultDeleter@UCvMat@@@cv@@@std@@UEBAPEAXAEBVtype_info@@@Z 000000018004a940 f i mwsurf.obj
 0001:00049990       ?_Get_first@?$_Compressed_pair@U?$DefaultDeleter@UCvMat@@@cv@@PEAUCvMat@@$00@std@@QEAAAEAU?$DefaultDeleter@UCvMat@@@cv@@XZ 000000018004a990 f i mwsurf.obj
 0001:000499a0       ?_Get_first@?$_Compressed_pair@U?$DefaultDeleter@UCvMat@@@cv@@PEAUCvMat@@$00@std@@QEBAAEBU?$DefaultDeleter@UCvMat@@@cv@@XZ 000000018004a9a0 f i mwsurf.obj
 0001:000499b0       ?_Get_first@?$_Compressed_pair@V?$allocator@H@std@@V?$_Vector_val@U?$_Simple_types@H@std@@@2@$00@std@@QEAAAEAV?$allocator@H@2@XZ 000000018004a9b0 f i mwsurf.obj
 0001:000499c0       ?_Get_first@?$_Compressed_pair@V?$allocator@H@std@@V?$_Vector_val@U?$_Simple_types@H@std@@@2@$00@std@@QEBAAEBV?$allocator@H@2@XZ 000000018004a9c0 f i mwsurf.obj
 0001:000499d0       ?_Get_first@?$_Compressed_pair@V?$allocator@M@std@@V?$_Vector_val@U?$_Simple_types@M@std@@@2@$00@std@@QEAAAEAV?$allocator@M@2@XZ 000000018004a9d0 f i mwsurf.obj
 0001:000499e0       ?_Get_first@?$_Compressed_pair@V?$allocator@M@std@@V?$_Vector_val@U?$_Simple_types@M@std@@@2@$00@std@@QEBAAEBV?$allocator@M@2@XZ 000000018004a9e0 f i mwsurf.obj
 0001:000499f0       ?_Get_first@?$_Compressed_pair@V?$allocator@V?$Point_@H@cv@@@std@@V?$_Vector_val@U?$_Simple_types@V?$Point_@H@cv@@@std@@@2@$00@std@@QEAAAEAV?$allocator@V?$Point_@H@cv@@@2@XZ 000000018004a9f0 f i mwsurf.obj
 0001:00049a00       ?_Get_first@?$_Compressed_pair@V?$allocator@V?$Point_@H@cv@@@std@@V?$_Vector_val@U?$_Simple_types@V?$Point_@H@cv@@@std@@@2@$00@std@@QEBAAEBV?$allocator@V?$Point_@H@cv@@@2@XZ 000000018004aa00 f i mwsurf.obj
 0001:00049a10       ?_Get_first@?$_Compressed_pair@V?$allocator@VMat@cv@@@std@@V?$_Vector_val@U?$_Simple_types@VMat@cv@@@std@@@2@$00@std@@QEAAAEAV?$allocator@VMat@cv@@@2@XZ 000000018004aa10 f i mwsurf.obj
 0001:00049a20       ?_Get_first@?$_Compressed_pair@V?$allocator@VMat@cv@@@std@@V?$_Vector_val@U?$_Simple_types@VMat@cv@@@std@@@2@$00@std@@QEBAAEBV?$allocator@VMat@cv@@@2@XZ 000000018004aa20 f i mwsurf.obj
 0001:00049a30       ?_Getal@?$vector@HV?$allocator@H@std@@@std@@AEAAAEAV?$allocator@H@2@XZ 000000018004aa30 f i mwsurf.obj
 0001:00049a50       ?_Getal@?$vector@HV?$allocator@H@std@@@std@@AEBAAEBV?$allocator@H@2@XZ 000000018004aa50 f i mwsurf.obj
 0001:00049a70       ?_Getal@?$vector@MV?$allocator@M@std@@@std@@AEAAAEAV?$allocator@M@2@XZ 000000018004aa70 f i mwsurf.obj
 0001:00049a90       ?_Getal@?$vector@MV?$allocator@M@std@@@std@@AEBAAEBV?$allocator@M@2@XZ 000000018004aa90 f i mwsurf.obj
 0001:00049ab0       ?_Getal@?$vector@V?$Point_@H@cv@@V?$allocator@V?$Point_@H@cv@@@std@@@std@@AEAAAEAV?$allocator@V?$Point_@H@cv@@@2@XZ 000000018004aab0 f i mwsurf.obj
 0001:00049ad0       ?_Getal@?$vector@V?$Point_@H@cv@@V?$allocator@V?$Point_@H@cv@@@std@@@std@@AEBAAEBV?$allocator@V?$Point_@H@cv@@@2@XZ 000000018004aad0 f i mwsurf.obj
 0001:00049af0       ?_Getal@?$vector@VMat@cv@@V?$allocator@VMat@cv@@@std@@@std@@AEAAAEAV?$allocator@VMat@cv@@@2@XZ 000000018004aaf0 f i mwsurf.obj
 0001:00049b10       ?_Getal@?$vector@VMat@cv@@V?$allocator@VMat@cv@@@std@@@std@@AEBAAEBV?$allocator@VMat@cv@@@2@XZ 000000018004ab10 f i mwsurf.obj
 0001:00049b30       ?_Mymtx@_Mutex_base@std@@AEAAPEAU_Mtx_internal_imp_t@@XZ 000000018004ab30 f i mwsurf.obj
 0001:00049b40       ?_Orphan_range@?$vector@MV?$allocator@M@std@@@std@@AEBAXPEAM0@Z 000000018004ab40 f i mwsurf.obj
 0001:00049b50       ?_Orphan_range@?$vector@V?$Point_@H@cv@@V?$allocator@V?$Point_@H@cv@@@std@@@std@@AEBAXPEAV?$Point_@H@cv@@0@Z 000000018004ab50 f i mwsurf.obj
 0001:00049b60       ?_Release@?$_Uninitialized_backout_al@V?$allocator@V?$Point_@H@cv@@@std@@@std@@QEAAPEAV?$Point_@H@cv@@XZ 000000018004ab60 f i mwsurf.obj
 0001:00049b80       ?_Release@?$_Uninitialized_backout_al@V?$allocator@VMat@cv@@@std@@@std@@QEAAPEAVMat@cv@@XZ 000000018004ab80 f i mwsurf.obj
 0001:00049ba0       ?_Tidy@?$vector@HV?$allocator@H@std@@@std@@AEAAXXZ 000000018004aba0 f i mwsurf.obj
 0001:00049c70       ?_Tidy@?$vector@MV?$allocator@M@std@@@std@@AEAAXXZ 000000018004ac70 f i mwsurf.obj
 0001:00049d40       ?_Tidy@?$vector@V?$Point_@H@cv@@V?$allocator@V?$Point_@H@cv@@@std@@@std@@AEAAXXZ 000000018004ad40 f i mwsurf.obj
 0001:00049e10       ?_Tidy@?$vector@VMat@cv@@V?$allocator@VMat@cv@@@std@@@std@@AEAAXXZ 000000018004ae10 f i mwsurf.obj
 0001:00049ef0       ?_Ufill@?$vector@HV?$allocator@H@std@@@std@@AEAAPEAHPEAH_KU_Value_init_tag@2@@Z 000000018004aef0 f i mwsurf.obj
 0001:00049f30       ?_Ufill@?$vector@MV?$allocator@M@std@@@std@@AEAAPEAMPEAM_KU_Value_init_tag@2@@Z 000000018004af30 f i mwsurf.obj
 0001:00049f70       ?_Ufill@?$vector@V?$Point_@H@cv@@V?$allocator@V?$Point_@H@cv@@@std@@@std@@AEAAPEAV?$Point_@H@cv@@PEAV34@_KU_Value_init_tag@2@@Z 000000018004af70 f i mwsurf.obj
 0001:00049fb0       ?_Ufill@?$vector@VKeyPoint@cv@@V?$allocator@VKeyPoint@cv@@@std@@@std@@AEAAPEAVKeyPoint@cv@@PEAV34@_KU_Value_init_tag@2@@Z 000000018004afb0 f i mwsurf.obj
 0001:00049ff0       ?_Ufill@?$vector@VMat@cv@@V?$allocator@VMat@cv@@@std@@@std@@AEAAPEAVMat@cv@@PEAV34@_KU_Value_init_tag@2@@Z 000000018004aff0 f i mwsurf.obj
 0001:0004a030       ?_Umove_if_noexcept1@?$vector@MV?$allocator@M@std@@@std@@AEAAXPEAM00U?$integral_constant@_N$00@2@@Z 000000018004b030 f i mwsurf.obj
 0001:0004a070       ?_Umove_if_noexcept1@?$vector@V?$Point_@H@cv@@V?$allocator@V?$Point_@H@cv@@@std@@@std@@AEAAXPEAV?$Point_@H@cv@@00U?$integral_constant@_N$00@2@@Z 000000018004b070 f i mwsurf.obj
 0001:0004a0b0       ?_Umove_if_noexcept@?$vector@MV?$allocator@M@std@@@std@@AEAAXPEAM00@Z 000000018004b0b0 f i mwsurf.obj
 0001:0004a110       ?_Umove_if_noexcept@?$vector@V?$Point_@H@cv@@V?$allocator@V?$Point_@H@cv@@@std@@@std@@AEAAXPEAV?$Point_@H@cv@@00@Z 000000018004b110 f i mwsurf.obj
 0001:0004a170       ?_Unwrapped@?$_Vector_iterator@V?$_Vector_val@U?$_Simple_types@VKeyPoint@cv@@@std@@@std@@@std@@QEBAPEAVKeyPoint@cv@@XZ 000000018004b170 f i mwsurf.obj
 0001:0004a190       ?_Xlength@?$vector@HV?$allocator@H@std@@@std@@CAXXZ 000000018004b190 f i mwsurf.obj
 0001:0004a1b0       ?_Xlength@?$vector@MV?$allocator@M@std@@@std@@CAXXZ 000000018004b1b0 f i mwsurf.obj
 0001:0004a1d0       ?_Xlength@?$vector@V?$Point_@H@cv@@V?$allocator@V?$Point_@H@cv@@@std@@@std@@CAXXZ 000000018004b1d0 f i mwsurf.obj
 0001:0004a1f0       ?_Xlength@?$vector@VMat@cv@@V?$allocator@VMat@cv@@@std@@@std@@CAXXZ 000000018004b1f0 f i mwsurf.obj
 0001:0004a210       ?abs@@YAMM@Z               000000018004b210 f i mwsurf.obj
 0001:0004a230       ?all@?$Matx@M$02$00@cv@@SA?AV12@M@Z 000000018004b230 f i mwsurf.obj
 0001:0004a2c0       ?all@Range@cv@@SA?AV12@XZ  000000018004b2c0 f i mwsurf.obj
 0001:0004a2f0       ?allocate@?$allocator@H@std@@QEAAPEAH_K@Z 000000018004b2f0 f i mwsurf.obj
 0001:0004a320       ?allocate@?$allocator@M@std@@QEAAPEAM_K@Z 000000018004b320 f i mwsurf.obj
 0001:0004a350       ?allocate@?$allocator@V?$Point_@H@cv@@@std@@QEAAPEAV?$Point_@H@cv@@_K@Z 000000018004b350 f i mwsurf.obj
 0001:0004a380       ?allocate@?$allocator@VMat@cv@@@std@@QEAAPEAVMat@cv@@_K@Z 000000018004b380 f i mwsurf.obj
 0001:0004a3b0       ?begin@?$vector@VKeyPoint@cv@@V?$allocator@VKeyPoint@cv@@@std@@@std@@QEAA?AV?$_Vector_iterator@V?$_Vector_val@U?$_Simple_types@VKeyPoint@cv@@@std@@@std@@@2@XZ 000000018004b3b0 f i mwsurf.obj
 0001:0004a400       ?calcHaarPattern@cv@@YAMPEBHPEBUMWSurfHF@1@H@Z 000000018004b400 f i mwsurf.obj
 0001:0004a4e0       ?capacity@?$vector@MV?$allocator@M@std@@@std@@QEBA_KXZ 000000018004b4e0 f i mwsurf.obj
 0001:0004a510       ?capacity@?$vector@V?$Point_@H@cv@@V?$allocator@V?$Point_@H@cv@@@std@@@std@@QEBA_KXZ 000000018004b510 f i mwsurf.obj
 0001:0004a540       ?clear@?$vector@VKeyPoint@cv@@V?$allocator@VKeyPoint@cv@@@std@@@std@@QEAAXXZ 000000018004b540 f i mwsurf.obj
 0001:0004a5b0       ?clear@Algorithm@cv@@UEAAXXZ 000000018004b5b0 f i mwsurf.obj
 0001:0004a5c0       ?cos@@YAMM@Z               000000018004b5c0 f i mwsurf.obj
 0001:0004a5e0       ?create@Mat@cv@@QEAAXHHH@Z 000000018004b5e0 f i mwsurf.obj
 0001:0004a680       ?deallocate@?$allocator@H@std@@QEAAXQEAH_K@Z 000000018004b680 f i mwsurf.obj
 0001:0004a6b0       ?deallocate@?$allocator@M@std@@QEAAXQEAM_K@Z 000000018004b6b0 f i mwsurf.obj
 0001:0004a6e0       ?deallocate@?$allocator@V?$Point_@H@cv@@@std@@QEAAXQEAV?$Point_@H@cv@@_K@Z 000000018004b6e0 f i mwsurf.obj
 0001:0004a710       ?deallocate@?$allocator@VMat@cv@@@std@@QEAAXQEAVMat@cv@@_K@Z 000000018004b710 f i mwsurf.obj
 0001:0004a740       ?depth@Mat@cv@@QEBAHXZ     000000018004b740 f i mwsurf.obj
 0001:0004a750       ?elemSize@Mat@cv@@QEBA_KXZ 000000018004b750 f i mwsurf.obj
 0001:0004a7a0       ?empty@Feature2D@cv@@$4PPPPPPPM@A@EBA_NXZ 000000018004b7a0 f i mwsurf.obj
 0001:0004a7ac       ?empty@Feature2D@cv@@$4PPPPPPPM@BI@EBA_NXZ 000000018004b7ac f i mwsurf.obj
 0001:0004a7c0       ?empty@Mat@cv@@QEBA_NXZ    000000018004b7c0 f i mwsurf.obj
 0001:0004a810       ?end@?$vector@VKeyPoint@cv@@V?$allocator@VKeyPoint@cv@@@std@@@std@@QEAA?AV?$_Vector_iterator@V?$_Vector_val@U?$_Simple_types@VKeyPoint@cv@@@std@@@std@@@2@XZ 000000018004b810 f i mwsurf.obj
 0001:0004a860       ?fabs@@YAMM@Z              000000018004b860 f i mwsurf.obj
 0001:0004a880       ?get@?$_Ptr_base@UCvMat@@@std@@IEBAPEAUCvMat@@XZ 000000018004b880 f i mwsurf.obj
 0001:0004a890       ?getDefaultName@Feature2D@cv@@$4PPPPPPPM@A@EBA?AV?$basic_string@DU?$char_traits@D@std@@V?$allocator@D@2@@std@@XZ 000000018004b890 f i mwsurf.obj
 0001:0004a89c       ?getDefaultName@Feature2D@cv@@$4PPPPPPPM@BI@EBA?AV?$basic_string@DU?$char_traits@D@std@@V?$allocator@D@2@@std@@XZ 000000018004b89c f i mwsurf.obj
 0001:0004a8b0       ?getMat@_InputArray@cv@@QEBA?AVMat@2@H@Z 000000018004b8b0 f i mwsurf.obj
 0001:0004a940       ?init@_InputArray@cv@@IEAAXHPEBX@Z 000000018004b940 f i mwsurf.obj
 0001:0004a970       ?init@_InputArray@cv@@IEAAXHPEBXV?$Size_@H@2@@Z 000000018004b970 f i mwsurf.obj
 0001:0004a9c0       ?lock@_Mutex_base@std@@QEAAXXZ 000000018004b9c0 f i mwsurf.obj
 0001:0004a9f0       ?max_size@?$_Default_allocator_traits@V?$allocator@H@std@@@std@@SA_KAEBV?$allocator@H@2@@Z 000000018004b9f0 f i mwsurf.obj
 0001:0004aa00       ?max_size@?$_Default_allocator_traits@V?$allocator@M@std@@@std@@SA_KAEBV?$allocator@M@2@@Z 000000018004ba00 f i mwsurf.obj
 0001:0004aa10       ?max_size@?$_Default_allocator_traits@V?$allocator@V?$Point_@H@cv@@@std@@@std@@SA_KAEBV?$allocator@V?$Point_@H@cv@@@2@@Z 000000018004ba10 f i mwsurf.obj
 0001:0004aa20       ?max_size@?$_Default_allocator_traits@V?$allocator@VMat@cv@@@std@@@std@@SA_KAEBV?$allocator@VMat@cv@@@2@@Z 000000018004ba20 f i mwsurf.obj
 0001:0004aa30       ?max_size@?$vector@HV?$allocator@H@std@@@std@@QEBA_KXZ 000000018004ba30 f i mwsurf.obj
 0001:0004aa80       ?max_size@?$vector@MV?$allocator@M@std@@@std@@QEBA_KXZ 000000018004ba80 f i mwsurf.obj
 0001:0004aad0       ?max_size@?$vector@V?$Point_@H@cv@@V?$allocator@V?$Point_@H@cv@@@std@@@std@@QEBA_KXZ 000000018004bad0 f i mwsurf.obj
 0001:0004ab20       ?max_size@?$vector@VMat@cv@@V?$allocator@VMat@cv@@@std@@@std@@QEBA_KXZ 000000018004bb20 f i mwsurf.obj
 0001:0004ab70       ?ptr@Mat@cv@@QEAAPEAEH@Z   000000018004bb70 f i mwsurf.obj
 0001:0004aba4       ?read@Feature2D@cv@@$4PPPPPPPM@A@EAAXAEBVFileNode@2@@Z 000000018004bba4 f i mwsurf.obj
 0001:0004abb0       ?read@Feature2D@cv@@$4PPPPPPPM@BI@EAAXAEBVFileNode@2@@Z 000000018004bbb0 f i mwsurf.obj
 0001:0004abc0       ?resize@?$vector@MV?$allocator@M@std@@@std@@QEAAX_K@Z 000000018004bbc0 f i mwsurf.obj
 0001:0004abf0       ?resize@?$vector@V?$Point_@H@cv@@V?$allocator@V?$Point_@H@cv@@@std@@@std@@QEAAX_K@Z 000000018004bbf0 f i mwsurf.obj
 0001:0004ac20       ?resize@?$vector@VKeyPoint@cv@@V?$allocator@VKeyPoint@cv@@@std@@@std@@QEAAX_K@Z 000000018004bc20 f i mwsurf.obj
 0001:0004ac50       ?rowRange@Mat@cv@@QEBA?AV12@HH@Z 000000018004bc50 f i mwsurf.obj
 0001:0004acd0       ?sin@@YAMM@Z               000000018004bcd0 f i mwsurf.obj
 0001:0004acf0       ?solve@?$Matx@M$02$02@cv@@QEBA?AV?$Vec@M$02@2@AEBV32@H@Z 000000018004bcf0 f i mwsurf.obj
 0001:0004ad60       ?type@Mat@cv@@QEBAHXZ      000000018004bd60 f i mwsurf.obj
 0001:0004ad80       ?unlock@_Mutex_base@std@@QEAAXXZ 000000018004bd80 f i mwsurf.obj
 0001:0004ada0       ?write@Feature2D@cv@@$4PPPPPPPM@A@EBAXAEAVFileStorage@2@@Z 000000018004bda0 f i mwsurf.obj
 0001:0004adac       ?write@Feature2D@cv@@$4PPPPPPPM@BI@EBAXAEAVFileStorage@2@@Z 000000018004bdac f i mwsurf.obj
 0001:0004adc0       ?zeros@?$Matx@M$02$00@cv@@SA?AV12@XZ 000000018004bdc0 f i mwsurf.obj
 0001:0004ade0       fabsf                      000000018004bde0 f i mwsurf.obj
 0001:0004ae00       fastHessianDetector_uint8  000000018004be00 f   fastHessianDetectorCore.obj
 0001:0004b040       fastHessianDetector_keyPoints2field 000000018004c040 f   fastHessianDetectorCore.obj
 0001:0004b1a0       fastHessianDetector_keyPoints2fieldRM 000000018004c1a0 f   fastHessianDetectorCore.obj
 0001:0004b300       fastHessianDetector_deleteKeypoint 000000018004c300 f   fastHessianDetectorCore.obj
 0001:0004b350       ?limitNumOctavesCore@@YAHH_K0@Z 000000018004c350 f   fastHessianDetectorCore.obj
 0001:0004b420       ?configureSURFDetectorCore@@YAXU?$Ptr@VMWSURF@cv@@@cv@@HHH_K1@Z 000000018004c420 f   fastHessianDetectorCore.obj
 0001:0004b510       ??$_Copy_construct_from@VMWSURF@cv@@@?$_Ptr_base@VMWSURF@cv@@@std@@IEAAXAEBV?$shared_ptr@VMWSURF@cv@@@1@@Z 000000018004c510 f i fastHessianDetectorCore.obj
 0001:0004b550       ??0?$Ptr@VMWSURF@cv@@@cv@@QEAA@AEBU01@@Z 000000018004c550 f i fastHessianDetectorCore.obj
 0001:0004b580       ??0?$shared_ptr@VMWSURF@cv@@@std@@QEAA@AEBV01@@Z 000000018004c580 f i fastHessianDetectorCore.obj
 0001:0004b5c0       ?_Incref@?$_Ptr_base@VMWSURF@cv@@@std@@IEBAXXZ 000000018004c5c0 f i fastHessianDetectorCore.obj
 0001:0004b5f0       ?_Incref@_Ref_count_base@std@@QEAAXXZ 000000018004c5f0 f i fastHessianDetectorCore.obj
 0001:0004b610       getBitfieldFromFloat       000000018004c610 f   half_type.obj
 0001:0004b640       getFloatFromBitfield       000000018004c640 f   half_type.obj
 0001:0004b670       getBitfieldFromHalf        000000018004c670 f   half_type.obj
 0001:0004b690       getHalfFromBitfield        000000018004c690 f   half_type.obj
 0001:0004b6c0       halfToFloat                000000018004c6c0 f   half_type.obj
 0001:0004b770       halfToDouble               000000018004c770 f   half_type.obj
 0001:0004b7a0       floatToHalf                000000018004c7a0 f   half_type.obj
 0001:0004ba00       doubleToHalf               000000018004ca00 f   half_type.obj
 0001:0004bced       rgb2gray_tbb_uint8         000000018004cced f   libmwrgb2gray_tbb:libmwrgb2gray_tbb.dll
 0001:0004bcf3       jpegreader_uint8           000000018004ccf3 f   libmwjpegreader:libmwjpegreader.dll
 0001:0004bcf9       ComputeMetric_ssd_single   000000018004ccf9 f   libmwComputeMetric:libmwComputeMetric.dll
 0001:0004bcff       ?fastFree@cv@@YAXPEAX@Z    000000018004ccff f   opencv_core420:opencv_core420.dll
 0001:0004bd05       ?error@cv@@YAXHAEBV?$basic_string@DU?$char_traits@D@std@@V?$allocator@D@2@@std@@PEBD1H@Z 000000018004cd05 f   opencv_core420:opencv_core420.dll
 0001:0004bd0b       ?deallocate@Mat@cv@@QEAAXXZ 000000018004cd0b f   opencv_core420:opencv_core420.dll
 0001:0004bd11       ?copySize@Mat@cv@@QEAAXAEBV12@@Z 000000018004cd11 f   opencv_core420:opencv_core420.dll
 0001:0004bd17       ?updateContinuityFlag@Mat@cv@@QEAAXXZ 000000018004cd17 f   opencv_core420:opencv_core420.dll
 0001:0004bd1d       ?fastAtan2@cv@@YAMMM@Z     000000018004cd1d f   opencv_core420:opencv_core420.dll
 0001:0004bd23       ?getMat_@_InputArray@cv@@QEBA?AVMat@2@H@Z 000000018004cd23 f   opencv_core420:opencv_core420.dll
 0001:0004bd29       ?kind@_InputArray@cv@@QEBA?AW4KindFlag@12@XZ 000000018004cd29 f   opencv_core420:opencv_core420.dll
 0001:0004bd2f       ?type@_InputArray@cv@@QEBAHH@Z 000000018004cd2f f   opencv_core420:opencv_core420.dll
 0001:0004bd35       ?needed@_OutputArray@cv@@QEBA_NXZ 000000018004cd35 f   opencv_core420:opencv_core420.dll
 0001:0004bd3b       ?create@_OutputArray@cv@@QEBAXHHHH_NW4DepthMask@12@@Z 000000018004cd3b f   opencv_core420:opencv_core420.dll
 0001:0004bd41       ?noArray@cv@@YAAEBV_InputOutputArray@1@XZ 000000018004cd41 f   opencv_core420:opencv_core420.dll
 0001:0004bd47       ??0Mat@cv@@QEAA@AEBV01@AEBVRange@1@1@Z 000000018004cd47 f   opencv_core420:opencv_core420.dll
 0001:0004bd4d       ?copyTo@Mat@cv@@QEBAXAEBV_OutputArray@2@@Z 000000018004cd4d f   opencv_core420:opencv_core420.dll
 0001:0004bd53       ?reshape@Mat@cv@@QEBA?AV12@HH@Z 000000018004cd53 f   opencv_core420:opencv_core420.dll
 0001:0004bd59       ?create@Mat@cv@@QEAAXHPEBHH@Z 000000018004cd59 f   opencv_core420:opencv_core420.dll
 0001:0004bd5f       ?min@cv@@YAXAEBV_InputArray@1@0AEBV_OutputArray@1@@Z 000000018004cd5f f   opencv_core420:opencv_core420.dll
 0001:0004bd65       ??0Algorithm@cv@@QEAA@XZ   000000018004cd65 f   opencv_core420:opencv_core420.dll
 0001:0004bd6b       ??1Algorithm@cv@@UEAA@XZ   000000018004cd6b f   opencv_core420:opencv_core420.dll
 0001:0004bd71       ?save@Algorithm@cv@@UEBAXAEBV?$basic_string@DU?$char_traits@D@std@@V?$allocator@D@2@@std@@@Z 000000018004cd71 f   opencv_core420:opencv_core420.dll
 0001:0004bd77       ??1ParallelLoopBody@cv@@UEAA@XZ 000000018004cd77 f   opencv_core420:opencv_core420.dll
 0001:0004bd7d       ?parallel_for_@cv@@YAXAEBVRange@1@AEBVParallelLoopBody@1@N@Z 000000018004cd7d f   opencv_core420:opencv_core420.dll
 0001:0004bd83       cvCreateMat                000000018004cd83 f   opencv_core420:opencv_core420.dll
 0001:0004bd89       cvCartToPolar              000000018004cd89 f   opencv_core420:opencv_core420.dll
 0001:0004bd8f       ??R?$DefaultDeleter@UCvMat@@@cv@@QEBAXPEAUCvMat@@@Z 000000018004cd8f f   opencv_core420:opencv_core420.dll
 0001:0004bd95       ?getGaussianKernel@cv@@YA?AVMat@1@HNH@Z 000000018004cd95 f   opencv_imgproc420:opencv_imgproc420.dll
 0001:0004bd9b       ?resize@cv@@YAXAEBV_InputArray@1@AEBV_OutputArray@1@V?$Size_@H@1@NNH@Z 000000018004cd9b f   opencv_imgproc420:opencv_imgproc420.dll
 0001:0004bda1       ?integral@cv@@YAXAEBV_InputArray@1@AEBV_OutputArray@1@H@Z 000000018004cda1 f   opencv_imgproc420:opencv_imgproc420.dll
 0001:0004bda7       ?cvtColor@cv@@YAXAEBV_InputArray@1@AEBV_OutputArray@1@HH@Z 000000018004cda7 f   opencv_imgproc420:opencv_imgproc420.dll
 0001:0004bdad       ??1Feature2D@cv@@UEAA@XZ   000000018004cdad f   opencv_features2d420:opencv_features2d420.dll
 0001:0004bdb3       ?detect@Feature2D@cv@@UEAAXAEBV_InputArray@2@AEAV?$vector@VKeyPoint@cv@@V?$allocator@VKeyPoint@cv@@@std@@@std@@0@Z 000000018004cdb3 f   opencv_features2d420:opencv_features2d420.dll
 0001:0004bdb9       ?detect@Feature2D@cv@@UEAAXAEBV_InputArray@2@AEAV?$vector@V?$vector@VKeyPoint@cv@@V?$allocator@VKeyPoint@cv@@@std@@@std@@V?$allocator@V?$vector@VKeyPoint@cv@@V?$allocator@VKeyPoint@cv@@@std@@@std@@@2@@std@@0@Z 000000018004cdb9 f   opencv_features2d420:opencv_features2d420.dll
 0001:0004bdbf       ?compute@Feature2D@cv@@UEAAXAEBV_InputArray@2@AEAV?$vector@VKeyPoint@cv@@V?$allocator@VKeyPoint@cv@@@std@@@std@@AEBV_OutputArray@2@@Z 000000018004cdbf f   opencv_features2d420:opencv_features2d420.dll
 0001:0004bdc5       ?compute@Feature2D@cv@@UEAAXAEBV_InputArray@2@AEAV?$vector@V?$vector@VKeyPoint@cv@@V?$allocator@VKeyPoint@cv@@@std@@@std@@V?$allocator@V?$vector@VKeyPoint@cv@@V?$allocator@VKeyPoint@cv@@@std@@@std@@@2@@std@@AEBV_OutputArray@2@@Z 000000018004cdc5 f   opencv_features2d420:opencv_features2d420.dll
 0001:0004bdcb       ?detectAndCompute@Feature2D@cv@@UEAAXAEBV_InputArray@2@0AEAV?$vector@VKeyPoint@cv@@V?$allocator@VKeyPoint@cv@@@std@@@std@@AEBV_OutputArray@2@_N@Z 000000018004cdcb f   opencv_features2d420:opencv_features2d420.dll
 0001:0004bdd1       ?descriptorSize@Feature2D@cv@@UEBAHXZ 000000018004cdd1 f   opencv_features2d420:opencv_features2d420.dll
 0001:0004bdd7       ?descriptorType@Feature2D@cv@@UEBAHXZ 000000018004cdd7 f   opencv_features2d420:opencv_features2d420.dll
 0001:0004bddd       ?defaultNorm@Feature2D@cv@@UEBAHXZ 000000018004cddd f   opencv_features2d420:opencv_features2d420.dll
 0001:0004bde3       ?write@Feature2D@cv@@UEBAXAEAVFileStorage@2@@Z 000000018004cde3 f   opencv_features2d420:opencv_features2d420.dll
 0001:0004bde9       ?read@Feature2D@cv@@UEAAXAEBVFileNode@2@@Z 000000018004cde9 f   opencv_features2d420:opencv_features2d420.dll
 0001:0004bdef       ?empty@Feature2D@cv@@UEBA_NXZ 000000018004cdef f   opencv_features2d420:opencv_features2d420.dll
 0001:0004bdf5       ?getDefaultName@Feature2D@cv@@UEBA?AV?$basic_string@DU?$char_traits@D@std@@V?$allocator@D@2@@std@@XZ 000000018004cdf5 f   opencv_features2d420:opencv_features2d420.dll
 0001:0004bdfb       sf_load_rtw_optimization_info 000000018004cdfb f   sf_runtime:sf_runtime.dll
 0001:0004be01       sf_mex_decode              000000018004ce01 f   sf_runtime:sf_runtime.dll
 0001:0004be07       sf_init_ChartRunTimeInfo   000000018004ce07 f   sf_runtime:sf_runtime.dll
 0001:0004be0d       sf_free_ChartRunTimeInfo   000000018004ce0d f   sf_runtime:sf_runtime.dll
 0001:0004be13       sfrtGetEmlrtCtx            000000018004ce13 f   sf_runtime:sf_runtime.dll
 0001:0004be19       sfrtGetCovrtInstance       000000018004ce19 f   sf_runtime:sf_runtime.dll
 0001:0004be1f       sf_get_chart_instance_ptr  000000018004ce1f f   sf_runtime:sf_runtime.dll
 0001:0004be25       sim_mode_is_rtw_gen        000000018004ce25 f   sf_runtime:sf_runtime.dll
 0001:0004be2b       sim_mode_is_external       000000018004ce2b f   sf_runtime:sf_runtime.dll
 0001:0004be31       sf_clear_rtw_identifier    000000018004ce31 f   sf_runtime:sf_runtime.dll
 0001:0004be37       sf_get_time                000000018004ce37 f   sf_runtime:sf_runtime.dll
 0001:0004be3d       sfDoAnimationWrapper       000000018004ce3d f   sf_runtime:sf_runtime.dll
 0001:0004be43       setDataBrowseFcn           000000018004ce43 f   sf_runtime:sf_runtime.dll
 0001:0004be49       setLegacyDebuggerFlag      000000018004ce49 f   sf_runtime:sf_runtime.dll
 0001:0004be4f       setDebuggerFlag            000000018004ce4f f   sf_runtime:sf_runtime.dll
 0001:0004be55       sf_warn_if_symbolic_dimension_param_changed 000000018004ce55 f   sf_runtime:sf_runtime.dll
 0001:0004be5b       sf_set_work_widths         000000018004ce5b f   sf_runtime:sf_runtime.dll
 0001:0004be61       sfListenerCacheSimStruct   000000018004ce61 f   sf_runtime:sf_runtime.dll
 0001:0004be67       sfListenerLightTerminate   000000018004ce67 f   sf_runtime:sf_runtime.dll
 0001:0004be6d       sfListenerInitializeRuntimeVars 000000018004ce6d f   sf_runtime:sf_runtime.dll
 0001:0004be73       sf_mex_call                000000018004ce73 f   sf_runtime:sf_runtime.dll
 0001:0004be79       sf_mex_error_message       000000018004ce79 f   sf_runtime:sf_runtime.dll
 0001:0004be7f       sf_mex_create              000000018004ce7f f   sf_runtime:sf_runtime.dll
 0001:0004be85       sf_mex_createcellmatrix    000000018004ce85 f   sf_runtime:sf_runtime.dll
 0001:0004be8b       sf_mex_setcell             000000018004ce8b f   sf_runtime:sf_runtime.dll
 0001:0004be91       sf_mex_getcell             000000018004ce91 f   sf_runtime:sf_runtime.dll
 0001:0004be97       sf_mex_assign              000000018004ce97 f   sf_runtime:sf_runtime.dll
 0001:0004be9d       sf_mex_dup                 000000018004ce9d f   sf_runtime:sf_runtime.dll
 0001:0004bea3       sf_mex_destroy             000000018004cea3 f   sf_runtime:sf_runtime.dll
 0001:0004bea9       sf_mex_import              000000018004cea9 f   sf_runtime:sf_runtime.dll
 0001:0004beaf       ssGetInputPortSignal_wrapper 000000018004ceaf f   sf_runtime:sf_runtime.dll
 0001:0004beb5       ssGetOutputPortSignal_wrapper 000000018004ceb5 f   sf_runtime:sf_runtime.dll
 0001:0004bebb       sf_data_saturate_error     000000018004cebb f   sf_runtime:sf_runtime.dll
 0001:0004bec1       sf_get_ChartInfoStruct_CodeGen 000000018004cec1 f   sf_runtime:sf_runtime.dll
 0001:0004bec7       sf_get_hasSeparateUpdateOutputs 000000018004cec7 f   sf_runtime:sf_runtime.dll
 0001:0004becd       callMdlMethodAndReportError 000000018004cecd f   sf_runtime:sf_runtime.dll
 0001:0004bed3       call_sf_machine_global_method_dispatcher 000000018004ced3 f   sf_runtime:sf_runtime.dll
 0001:0004bed9       getRuntimeInstanceInfoAsVoid 000000018004ced9 f   sf_runtime:sf_runtime.dll
 0001:0004bedf       sf_mex_error_direct_call   000000018004cedf f   sf_runtime:sf_runtime.dll
 0001:0004bee5       sf_clear_error_manager_info 000000018004cee5 f   sf_runtime:sf_runtime.dll
 0001:0004beeb       mxIsChar_800               000000018004ceeb f   libmx:libmx.dll
 0001:0004bef1       mxGetScalar_800            000000018004cef1 f   libmx:libmx.dll
 0001:0004bef7       mxGetPr_800                000000018004cef7 f   libmx:libmx.dll
 0001:0004befd       mxDestroyArray_800         000000018004cefd f   libmx:libmx.dll
 0001:0004bf03       mxCreateDoubleMatrix_800   000000018004cf03 f   libmx:libmx.dll
 0001:0004bf09       mxGetString_800            000000018004cf09 f   libmx:libmx.dll
 0001:0004bf0f       mxDuplicateArray_800       000000018004cf0f f   libmx:libmx.dll
 0001:0004bf15       mxSetCell_800              000000018004cf15 f   libmx:libmx.dll
 0001:0004bf1b       mxSetField_800             000000018004cf1b f   libmx:libmx.dll
 0001:0004bf21       mxCreateString_800         000000018004cf21 f   libmx:libmx.dll
 0001:0004bf27       mxCreateCellMatrix_800     000000018004cf27 f   libmx:libmx.dll
 0001:0004bf2d       mxCreateStructMatrix_800   000000018004cf2d f   libmx:libmx.dll
 0001:0004bf33       mxGetInf_800               000000018004cf33 f   libmx:libmx.dll
 0001:0004bf39       mxGetNaN_800               000000018004cf39 f   libmx:libmx.dll
 0001:0004bf3f       mxCalloc_800               000000018004cf3f f   libmx:libmx.dll
 0001:0004bf45       mxGetM_800                 000000018004cf45 f   libmx:libmx.dll
 0001:0004bf4b       mxGetClassID_800           000000018004cf4b f   libmx:libmx.dll
 0001:0004bf51       mxIsNumeric_800            000000018004cf51 f   libmx:libmx.dll
 0001:0004bf57       mxIsComplex_800            000000018004cf57 f   libmx:libmx.dll
 0001:0004bf5d       mxGetN_800                 000000018004cf5d f   libmx:libmx.dll
 0001:0004bf63       mxCreateDoubleScalar_800   000000018004cf63 f   libmx:libmx.dll
 0001:0004bf69       mexMakeArrayPersistent_800 000000018004cf69 f   libmex:libmex.dll
 0001:0004bf6f       mexErrMsgTxt_800           000000018004cf6f f   libmex:libmex.dll
 0001:0004bf75       mexWarnMsgTxt_800          000000018004cf75 f   libmex:libmex.dll
 0001:0004bf7b       mexCallMATLAB_800          000000018004cf7b f   libmex:libmex.dll
 0001:0004bf81       mexLock_800                000000018004cf81 f   libmex:libmex.dll
 0001:0004bf87       mexUnlock_800              000000018004cf87 f   libmex:libmex.dll
 0001:0004bf8d       mexIsLocked_800            000000018004cf8d f   libmex:libmex.dll
 0001:0004bf93       utMalloc                   000000018004cf93 f   libut:libut.dll
 0001:0004bf99       utFree                     000000018004cf99 f   libut:libut.dll
 0001:0004bf9f       muDoubleScalarFloor        000000018004cf9f f   libmwmathutil:libmwmathutil.dll
 0001:0004bfa5       muDoubleScalarRound        000000018004cfa5 f   libmwmathutil:libmwmathutil.dll
 0001:0004bfab       muDoubleScalarLog          000000018004cfab f   libmwmathutil:libmwmathutil.dll
 0001:0004bfb1       muSingleScalarRound        000000018004cfb1 f   libmwmathutil:libmwmathutil.dll
 0001:0004bfb7       muSingleScalarSqrt         000000018004cfb7 f   libmwmathutil:libmwmathutil.dll
 0001:0004bfbd       muSingleScalarIsNaN        000000018004cfbd f   libmwmathutil:libmwmathutil.dll
 0001:0004bfc3       muSingleScalarIsInf        000000018004cfc3 f   libmwmathutil:libmwmathutil.dll
 0001:0004bfc9       emlrtLicenseCheckR2012b    000000018004cfc9 f   libemlrt:libemlrt.dll
 0001:0004bfcf       emlrtDynamicBoundsCheckR2012b 000000018004cfcf f   libemlrt:libemlrt.dll
 0001:0004bfd5       emlrtSizeMulR2012b         000000018004cfd5 f   libemlrt:libemlrt.dll
 0001:0004bfdb       emlrtNonNegativeCheckR2012b 000000018004cfdb f   libemlrt:libemlrt.dll
 0001:0004bfe1       emlrtMallocMex             000000018004cfe1 f   libemlrt:libemlrt.dll
 0001:0004bfe7       emlrtCallocMex             000000018004cfe7 f   libemlrt:libemlrt.dll
 0001:0004bfed       emlrtFreeMex               000000018004cfed f   libemlrt:libemlrt.dll
 0001:0004bff3       emlrtHeapAllocationErrorR2012b 000000018004cff3 f   libemlrt:libemlrt.dll
 0001:0004bff9       emlrtSubAssignSizeCheckR2012b 000000018004cff9 f   libemlrt:libemlrt.dll
 0001:0004bfff       emlrtSubAssignSizeCheck1dR2017a 000000018004cfff f   libemlrt:libemlrt.dll
 0001:0004c005       covrtCreateStateflowInstanceData 000000018004d005 f   libcovrt:libcovrt.dll
 0001:0004c00b       covrtDeleteStateflowInstanceData 000000018004d00b f   libcovrt:libcovrt.dll
 0001:0004c011       covrtTransInitFcn          000000018004d011 f   libcovrt:libcovrt.dll
 0001:0004c017       covrtStateInitFcn          000000018004d017 f   libcovrt:libcovrt.dll
 0001:0004c01d       covrtChartInitFcn          000000018004d01d f   libcovrt:libcovrt.dll
 0001:0004c023       covrtSigUpdateFcn          000000018004d023 f   libcovrt:libcovrt.dll
 0001:0004c029       covrtEmlInitFcn            000000018004d029 f   libcovrt:libcovrt.dll
 0001:0004c02f       covrtEmlFcnInitFcn         000000018004d02f f   libcovrt:libcovrt.dll
 0001:0004c035       covrtEmlFcnEval            000000018004d035 f   libcovrt:libcovrt.dll
 0001:0004c03c       __raise_securityfailure    000000018004d03c f   MSVCRT:gs_report.obj
 0001:0004c070       __report_gsfailure         000000018004d070 f   MSVCRT:gs_report.obj
 0001:0004c144       __report_rangecheckfailure 000000018004d144 f   MSVCRT:gs_report.obj
 0001:0004c158       __report_securityfailure   000000018004d158 f   MSVCRT:gs_report.obj
 0001:0004c1f4       __report_securityfailureEx 000000018004d1f4 f   MSVCRT:gs_report.obj
 0001:0004c3e8       __GSHandlerCheck           000000018004d3e8 f   MSVCRT:gshandler.obj
 0001:0004c408       __GSHandlerCheckCommon     000000018004d408 f   MSVCRT:gshandler.obj
 0001:0004c480       __security_check_cookie    000000018004d480 f   MSVCRT:amdsecgs.obj
 0001:0004c4c0       _alloca_probe              000000018004d4c0 f   MSVCRT:chkstk.obj
 0001:0004c4c0       __chkstk                   000000018004d4c0 f   MSVCRT:chkstk.obj
 0001:0004c514       ??1type_info@@UEAA@XZ      000000018004d514 f   MSVCRT:std_type_info_static.obj
 0001:0004c520       ??_Etype_info@@UEAAPEAXI@Z 000000018004d520 f i MSVCRT:std_type_info_static.obj
 0001:0004c520       ??_Gtype_info@@UEAAPEAXI@Z 000000018004d520 f i MSVCRT:std_type_info_static.obj
 0001:0004c54c       ??2@YAPEAX_K@Z             000000018004d54c f   MSVCRT:new_scalar.obj
 0001:0004c588       ??3@YAXPEAX_K@Z            000000018004d588 f   MSVCRT:delete_scalar_size.obj
 0001:0004c590       ?configure_argv@__scrt_narrow_argv_policy@@SAHXZ 000000018004d590 f i MSVCRT:utility.obj
 0001:0004c5f0       ?initialize_environment@__scrt_narrow_environment_policy@@SAHXZ 000000018004d5f0 f i MSVCRT:utility.obj
 0001:0004c628       NtCurrentTeb               000000018004d628 f i MSVCRT:utility.obj
 0001:0004c634       __scrt_acquire_startup_lock 000000018004d634 f   MSVCRT:utility.obj
 0001:0004c670       __scrt_dllmain_after_initialize_c 000000018004d670 f   MSVCRT:utility.obj
 0001:0004c6a4       __scrt_dllmain_before_initialize_c 000000018004d6a4 f   MSVCRT:utility.obj
 0001:0004c6bc       __scrt_dllmain_crt_thread_attach 000000018004d6bc f   MSVCRT:utility.obj
 0001:0004c6e4       __scrt_dllmain_crt_thread_detach 000000018004d6e4 f   MSVCRT:utility.obj
 0001:0004c6fc       __scrt_dllmain_exception_filter 000000018004d6fc f   MSVCRT:utility.obj
 0001:0004c75c       __scrt_dllmain_uninitialize_c 000000018004d75c f   MSVCRT:utility.obj
 0001:0004c78c       __scrt_dllmain_uninitialize_critical 000000018004d78c f   MSVCRT:utility.obj
 0001:0004c7a0       __scrt_initialize_crt      000000018004d7a0 f   MSVCRT:utility.obj
 0001:0004c7ec       __scrt_initialize_onexit_tables 000000018004d7ec f   MSVCRT:utility.obj
 0001:0004c878       __scrt_is_nonwritable_in_current_image 000000018004d878 f   MSVCRT:utility.obj
 0001:0004c910       __scrt_release_startup_lock 000000018004d910 f   MSVCRT:utility.obj
 0001:0004c934       __scrt_uninitialize_crt    000000018004d934 f   MSVCRT:utility.obj
 0001:0004c960       _onexit                    000000018004d960 f   MSVCRT:utility.obj
 0001:0004c99c       at_quick_exit              000000018004d99c f   MSVCRT:utility.obj
 0001:0004c9bc       atexit                     000000018004d9bc f   MSVCRT:utility.obj
 0001:0004c9d4       __GSHandlerCheck_EH4       000000018004d9d4 f   MSVCRT:gshandlereh4.obj
 0001:0004cd90       _CRT_INIT                  000000018004dd90 f   MSVCRT:dll_dllmain.obj
 0001:0004cd98       _DllMainCRTStartup         000000018004dd98 f   MSVCRT:dll_dllmain.obj
 0001:0004cdd8       ??0bad_alloc@std@@QEAA@XZ  000000018004ddd8 f i MSVCRT:throw_bad_alloc.obj
 0001:0004cdf8       ?__scrt_throw_std_bad_alloc@@YAXXZ 000000018004ddf8 f   MSVCRT:throw_bad_alloc.obj
 0001:0004ce18       ?__scrt_throw_std_bad_array_new_length@@YAXXZ 000000018004de18 f   MSVCRT:throw_bad_alloc.obj
 0001:0004ce38       ??3@YAXPEAX@Z              000000018004de38 f   MSVCRT:delete_scalar.obj
 0001:0004ce40       __isa_available_init       000000018004de40 f   MSVCRT:cpu_disp.obj
 0001:0004cfe4       _get_startup_argv_mode     000000018004dfe4 f   MSVCRT:argv_mode.obj
 0001:0004cfec       __scrt_is_ucrt_dll_in_use  000000018004dfec f   MSVCRT:ucrt_detection.obj
 0001:0004cff8       __crt_debugger_hook        000000018004dff8 f   MSVCRT:utility_desktop.obj
 0001:0004d000       __scrt_fastfail            000000018004e000 f   MSVCRT:utility_desktop.obj
 0001:0004d14c       __scrt_get_show_window_mode 000000018004e14c f   MSVCRT:utility_desktop.obj
 0001:0004d188       __scrt_initialize_mta      000000018004e188 f   MSVCRT:utility_desktop.obj
 0001:0004d190       __scrt_initialize_winrt    000000018004e190 f   MSVCRT:utility_desktop.obj
 0001:0004d194       __scrt_is_managed_app      000000018004e194 f   MSVCRT:utility_desktop.obj
 0001:0004d1e8       __scrt_set_unhandled_exception_filter 000000018004e1e8 f   MSVCRT:utility_desktop.obj
 0001:0004d1f8       __scrt_exe_initialize_mta  000000018004e1f8 f   MSVCRT:utility_desktop.obj
 0001:0004d1f8       __scrt_stub_for_initialize_mta 000000018004e1f8 f   MSVCRT:utility_desktop.obj
 0001:0004d1fc       __scrt_unhandled_exception_filter 000000018004e1fc f   MSVCRT:utility_desktop.obj
 0001:0004d258       _guard_check_icall_nop     000000018004e258 f i MSVCRT:guard_support.obj
 0001:0004d25c       ReadNoFence64              000000018004e25c f i MSVCRT:guard_support.obj
 0001:0004d260       ReadPointerNoFence         000000018004e260 f i MSVCRT:guard_support.obj
 0001:0004d264       __castguard_check_failure_debugbreak 000000018004e264 f i MSVCRT:guard_support.obj
 0001:0004d280       __castguard_check_failure_fastfail 000000018004e280 f i MSVCRT:guard_support.obj
 0001:0004d2a4       __castguard_check_failure_nop 000000018004e2a4 f i MSVCRT:guard_support.obj
 0001:0004d2a8       __castguard_check_failure_os_handled 000000018004e2a8 f i MSVCRT:guard_support.obj
 0001:0004d308       __castguard_slow_path_check_debugbreak 000000018004e308 f i MSVCRT:guard_support.obj
 0001:0004d33c       __castguard_slow_path_check_fastfail 000000018004e33c f i MSVCRT:guard_support.obj
 0001:0004d378       __castguard_slow_path_check_nop 000000018004e378 f i MSVCRT:guard_support.obj
 0001:0004d37c       __castguard_slow_path_check_os_handled 000000018004e37c f i MSVCRT:guard_support.obj
 0001:0004d3f0       _guard_icall_checks_enforced 000000018004e3f0 f i MSVCRT:guard_support.obj
 0001:0004d408       _guard_rf_checks_enforced  000000018004e408 f i MSVCRT:guard_support.obj
 0001:0004d478       __security_init_cookie     000000018004e478 f   MSVCRT:gs_support.obj
 0001:0004d524       DllMain                    000000018004e524 f   MSVCRT:dll_dllmain_stub.obj
 0001:0004d548       ?__scrt_initialize_type_info@@YAXXZ 000000018004e548 f   MSVCRT:tncleanup.obj
 0001:0004d558       ?__scrt_uninitialize_type_info@@YAXXZ 000000018004e558 f   MSVCRT:tncleanup.obj
 0001:0004d564       __local_stdio_scanf_options 000000018004e564 f i MSVCRT:default_local_stdio_options.obj
 0001:0004d56c       __scrt_initialize_default_local_stdio_options 000000018004e56c f   MSVCRT:default_local_stdio_options.obj
 0001:0004d588       __scrt_get_dyn_tls_init_callback 000000018004e588 f   MSVCRT:dyn_tls_init.obj
 0001:0004d590       _RTC_Initialize            000000018004e590 f   MSVCRT:initsect.obj
 0001:0004d5cc       _RTC_Terminate             000000018004e5cc f   MSVCRT:initsect.obj
 0001:0004d610       ?_Xbad_alloc@std@@YAXXZ    000000018004e610 f   msvcprt:MSVCP140.dll
 0001:0004d616       ?_Xlength_error@std@@YAXPEBD@Z 000000018004e616 f   msvcprt:MSVCP140.dll
 0001:0004d61c       ?uncaught_exception@std@@YA_NXZ 000000018004e61c f   msvcprt:MSVCP140.dll
 0001:0004d622       _Mbrtowc                   000000018004e622 f   msvcprt:MSVCP140.dll
 0001:0004d628       ?_Getcvt@_Locinfo@std@@QEBA?AU_Cvtvec@@XZ 000000018004e628 f   msvcprt:MSVCP140.dll
 0001:0004d62e       ?_Getdays@_Locinfo@std@@QEBAPEBDXZ 000000018004e62e f   msvcprt:MSVCP140.dll
 0001:0004d634       ?_Getmonths@_Locinfo@std@@QEBAPEBDXZ 000000018004e634 f   msvcprt:MSVCP140.dll
 0001:0004d63a       ?_W_Getdays@_Locinfo@std@@QEBAPEBGXZ 000000018004e63a f   msvcprt:MSVCP140.dll
 0001:0004d640       ?_W_Getmonths@_Locinfo@std@@QEBAPEBGXZ 000000018004e640 f   msvcprt:MSVCP140.dll
 0001:0004d646       ?good@ios_base@std@@QEBA_NXZ 000000018004e646 f   msvcprt:MSVCP140.dll
 0001:0004d64c       ?flags@ios_base@std@@QEBAHXZ 000000018004e64c f   msvcprt:MSVCP140.dll
 0001:0004d652       ?width@ios_base@std@@QEBA_JXZ 000000018004e652 f   msvcprt:MSVCP140.dll
 0001:0004d658       ?width@ios_base@std@@QEAA_J_J@Z 000000018004e658 f   msvcprt:MSVCP140.dll
 0001:0004d65e       ?sputc@?$basic_streambuf@DU?$char_traits@D@std@@@std@@QEAAHD@Z 000000018004e65e f   msvcprt:MSVCP140.dll
 0001:0004d664       ?sputn@?$basic_streambuf@DU?$char_traits@D@std@@@std@@QEAA_JPEBD_J@Z 000000018004e664 f   msvcprt:MSVCP140.dll
 0001:0004d66a       ?setstate@?$basic_ios@DU?$char_traits@D@std@@@std@@QEAAXH_N@Z 000000018004e66a f   msvcprt:MSVCP140.dll
 0001:0004d670       ?tie@?$basic_ios@DU?$char_traits@D@std@@@std@@QEBAPEAV?$basic_ostream@DU?$char_traits@D@std@@@2@XZ 000000018004e670 f   msvcprt:MSVCP140.dll
 0001:0004d676       ?rdbuf@?$basic_ios@DU?$char_traits@D@std@@@std@@QEBAPEAV?$basic_streambuf@DU?$char_traits@D@std@@@2@XZ 000000018004e676 f   msvcprt:MSVCP140.dll
 0001:0004d67c       ?fill@?$basic_ios@DU?$char_traits@D@std@@@std@@QEBADXZ 000000018004e67c f   msvcprt:MSVCP140.dll
 0001:0004d682       ?_Osfx@?$basic_ostream@DU?$char_traits@D@std@@@std@@QEAAXXZ 000000018004e682 f   msvcprt:MSVCP140.dll
 0001:0004d688       ??6?$basic_ostream@DU?$char_traits@D@std@@@std@@QEAAAEAV01@_N@Z 000000018004e688 f   msvcprt:MSVCP140.dll
 0001:0004d68e       ??6?$basic_ostream@DU?$char_traits@D@std@@@std@@QEAAAEAV01@H@Z 000000018004e68e f   msvcprt:MSVCP140.dll
 0001:0004d694       ??6?$basic_ostream@DU?$char_traits@D@std@@@std@@QEAAAEAV01@I@Z 000000018004e694 f   msvcprt:MSVCP140.dll
 0001:0004d69a       ??6?$basic_ostream@DU?$char_traits@D@std@@@std@@QEAAAEAV01@M@Z 000000018004e69a f   msvcprt:MSVCP140.dll
 0001:0004d6a0       ?flush@?$basic_ostream@DU?$char_traits@D@std@@@std@@QEAAAEAV12@XZ 000000018004e6a0 f   msvcprt:MSVCP140.dll
 0001:0004d6a6       _Mtx_init_in_situ          000000018004e6a6 f   msvcprt:MSVCP140.dll
 0001:0004d6ac       _Mtx_destroy_in_situ       000000018004e6ac f   msvcprt:MSVCP140.dll
 0001:0004d6b2       _Mtx_lock                  000000018004e6b2 f   msvcprt:MSVCP140.dll
 0001:0004d6b8       _Mtx_unlock                000000018004e6b8 f   msvcprt:MSVCP140.dll
 0001:0004d6be       ?_Throw_C_error@std@@YAXH@Z 000000018004e6be f   msvcprt:MSVCP140.dll
 0001:0004d6c4       RtlCaptureContext          000000018004e6c4 f   kernel32:KERNEL32.dll
 0001:0004d6ca       RtlLookupFunctionEntry     000000018004e6ca f   kernel32:KERNEL32.dll
 0001:0004d6d0       RtlVirtualUnwind           000000018004e6d0 f   kernel32:KERNEL32.dll
 0001:0004d6d6       UnhandledExceptionFilter   000000018004e6d6 f   kernel32:KERNEL32.dll
 0001:0004d6dc       SetUnhandledExceptionFilter 000000018004e6dc f   kernel32:KERNEL32.dll
 0001:0004d6e2       GetCurrentProcess          000000018004e6e2 f   kernel32:KERNEL32.dll
 0001:0004d6e8       TerminateProcess           000000018004e6e8 f   kernel32:KERNEL32.dll
 0001:0004d6ee       IsProcessorFeaturePresent  000000018004e6ee f   kernel32:KERNEL32.dll
 0001:0004d6f4       IsDebuggerPresent          000000018004e6f4 f   kernel32:KERNEL32.dll
 0001:0004d6fa       GetStartupInfoW            000000018004e6fa f   kernel32:KERNEL32.dll
 0001:0004d700       GetModuleHandleW           000000018004e700 f   kernel32:KERNEL32.dll
 0001:0004d706       QueryPerformanceCounter    000000018004e706 f   kernel32:KERNEL32.dll
 0001:0004d70c       GetCurrentProcessId        000000018004e70c f   kernel32:KERNEL32.dll
 0001:0004d712       GetCurrentThreadId         000000018004e712 f   kernel32:KERNEL32.dll
 0001:0004d718       GetSystemTimeAsFileTime    000000018004e718 f   kernel32:KERNEL32.dll
 0001:0004d71e       DisableThreadLibraryCalls  000000018004e71e f   kernel32:KERNEL32.dll
 0001:0004d724       InitializeSListHead        000000018004e724 f   kernel32:KERNEL32.dll
 0001:0004d72a       memcpy                     000000018004e72a f   vcruntime:VCRUNTIME140.dll
 0001:0004d730       memset                     000000018004e730 f   vcruntime:VCRUNTIME140.dll
 0001:0004d736       _purecall                  000000018004e736 f   vcruntime:VCRUNTIME140.dll
 0001:0004d73c       memmove                    000000018004e73c f   vcruntime:VCRUNTIME140.dll
 0001:0004d742       __std_exception_copy       000000018004e742 f   vcruntime:VCRUNTIME140.dll
 0001:0004d748       __std_exception_destroy    000000018004e748 f   vcruntime:VCRUNTIME140.dll
 0001:0004d74e       _CxxThrowException         000000018004e74e f   vcruntime:VCRUNTIME140.dll
 0001:0004d754       __CxxFrameHandler4         000000018004e754 f   vcruntime:VCRUNTIME140_1.dll
 0001:0004d75a       __std_type_info_compare    000000018004e75a f   vcruntime:VCRUNTIME140.dll
 0001:0004d760       __C_specific_handler       000000018004e760 f   vcruntime:VCRUNTIME140.dll
 0001:0004d766       __current_exception        000000018004e766 f   vcruntime:VCRUNTIME140.dll
 0001:0004d76c       __current_exception_context 000000018004e76c f   vcruntime:VCRUNTIME140.dll
 0001:0004d772       __std_type_info_destroy_list 000000018004e772 f   vcruntime:VCRUNTIME140.dll
 0001:0004d778       strcmp                     000000018004e778 f   ucrt:api-ms-win-crt-string-l1-1-0.dll
 0001:0004d77e       strcat                     000000018004e77e f   ucrt:api-ms-win-crt-string-l1-1-0.dll
 0001:0004d784       frexp                      000000018004e784 f   ucrt:api-ms-win-crt-math-l1-1-0.dll
 0001:0004d78a       __stdio_common_vsprintf    000000018004e78a f   ucrt:api-ms-win-crt-stdio-l1-1-0.dll
 0001:0004d790       free                       000000018004e790 f   ucrt:api-ms-win-crt-heap-l1-1-0.dll
 0001:0004d796       malloc                     000000018004e796 f   ucrt:api-ms-win-crt-heap-l1-1-0.dll
 0001:0004d79c       strlen                     000000018004e79c f   ucrt:api-ms-win-crt-string-l1-1-0.dll
 0001:0004d7a2       _invalid_parameter_noinfo_noreturn 000000018004e7a2 f   ucrt:api-ms-win-crt-runtime-l1-1-0.dll
 0001:0004d7a8       calloc                     000000018004e7a8 f   ucrt:api-ms-win-crt-heap-l1-1-0.dll
 0001:0004d7ae       wcslen                     000000018004e7ae f   ucrt:api-ms-win-crt-string-l1-1-0.dll
 0001:0004d7b4       abs                        000000018004e7b4 f   ucrt:api-ms-win-crt-utility-l1-1-0.dll
 0001:0004d7ba       fabs                       000000018004e7ba f   ucrt:api-ms-win-crt-math-l1-1-0.dll
 0001:0004d7c0       sqrt                       000000018004e7c0 f   ucrt:api-ms-win-crt-math-l1-1-0.dll
 0001:0004d7c6       cosf                       000000018004e7c6 f   ucrt:api-ms-win-crt-math-l1-1-0.dll
 0001:0004d7cc       sinf                       000000018004e7cc f   ucrt:api-ms-win-crt-math-l1-1-0.dll
 0001:0004d7d2       _wassert                   000000018004e7d2 f   ucrt:api-ms-win-crt-runtime-l1-1-0.dll
 0001:0004d7d8       _callnewh                  000000018004e7d8 f   ucrt:api-ms-win-crt-heap-l1-1-0.dll
 0001:0004d7de       _seh_filter_dll            000000018004e7de f   ucrt:api-ms-win-crt-runtime-l1-1-0.dll
 0001:0004d7e4       _configure_narrow_argv     000000018004e7e4 f   ucrt:api-ms-win-crt-runtime-l1-1-0.dll
 0001:0004d7ea       _initialize_narrow_environment 000000018004e7ea f   ucrt:api-ms-win-crt-runtime-l1-1-0.dll
 0001:0004d7f0       _initialize_onexit_table   000000018004e7f0 f   ucrt:api-ms-win-crt-runtime-l1-1-0.dll
 0001:0004d7f6       _register_onexit_function  000000018004e7f6 f   ucrt:api-ms-win-crt-runtime-l1-1-0.dll
 0001:0004d7fc       _execute_onexit_table      000000018004e7fc f   ucrt:api-ms-win-crt-runtime-l1-1-0.dll
 0001:0004d802       _crt_atexit                000000018004e802 f   ucrt:api-ms-win-crt-runtime-l1-1-0.dll
 0001:0004d808       _crt_at_quick_exit         000000018004e808 f   ucrt:api-ms-win-crt-runtime-l1-1-0.dll
 0001:0004d80e       _cexit                     000000018004e80e f   ucrt:api-ms-win-crt-runtime-l1-1-0.dll
 0001:0004d814       _initterm                  000000018004e814 f   ucrt:api-ms-win-crt-runtime-l1-1-0.dll
 0001:0004d81a       _initterm_e                000000018004e81a f   ucrt:api-ms-win-crt-runtime-l1-1-0.dll
 0001:0004d820       terminate                  000000018004e820 f   ucrt:api-ms-win-crt-runtime-l1-1-0.dll
 0001:0004d828       __acrt_initialize          000000018004e828 f   MSVCRT:ucrt_stubs.obj
 0001:0004d828       __scrt_stub_for_acrt_initialize 000000018004e828 f   MSVCRT:ucrt_stubs.obj
 0001:0004d828       __vcrt_initialize          000000018004e828 f   MSVCRT:ucrt_stubs.obj
 0001:0004d82c       __acrt_thread_attach       000000018004e82c f   MSVCRT:ucrt_stubs.obj
 0001:0004d82c       __vcrt_thread_attach       000000018004e82c f   MSVCRT:ucrt_stubs.obj
 0001:0004d82c       __scrt_stub_for_acrt_thread_attach 000000018004e82c f   MSVCRT:ucrt_stubs.obj
 0001:0004d830       __acrt_thread_detach       000000018004e830 f   MSVCRT:ucrt_stubs.obj
 0001:0004d830       __scrt_stub_for_acrt_thread_detach 000000018004e830 f   MSVCRT:ucrt_stubs.obj
 0001:0004d830       __vcrt_thread_detach       000000018004e830 f   MSVCRT:ucrt_stubs.obj
 0001:0004d834       __vcrt_uninitialize        000000018004e834 f   MSVCRT:ucrt_stubs.obj
 0001:0004d834       __acrt_uninitialize        000000018004e834 f   MSVCRT:ucrt_stubs.obj
 0001:0004d834       __scrt_stub_for_acrt_uninitialize 000000018004e834 f   MSVCRT:ucrt_stubs.obj
 0001:0004d838       __scrt_stub_for_acrt_uninitialize_critical 000000018004e838 f   MSVCRT:ucrt_stubs.obj
 0001:0004d838       __vcrt_uninitialize_critical 000000018004e838 f   MSVCRT:ucrt_stubs.obj
 0001:0004d838       __acrt_uninitialize_critical 000000018004e838 f   MSVCRT:ucrt_stubs.obj
 0001:0004d83c       __scrt_stub_for_is_c_termination_complete 000000018004e83c f   MSVCRT:ucrt_stubs.obj
 0001:0004d83c       _is_c_termination_complete 000000018004e83c f   MSVCRT:ucrt_stubs.obj
 0001:0004d850       _guard_dispatch_icall_nop  000000018004e850 f   MSVCRT:guard_dispatch.obj
 0001:0004d870       _guard_xfg_dispatch_icall_nop 000000018004e870 f   MSVCRT:guard_xfg_dispatch.obj
 0002:00000000       __imp_RtlVirtualUnwind     0000000180050000     kernel32:KERNEL32.dll
 0002:00000008       __imp_InitializeSListHead  0000000180050008     kernel32:KERNEL32.dll
 0002:00000010       __imp_DisableThreadLibraryCalls 0000000180050010     kernel32:KERNEL32.dll
 0002:00000018       __imp_GetSystemTimeAsFileTime 0000000180050018     kernel32:KERNEL32.dll
 0002:00000020       __imp_GetCurrentThreadId   0000000180050020     kernel32:KERNEL32.dll
 0002:00000028       __imp_GetCurrentProcessId  0000000180050028     kernel32:KERNEL32.dll
 0002:00000030       __imp_QueryPerformanceCounter 0000000180050030     kernel32:KERNEL32.dll
 0002:00000038       __imp_GetModuleHandleW     0000000180050038     kernel32:KERNEL32.dll
 0002:00000040       __imp_GetStartupInfoW      0000000180050040     kernel32:KERNEL32.dll
 0002:00000048       __imp_IsDebuggerPresent    0000000180050048     kernel32:KERNEL32.dll
 0002:00000050       __imp_IsProcessorFeaturePresent 0000000180050050     kernel32:KERNEL32.dll
 0002:00000058       __imp_TerminateProcess     0000000180050058     kernel32:KERNEL32.dll
 0002:00000060       __imp_GetCurrentProcess    0000000180050060     kernel32:KERNEL32.dll
 0002:00000068       __imp_SetUnhandledExceptionFilter 0000000180050068     kernel32:KERNEL32.dll
 0002:00000070       __imp_UnhandledExceptionFilter 0000000180050070     kernel32:KERNEL32.dll
 0002:00000078       __imp_RtlLookupFunctionEntry 0000000180050078     kernel32:KERNEL32.dll
 0002:00000080       __imp_RtlCaptureContext    0000000180050080     kernel32:KERNEL32.dll
 0002:00000088       \177KERNEL32_NULL_THUNK_DATA 0000000180050088     kernel32:KERNEL32.dll
 0002:00000090       __imp_?fill@?$basic_ios@DU?$char_traits@D@std@@@std@@QEBADXZ 0000000180050090     msvcprt:MSVCP140.dll
 0002:00000098       __imp_?_Osfx@?$basic_ostream@DU?$char_traits@D@std@@@std@@QEAAXXZ 0000000180050098     msvcprt:MSVCP140.dll
 0002:000000a0       __imp_??6?$basic_ostream@DU?$char_traits@D@std@@@std@@QEAAAEAV01@_N@Z 00000001800500a0     msvcprt:MSVCP140.dll
 0002:000000a8       __imp_??6?$basic_ostream@DU?$char_traits@D@std@@@std@@QEAAAEAV01@H@Z 00000001800500a8     msvcprt:MSVCP140.dll
 0002:000000b0       __imp_??6?$basic_ostream@DU?$char_traits@D@std@@@std@@QEAAAEAV01@I@Z 00000001800500b0     msvcprt:MSVCP140.dll
 0002:000000b8       __imp_?rdbuf@?$basic_ios@DU?$char_traits@D@std@@@std@@QEBAPEAV?$basic_streambuf@DU?$char_traits@D@std@@@2@XZ 00000001800500b8     msvcprt:MSVCP140.dll
 0002:000000c0       __imp_?flush@?$basic_ostream@DU?$char_traits@D@std@@@std@@QEAAAEAV12@XZ 00000001800500c0     msvcprt:MSVCP140.dll
 0002:000000c8       __imp__Mtx_init_in_situ    00000001800500c8     msvcprt:MSVCP140.dll
 0002:000000d0       __imp__Mtx_destroy_in_situ 00000001800500d0     msvcprt:MSVCP140.dll
 0002:000000d8       __imp__Mtx_lock            00000001800500d8     msvcprt:MSVCP140.dll
 0002:000000e0       __imp__Mtx_unlock          00000001800500e0     msvcprt:MSVCP140.dll
 0002:000000e8       __imp_?_Throw_C_error@std@@YAXH@Z 00000001800500e8     msvcprt:MSVCP140.dll
 0002:000000f0       __imp_?tie@?$basic_ios@DU?$char_traits@D@std@@@std@@QEBAPEAV?$basic_ostream@DU?$char_traits@D@std@@@2@XZ 00000001800500f0     msvcprt:MSVCP140.dll
 0002:000000f8       __imp_?setstate@?$basic_ios@DU?$char_traits@D@std@@@std@@QEAAXH_N@Z 00000001800500f8     msvcprt:MSVCP140.dll
 0002:00000100       __imp_?sputn@?$basic_streambuf@DU?$char_traits@D@std@@@std@@QEAA_JPEBD_J@Z 0000000180050100     msvcprt:MSVCP140.dll
 0002:00000108       __imp_?sputc@?$basic_streambuf@DU?$char_traits@D@std@@@std@@QEAAHD@Z 0000000180050108     msvcprt:MSVCP140.dll
 0002:00000110       __imp_?width@ios_base@std@@QEAA_J_J@Z 0000000180050110     msvcprt:MSVCP140.dll
 0002:00000118       __imp_?width@ios_base@std@@QEBA_JXZ 0000000180050118     msvcprt:MSVCP140.dll
 0002:00000120       __imp_?flags@ios_base@std@@QEBAHXZ 0000000180050120     msvcprt:MSVCP140.dll
 0002:00000128       __imp_?good@ios_base@std@@QEBA_NXZ 0000000180050128     msvcprt:MSVCP140.dll
 0002:00000130       __imp_?_W_Getmonths@_Locinfo@std@@QEBAPEBGXZ 0000000180050130     msvcprt:MSVCP140.dll
 0002:00000138       __imp_?_W_Getdays@_Locinfo@std@@QEBAPEBGXZ 0000000180050138     msvcprt:MSVCP140.dll
 0002:00000140       __imp_?_Getmonths@_Locinfo@std@@QEBAPEBDXZ 0000000180050140     msvcprt:MSVCP140.dll
 0002:00000148       __imp__Mbrtowc             0000000180050148     msvcprt:MSVCP140.dll
 0002:00000150       __imp_?uncaught_exception@std@@YA_NXZ 0000000180050150     msvcprt:MSVCP140.dll
 0002:00000158       __imp_?_Xlength_error@std@@YAXPEBD@Z 0000000180050158     msvcprt:MSVCP140.dll
 0002:00000160       __imp_?_Xbad_alloc@std@@YAXXZ 0000000180050160     msvcprt:MSVCP140.dll
 0002:00000168       __imp_?_Getdays@_Locinfo@std@@QEBAPEBDXZ 0000000180050168     msvcprt:MSVCP140.dll
 0002:00000170       __imp_??6?$basic_ostream@DU?$char_traits@D@std@@@std@@QEAAAEAV01@M@Z 0000000180050170     msvcprt:MSVCP140.dll
 0002:00000178       __imp_?_Getcvt@_Locinfo@std@@QEBA?AU_Cvtvec@@XZ 0000000180050178     msvcprt:MSVCP140.dll
 0002:00000180       \177MSVCP140_NULL_THUNK_DATA 0000000180050180     msvcprt:MSVCP140.dll
 0002:00000188       __imp__CxxThrowException   0000000180050188     vcruntime:VCRUNTIME140.dll
 0002:00000190       __imp_memmove              0000000180050190     vcruntime:VCRUNTIME140.dll
 0002:00000198       __imp__purecall            0000000180050198     vcruntime:VCRUNTIME140.dll
 0002:000001a0       __imp_memset               00000001800501a0     vcruntime:VCRUNTIME140.dll
 0002:000001a8       __imp_memcpy               00000001800501a8     vcruntime:VCRUNTIME140.dll
 0002:000001b0       __imp___std_exception_copy 00000001800501b0     vcruntime:VCRUNTIME140.dll
 0002:000001b8       __imp___std_type_info_compare 00000001800501b8     vcruntime:VCRUNTIME140.dll
 0002:000001c0       __imp___C_specific_handler 00000001800501c0     vcruntime:VCRUNTIME140.dll
 0002:000001c8       __imp___current_exception  00000001800501c8     vcruntime:VCRUNTIME140.dll
 0002:000001d0       __imp___current_exception_context 00000001800501d0     vcruntime:VCRUNTIME140.dll
 0002:000001d8       __imp___std_type_info_destroy_list 00000001800501d8     vcruntime:VCRUNTIME140.dll
 0002:000001e0       __imp___std_exception_destroy 00000001800501e0     vcruntime:VCRUNTIME140.dll
 0002:000001e8       \177VCRUNTIME140_NULL_THUNK_DATA 00000001800501e8     vcruntime:VCRUNTIME140.dll
 0002:000001f0       __imp___CxxFrameHandler4   00000001800501f0     vcruntime:VCRUNTIME140_1.dll
 0002:000001f8       \177VCRUNTIME140_1_NULL_THUNK_DATA 00000001800501f8     vcruntime:VCRUNTIME140_1.dll
 0002:00000200       __imp__callnewh            0000000180050200     ucrt:api-ms-win-crt-heap-l1-1-0.dll
 0002:00000208       __imp_calloc               0000000180050208     ucrt:api-ms-win-crt-heap-l1-1-0.dll
 0002:00000210       __imp_free                 0000000180050210     ucrt:api-ms-win-crt-heap-l1-1-0.dll
 0002:00000218       __imp_malloc               0000000180050218     ucrt:api-ms-win-crt-heap-l1-1-0.dll
 0002:00000220       \177api-ms-win-crt-heap-l1-1-0_NULL_THUNK_DATA 0000000180050220     ucrt:api-ms-win-crt-heap-l1-1-0.dll
 0002:00000228       __imp_sqrt                 0000000180050228     ucrt:api-ms-win-crt-math-l1-1-0.dll
 0002:00000230       __imp_fabs                 0000000180050230     ucrt:api-ms-win-crt-math-l1-1-0.dll
 0002:00000238       __imp_frexp                0000000180050238     ucrt:api-ms-win-crt-math-l1-1-0.dll
 0002:00000240       __imp_cosf                 0000000180050240     ucrt:api-ms-win-crt-math-l1-1-0.dll
 0002:00000248       __imp_sinf                 0000000180050248     ucrt:api-ms-win-crt-math-l1-1-0.dll
 0002:00000250       \177api-ms-win-crt-math-l1-1-0_NULL_THUNK_DATA 0000000180050250     ucrt:api-ms-win-crt-math-l1-1-0.dll
 0002:00000258       __imp__invalid_parameter_noinfo_noreturn 0000000180050258     ucrt:api-ms-win-crt-runtime-l1-1-0.dll
 0002:00000260       __imp_terminate            0000000180050260     ucrt:api-ms-win-crt-runtime-l1-1-0.dll
 0002:00000268       __imp__initterm            0000000180050268     ucrt:api-ms-win-crt-runtime-l1-1-0.dll
 0002:00000270       __imp__initterm_e          0000000180050270     ucrt:api-ms-win-crt-runtime-l1-1-0.dll
 0002:00000278       __imp__wassert             0000000180050278     ucrt:api-ms-win-crt-runtime-l1-1-0.dll
 0002:00000280       __imp__cexit               0000000180050280     ucrt:api-ms-win-crt-runtime-l1-1-0.dll
 0002:00000288       __imp__seh_filter_dll      0000000180050288     ucrt:api-ms-win-crt-runtime-l1-1-0.dll
 0002:00000290       __imp__configure_narrow_argv 0000000180050290     ucrt:api-ms-win-crt-runtime-l1-1-0.dll
 0002:00000298       __imp__crt_at_quick_exit   0000000180050298     ucrt:api-ms-win-crt-runtime-l1-1-0.dll
 0002:000002a0       __imp__initialize_onexit_table 00000001800502a0     ucrt:api-ms-win-crt-runtime-l1-1-0.dll
 0002:000002a8       __imp__register_onexit_function 00000001800502a8     ucrt:api-ms-win-crt-runtime-l1-1-0.dll
 0002:000002b0       __imp__execute_onexit_table 00000001800502b0     ucrt:api-ms-win-crt-runtime-l1-1-0.dll
 0002:000002b8       __imp__crt_atexit          00000001800502b8     ucrt:api-ms-win-crt-runtime-l1-1-0.dll
 0002:000002c0       __imp__initialize_narrow_environment 00000001800502c0     ucrt:api-ms-win-crt-runtime-l1-1-0.dll
 0002:000002c8       \177api-ms-win-crt-runtime-l1-1-0_NULL_THUNK_DATA 00000001800502c8     ucrt:api-ms-win-crt-runtime-l1-1-0.dll
 0002:000002d0       __imp___stdio_common_vsprintf 00000001800502d0     ucrt:api-ms-win-crt-stdio-l1-1-0.dll
 0002:000002d8       \177api-ms-win-crt-stdio-l1-1-0_NULL_THUNK_DATA 00000001800502d8     ucrt:api-ms-win-crt-stdio-l1-1-0.dll
 0002:000002e0       __imp_strcat               00000001800502e0     ucrt:api-ms-win-crt-string-l1-1-0.dll
 0002:000002e8       __imp_strcmp               00000001800502e8     ucrt:api-ms-win-crt-string-l1-1-0.dll
 0002:000002f0       __imp_strlen               00000001800502f0     ucrt:api-ms-win-crt-string-l1-1-0.dll
 0002:000002f8       __imp_wcslen               00000001800502f8     ucrt:api-ms-win-crt-string-l1-1-0.dll
 0002:00000300       \177api-ms-win-crt-string-l1-1-0_NULL_THUNK_DATA 0000000180050300     ucrt:api-ms-win-crt-string-l1-1-0.dll
 0002:00000308       __imp_abs                  0000000180050308     ucrt:api-ms-win-crt-utility-l1-1-0.dll
 0002:00000310       \177api-ms-win-crt-utility-l1-1-0_NULL_THUNK_DATA 0000000180050310     ucrt:api-ms-win-crt-utility-l1-1-0.dll
 0002:00000318       __imp_covrtEmlInitFcn      0000000180050318     libcovrt:libcovrt.dll
 0002:00000320       __imp_covrtDeleteStateflowInstanceData 0000000180050320     libcovrt:libcovrt.dll
 0002:00000328       __imp_covrtTransInitFcn    0000000180050328     libcovrt:libcovrt.dll
 0002:00000330       __imp_covrtStateInitFcn    0000000180050330     libcovrt:libcovrt.dll
 0002:00000338       __imp_covrtChartInitFcn    0000000180050338     libcovrt:libcovrt.dll
 0002:00000340       __imp_covrtEmlFcnEval      0000000180050340     libcovrt:libcovrt.dll
 0002:00000348       __imp_covrtEmlFcnInitFcn   0000000180050348     libcovrt:libcovrt.dll
 0002:00000350       __imp_covrtCreateStateflowInstanceData 0000000180050350     libcovrt:libcovrt.dll
 0002:00000358       __imp_covrtSigUpdateFcn    0000000180050358     libcovrt:libcovrt.dll
 0002:00000360       \177libcovrt_NULL_THUNK_DATA 0000000180050360     libcovrt:libcovrt.dll
 0002:00000368       __imp_emlrtNonNegativeCheckR2012b 0000000180050368     libemlrt:libemlrt.dll
 0002:00000370       __imp_emlrtMallocMex       0000000180050370     libemlrt:libemlrt.dll
 0002:00000378       __imp_emlrtCallocMex       0000000180050378     libemlrt:libemlrt.dll
 0002:00000380       __imp_emlrtSizeMulR2012b   0000000180050380     libemlrt:libemlrt.dll
 0002:00000388       __imp_emlrtFreeMex         0000000180050388     libemlrt:libemlrt.dll
 0002:00000390       __imp_emlrtLicenseCheckR2012b 0000000180050390     libemlrt:libemlrt.dll
 0002:00000398       __imp_emlrtHeapAllocationErrorR2012b 0000000180050398     libemlrt:libemlrt.dll
 0002:000003a0       __imp_emlrtSubAssignSizeCheckR2012b 00000001800503a0     libemlrt:libemlrt.dll
 0002:000003a8       __imp_emlrtSubAssignSizeCheck1dR2017a 00000001800503a8     libemlrt:libemlrt.dll
 0002:000003b0       __imp_emlrtDynamicBoundsCheckR2012b 00000001800503b0     libemlrt:libemlrt.dll
 0002:000003b8       \177libemlrt_NULL_THUNK_DATA 00000001800503b8     libemlrt:libemlrt.dll
 0002:000003c0       __imp_mexLock_800          00000001800503c0     libmex:libmex.dll
 0002:000003c8       __imp_mexCallMATLAB_800    00000001800503c8     libmex:libmex.dll
 0002:000003d0       __imp_mexWarnMsgTxt_800    00000001800503d0     libmex:libmex.dll
 0002:000003d8       __imp_mexErrMsgTxt_800     00000001800503d8     libmex:libmex.dll
 0002:000003e0       __imp_mexMakeArrayPersistent_800 00000001800503e0     libmex:libmex.dll
 0002:000003e8       __imp_mexIsLocked_800      00000001800503e8     libmex:libmex.dll
 0002:000003f0       __imp_mexUnlock_800        00000001800503f0     libmex:libmex.dll
 0002:000003f8       \177libmex_NULL_THUNK_DATA 00000001800503f8     libmex:libmex.dll
 0002:00000400       __imp_ComputeMetric_ssd_single 0000000180050400     libmwComputeMetric:libmwComputeMetric.dll
 0002:00000408       \177libmwComputeMetric_NULL_THUNK_DATA 0000000180050408     libmwComputeMetric:libmwComputeMetric.dll
 0002:00000410       __imp_jpegreader_uint8     0000000180050410     libmwjpegreader:libmwjpegreader.dll
 0002:00000418       \177libmwjpegreader_NULL_THUNK_DATA 0000000180050418     libmwjpegreader:libmwjpegreader.dll
 0002:00000420       __imp_muDoubleScalarFloor  0000000180050420     libmwmathutil:libmwmathutil.dll
 0002:00000428       __imp_muSingleScalarRound  0000000180050428     libmwmathutil:libmwmathutil.dll
 0002:00000430       __imp_muSingleScalarSqrt   0000000180050430     libmwmathutil:libmwmathutil.dll
 0002:00000438       __imp_muSingleScalarIsInf  0000000180050438     libmwmathutil:libmwmathutil.dll
 0002:00000440       __imp_muDoubleScalarRound  0000000180050440     libmwmathutil:libmwmathutil.dll
 0002:00000448       __imp_muSingleScalarIsNaN  0000000180050448     libmwmathutil:libmwmathutil.dll
 0002:00000450       __imp_muDoubleScalarLog    0000000180050450     libmwmathutil:libmwmathutil.dll
 0002:00000458       \177libmwmathutil_NULL_THUNK_DATA 0000000180050458     libmwmathutil:libmwmathutil.dll
 0002:00000460       __imp_rgb2gray_tbb_uint8   0000000180050460     libmwrgb2gray_tbb:libmwrgb2gray_tbb.dll
 0002:00000468       \177libmwrgb2gray_tbb_NULL_THUNK_DATA 0000000180050468     libmwrgb2gray_tbb:libmwrgb2gray_tbb.dll
 0002:00000470       __imp_mxIsChar_800         0000000180050470     libmx:libmx.dll
 0002:00000478       __imp_mxGetScalar_800      0000000180050478     libmx:libmx.dll
 0002:00000480       __imp_mxCreateDoubleScalar_800 0000000180050480     libmx:libmx.dll
 0002:00000488       __imp_mxGetN_800           0000000180050488     libmx:libmx.dll
 0002:00000490       __imp_mxIsComplex_800      0000000180050490     libmx:libmx.dll
 0002:00000498       __imp_mxIsNumeric_800      0000000180050498     libmx:libmx.dll
 0002:000004a0       __imp_mxGetClassID_800     00000001800504a0     libmx:libmx.dll
 0002:000004a8       __imp_mxGetM_800           00000001800504a8     libmx:libmx.dll
 0002:000004b0       __imp_mxCalloc_800         00000001800504b0     libmx:libmx.dll
 0002:000004b8       __imp_mxGetNaN_800         00000001800504b8     libmx:libmx.dll
 0002:000004c0       __imp_mxGetInf_800         00000001800504c0     libmx:libmx.dll
 0002:000004c8       __imp_mxCreateStructMatrix_800 00000001800504c8     libmx:libmx.dll
 0002:000004d0       __imp_mxCreateCellMatrix_800 00000001800504d0     libmx:libmx.dll
 0002:000004d8       __imp_mxCreateString_800   00000001800504d8     libmx:libmx.dll
 0002:000004e0       __imp_mxSetField_800       00000001800504e0     libmx:libmx.dll
 0002:000004e8       __imp_mxSetCell_800        00000001800504e8     libmx:libmx.dll
 0002:000004f0       __imp_mxDuplicateArray_800 00000001800504f0     libmx:libmx.dll
 0002:000004f8       __imp_mxGetString_800      00000001800504f8     libmx:libmx.dll
 0002:00000500       __imp_mxCreateDoubleMatrix_800 0000000180050500     libmx:libmx.dll
 0002:00000508       __imp_mxDestroyArray_800   0000000180050508     libmx:libmx.dll
 0002:00000510       __imp_mxGetPr_800          0000000180050510     libmx:libmx.dll
 0002:00000518       \177libmx_NULL_THUNK_DATA  0000000180050518     libmx:libmx.dll
 0002:00000520       __imp_utFree               0000000180050520     libut:libut.dll
 0002:00000528       __imp_utMalloc             0000000180050528     libut:libut.dll
 0002:00000530       \177libut_NULL_THUNK_DATA  0000000180050530     libut:libut.dll
 0002:00000538       __imp_?fastFree@cv@@YAXPEAX@Z 0000000180050538     opencv_core420:opencv_core420.dll
 0002:00000540       __imp_?error@cv@@YAXHAEBV?$basic_string@DU?$char_traits@D@std@@V?$allocator@D@2@@std@@PEBD1H@Z 0000000180050540     opencv_core420:opencv_core420.dll
 0002:00000548       __imp_?deallocate@Mat@cv@@QEAAXXZ 0000000180050548     opencv_core420:opencv_core420.dll
 0002:00000550       __imp_?copySize@Mat@cv@@QEAAXAEBV12@@Z 0000000180050550     opencv_core420:opencv_core420.dll
 0002:00000558       __imp_?updateContinuityFlag@Mat@cv@@QEAAXXZ 0000000180050558     opencv_core420:opencv_core420.dll
 0002:00000560       __imp_?fastAtan2@cv@@YAMMM@Z 0000000180050560     opencv_core420:opencv_core420.dll
 0002:00000568       __imp_?getMat_@_InputArray@cv@@QEBA?AVMat@2@H@Z 0000000180050568     opencv_core420:opencv_core420.dll
 0002:00000570       __imp_?kind@_InputArray@cv@@QEBA?AW4KindFlag@12@XZ 0000000180050570     opencv_core420:opencv_core420.dll
 0002:00000578       __imp_?type@_InputArray@cv@@QEBAHH@Z 0000000180050578     opencv_core420:opencv_core420.dll
 0002:00000580       __imp_?needed@_OutputArray@cv@@QEBA_NXZ 0000000180050580     opencv_core420:opencv_core420.dll
 0002:00000588       __imp_?create@_OutputArray@cv@@QEBAXHHHH_NW4DepthMask@12@@Z 0000000180050588     opencv_core420:opencv_core420.dll
 0002:00000590       __imp_?noArray@cv@@YAAEBV_InputOutputArray@1@XZ 0000000180050590     opencv_core420:opencv_core420.dll
 0002:00000598       __imp_??0Mat@cv@@QEAA@AEBV01@AEBVRange@1@1@Z 0000000180050598     opencv_core420:opencv_core420.dll
 0002:000005a0       __imp_?copyTo@Mat@cv@@QEBAXAEBV_OutputArray@2@@Z 00000001800505a0     opencv_core420:opencv_core420.dll
 0002:000005a8       __imp_?reshape@Mat@cv@@QEBA?AV12@HH@Z 00000001800505a8     opencv_core420:opencv_core420.dll
 0002:000005b0       __imp_?create@Mat@cv@@QEAAXHPEBHH@Z 00000001800505b0     opencv_core420:opencv_core420.dll
 0002:000005b8       __imp_?min@cv@@YAXAEBV_InputArray@1@0AEBV_OutputArray@1@@Z 00000001800505b8     opencv_core420:opencv_core420.dll
 0002:000005c0       __imp_??0Algorithm@cv@@QEAA@XZ 00000001800505c0     opencv_core420:opencv_core420.dll
 0002:000005c8       __imp_??1Algorithm@cv@@UEAA@XZ 00000001800505c8     opencv_core420:opencv_core420.dll
 0002:000005d0       __imp_?save@Algorithm@cv@@UEBAXAEBV?$basic_string@DU?$char_traits@D@std@@V?$allocator@D@2@@std@@@Z 00000001800505d0     opencv_core420:opencv_core420.dll
 0002:000005d8       __imp_??1ParallelLoopBody@cv@@UEAA@XZ 00000001800505d8     opencv_core420:opencv_core420.dll
 0002:000005e0       __imp_?parallel_for_@cv@@YAXAEBVRange@1@AEBVParallelLoopBody@1@N@Z 00000001800505e0     opencv_core420:opencv_core420.dll
 0002:000005e8       __imp_cvCreateMat          00000001800505e8     opencv_core420:opencv_core420.dll
 0002:000005f0       __imp_cvCartToPolar        00000001800505f0     opencv_core420:opencv_core420.dll
 0002:000005f8       __imp_??R?$DefaultDeleter@UCvMat@@@cv@@QEBAXPEAUCvMat@@@Z 00000001800505f8     opencv_core420:opencv_core420.dll
 0002:00000600       \177opencv_core420_NULL_THUNK_DATA 0000000180050600     opencv_core420:opencv_core420.dll
 0002:00000608       __imp_??1Feature2D@cv@@UEAA@XZ 0000000180050608     opencv_features2d420:opencv_features2d420.dll
 0002:00000610       __imp_?detect@Feature2D@cv@@UEAAXAEBV_InputArray@2@AEAV?$vector@VKeyPoint@cv@@V?$allocator@VKeyPoint@cv@@@std@@@std@@0@Z 0000000180050610     opencv_features2d420:opencv_features2d420.dll
 0002:00000618       __imp_?detect@Feature2D@cv@@UEAAXAEBV_InputArray@2@AEAV?$vector@V?$vector@VKeyPoint@cv@@V?$allocator@VKeyPoint@cv@@@std@@@std@@V?$allocator@V?$vector@VKeyPoint@cv@@V?$allocator@VKeyPoint@cv@@@std@@@std@@@2@@std@@0@Z 0000000180050618     opencv_features2d420:opencv_features2d420.dll
 0002:00000620       __imp_?compute@Feature2D@cv@@UEAAXAEBV_InputArray@2@AEAV?$vector@VKeyPoint@cv@@V?$allocator@VKeyPoint@cv@@@std@@@std@@AEBV_OutputArray@2@@Z 0000000180050620     opencv_features2d420:opencv_features2d420.dll
 0002:00000628       __imp_?compute@Feature2D@cv@@UEAAXAEBV_InputArray@2@AEAV?$vector@V?$vector@VKeyPoint@cv@@V?$allocator@VKeyPoint@cv@@@std@@@std@@V?$allocator@V?$vector@VKeyPoint@cv@@V?$allocator@VKeyPoint@cv@@@std@@@std@@@2@@std@@AEBV_OutputArray@2@@Z 0000000180050628     opencv_features2d420:opencv_features2d420.dll
 0002:00000630       __imp_?detectAndCompute@Feature2D@cv@@UEAAXAEBV_InputArray@2@0AEAV?$vector@VKeyPoint@cv@@V?$allocator@VKeyPoint@cv@@@std@@@std@@AEBV_OutputArray@2@_N@Z 0000000180050630     opencv_features2d420:opencv_features2d420.dll
 0002:00000638       __imp_?descriptorSize@Feature2D@cv@@UEBAHXZ 0000000180050638     opencv_features2d420:opencv_features2d420.dll
 0002:00000640       __imp_?descriptorType@Feature2D@cv@@UEBAHXZ 0000000180050640     opencv_features2d420:opencv_features2d420.dll
 0002:00000648       __imp_?defaultNorm@Feature2D@cv@@UEBAHXZ 0000000180050648     opencv_features2d420:opencv_features2d420.dll
 0002:00000650       __imp_?write@Feature2D@cv@@UEBAXAEAVFileStorage@2@@Z 0000000180050650     opencv_features2d420:opencv_features2d420.dll
 0002:00000658       __imp_?read@Feature2D@cv@@UEAAXAEBVFileNode@2@@Z 0000000180050658     opencv_features2d420:opencv_features2d420.dll
 0002:00000660       __imp_?empty@Feature2D@cv@@UEBA_NXZ 0000000180050660     opencv_features2d420:opencv_features2d420.dll
 0002:00000668       __imp_?getDefaultName@Feature2D@cv@@UEBA?AV?$basic_string@DU?$char_traits@D@std@@V?$allocator@D@2@@std@@XZ 0000000180050668     opencv_features2d420:opencv_features2d420.dll
 0002:00000670       \177opencv_features2d420_NULL_THUNK_DATA 0000000180050670     opencv_features2d420:opencv_features2d420.dll
 0002:00000678       __imp_?resize@cv@@YAXAEBV_InputArray@1@AEBV_OutputArray@1@V?$Size_@H@1@NNH@Z 0000000180050678     opencv_imgproc420:opencv_imgproc420.dll
 0002:00000680       __imp_?integral@cv@@YAXAEBV_InputArray@1@AEBV_OutputArray@1@H@Z 0000000180050680     opencv_imgproc420:opencv_imgproc420.dll
 0002:00000688       __imp_?cvtColor@cv@@YAXAEBV_InputArray@1@AEBV_OutputArray@1@HH@Z 0000000180050688     opencv_imgproc420:opencv_imgproc420.dll
 0002:00000690       __imp_?getGaussianKernel@cv@@YA?AVMat@1@HNH@Z 0000000180050690     opencv_imgproc420:opencv_imgproc420.dll
 0002:00000698       \177opencv_imgproc420_NULL_THUNK_DATA 0000000180050698     opencv_imgproc420:opencv_imgproc420.dll
 0002:000006a0       __imp_sfrtGetCovrtInstance 00000001800506a0     sf_runtime:sf_runtime.dll
 0002:000006a8       __imp_sf_get_chart_instance_ptr 00000001800506a8     sf_runtime:sf_runtime.dll
 0002:000006b0       __imp_sim_mode_is_rtw_gen  00000001800506b0     sf_runtime:sf_runtime.dll
 0002:000006b8       __imp_sf_free_ChartRunTimeInfo 00000001800506b8     sf_runtime:sf_runtime.dll
 0002:000006c0       __imp_sf_clear_error_manager_info 00000001800506c0     sf_runtime:sf_runtime.dll
 0002:000006c8       __imp_sf_get_time          00000001800506c8     sf_runtime:sf_runtime.dll
 0002:000006d0       __imp_sfDoAnimationWrapper 00000001800506d0     sf_runtime:sf_runtime.dll
 0002:000006d8       __imp_setDataBrowseFcn     00000001800506d8     sf_runtime:sf_runtime.dll
 0002:000006e0       __imp_sfrtGetEmlrtCtx      00000001800506e0     sf_runtime:sf_runtime.dll
 0002:000006e8       __imp_sf_init_ChartRunTimeInfo 00000001800506e8     sf_runtime:sf_runtime.dll
 0002:000006f0       __imp_sf_mex_decode        00000001800506f0     sf_runtime:sf_runtime.dll
 0002:000006f8       __imp_sf_load_rtw_optimization_info 00000001800506f8     sf_runtime:sf_runtime.dll
 0002:00000700       __imp_sim_mode_is_external 0000000180050700     sf_runtime:sf_runtime.dll
 0002:00000708       __imp_setLegacyDebuggerFlag 0000000180050708     sf_runtime:sf_runtime.dll
 0002:00000710       __imp_setDebuggerFlag      0000000180050710     sf_runtime:sf_runtime.dll
 0002:00000718       __imp_sf_warn_if_symbolic_dimension_param_changed 0000000180050718     sf_runtime:sf_runtime.dll
 0002:00000720       __imp_sf_set_work_widths   0000000180050720     sf_runtime:sf_runtime.dll
 0002:00000728       __imp_sfListenerCacheSimStruct 0000000180050728     sf_runtime:sf_runtime.dll
 0002:00000730       __imp_sfListenerLightTerminate 0000000180050730     sf_runtime:sf_runtime.dll
 0002:00000738       __imp_sfListenerInitializeRuntimeVars 0000000180050738     sf_runtime:sf_runtime.dll
 0002:00000740       __imp_sf_mex_call          0000000180050740     sf_runtime:sf_runtime.dll
 0002:00000748       __imp_sf_mex_error_message 0000000180050748     sf_runtime:sf_runtime.dll
 0002:00000750       __imp_sf_mex_create        0000000180050750     sf_runtime:sf_runtime.dll
 0002:00000758       __imp_sf_mex_createcellmatrix 0000000180050758     sf_runtime:sf_runtime.dll
 0002:00000760       __imp_sf_mex_setcell       0000000180050760     sf_runtime:sf_runtime.dll
 0002:00000768       __imp_sf_mex_getcell       0000000180050768     sf_runtime:sf_runtime.dll
 0002:00000770       __imp_sf_mex_assign        0000000180050770     sf_runtime:sf_runtime.dll
 0002:00000778       __imp_sf_mex_dup           0000000180050778     sf_runtime:sf_runtime.dll
 0002:00000780       __imp_sf_mex_destroy       0000000180050780     sf_runtime:sf_runtime.dll
 0002:00000788       __imp_sf_mex_import        0000000180050788     sf_runtime:sf_runtime.dll
 0002:00000790       __imp_ssGetInputPortSignal_wrapper 0000000180050790     sf_runtime:sf_runtime.dll
 0002:00000798       __imp_ssGetOutputPortSignal_wrapper 0000000180050798     sf_runtime:sf_runtime.dll
 0002:000007a0       __imp_sf_data_saturate_error 00000001800507a0     sf_runtime:sf_runtime.dll
 0002:000007a8       __imp_sf_get_ChartInfoStruct_CodeGen 00000001800507a8     sf_runtime:sf_runtime.dll
 0002:000007b0       __imp_sf_get_hasSeparateUpdateOutputs 00000001800507b0     sf_runtime:sf_runtime.dll
 0002:000007b8       __imp_callMdlMethodAndReportError 00000001800507b8     sf_runtime:sf_runtime.dll
 0002:000007c0       __imp_call_sf_machine_global_method_dispatcher 00000001800507c0     sf_runtime:sf_runtime.dll
 0002:000007c8       __imp_getRuntimeInstanceInfoAsVoid 00000001800507c8     sf_runtime:sf_runtime.dll
 0002:000007d0       __imp_sf_mex_error_direct_call 00000001800507d0     sf_runtime:sf_runtime.dll
 0002:000007d8       __imp_sf_clear_rtw_identifier 00000001800507d8     sf_runtime:sf_runtime.dll
 0002:000007e0       \177sf_runtime_NULL_THUNK_DATA 00000001800507e0     sf_runtime:sf_runtime.dll
 0002:000007e8       __guard_check_icall_fptr   00000001800507e8     MSVCRT:guard_support.obj
 0002:000007f0       __guard_xfg_check_icall_fptr 00000001800507f0     MSVCRT:guard_support.obj
 0002:000007f8       __guard_dispatch_icall_fptr 00000001800507f8     MSVCRT:guard_support.obj
 0002:00000800       __guard_xfg_dispatch_icall_fptr 0000000180050800     MSVCRT:guard_support.obj
 0002:00000808       __guard_xfg_table_dispatch_icall_fptr 0000000180050808     MSVCRT:guard_support.obj
 0002:00000810       __xc_a                     0000000180050810     MSVCRT:initializers.obj
 0002:00000868       __xc_z                     0000000180050868     MSVCRT:initializers.obj
 0002:00000870       __xi_a                     0000000180050870     MSVCRT:initializers.obj
 0002:00000878       __xi_z                     0000000180050878     MSVCRT:initializers.obj
 0002:00000880       __xp_a                     0000000180050880     MSVCRT:initializers.obj
 0002:00000888       __xp_z                     0000000180050888     MSVCRT:initializers.obj
 0002:00000890       __xt_a                     0000000180050890     MSVCRT:initializers.obj
 0002:00000898       __xt_z                     0000000180050898     MSVCRT:initializers.obj
 0002:000008a0       __real@4185e22fd0000000    00000001800508a0     flightControlSystem_sfun.obj
 0002:000008a8       __real@41b92f8712000000    00000001800508a8     flightControlSystem_sfun.obj
 0002:000008b0       __real@41bad2f744000000    00000001800508b0     flightControlSystem_sfun.obj
 0002:000008b8       __real@41d7b4486e800000    00000001800508b8     flightControlSystem_sfun.obj
 0002:000008c0       __real@41daa0c87dc00000    00000001800508c0     flightControlSystem_sfun.obj
 0002:000008c8       __real@41db46d8f3400000    00000001800508c8     flightControlSystem_sfun.obj
 0002:000008d0       __real@41dfdb59d5800000    00000001800508d0     flightControlSystem_sfun.obj
 0002:000008d8       __real@41e22504a8a00000    00000001800508d8     flightControlSystem_sfun.obj
 0002:000008e0       __real@41e3f2a9e2200000    00000001800508e0     flightControlSystem_sfun.obj
 0002:000008e8       __real@41e3fa3198000000    00000001800508e8     flightControlSystem_sfun.obj
 0002:000008f0       __real@41e662e0cac00000    00000001800508f0     flightControlSystem_sfun.obj
 0002:000008f8       __real@41eb514984600000    00000001800508f8     flightControlSystem_sfun.obj
 0002:00000ac8       __real@0000000000000000    0000000180050ac8     c4_flightControlSystem.obj
 0002:00000ad0       __real@34000000            0000000180050ad0     c4_flightControlSystem.obj
 0002:00000ad4       __real@358637bd            0000000180050ad4     c4_flightControlSystem.obj
 0002:00000ad8       __real@3d23d70a            0000000180050ad8     c4_flightControlSystem.obj
 0002:00000adc       __real@3f800000            0000000180050adc     c4_flightControlSystem.obj
 0002:00000ae0       __real@3fe0000000000000    0000000180050ae0     c4_flightControlSystem.obj
 0002:00000ae8       __real@3fe3333333333333    0000000180050ae8     c4_flightControlSystem.obj
 0002:00000af0       __real@3fe62e42fefa39ef    0000000180050af0     c4_flightControlSystem.obj
 0002:00000af8       __real@3fe8000000000000    0000000180050af8     c4_flightControlSystem.obj
 0002:00000b00       __real@3ff0000000000000    0000000180050b00     c4_flightControlSystem.obj
 0002:00000b08       __real@3ff999999999999a    0000000180050b08     c4_flightControlSystem.obj
 0002:00000b10       __real@4000000000000000    0000000180050b10     c4_flightControlSystem.obj
 0002:00000b18       __real@4008000000000000    0000000180050b18     c4_flightControlSystem.obj
 0002:00000b20       __real@4020000000000000    0000000180050b20     c4_flightControlSystem.obj
 0002:00000b28       __real@407f400000000000    0000000180050b28     c4_flightControlSystem.obj
 0002:00000b30       __real@40c90fdb            0000000180050b30     c4_flightControlSystem.obj
 0002:00000b38       __real@40d2c00000000000    0000000180050b38     c4_flightControlSystem.obj
 0002:00000b40       __real@40e8b82000000000    0000000180050b40     c4_flightControlSystem.obj
 0002:00000b48       __real@41c470fdcf800000    0000000180050b48     c4_flightControlSystem.obj
 0002:00000b50       __real@41c962c047800000    0000000180050b50     c4_flightControlSystem.obj
 0002:00000b58       __real@41d1e631b5c00000    0000000180050b58     c4_flightControlSystem.obj
 0002:00000b60       __real@41e4b2c112400000    0000000180050b60     c4_flightControlSystem.obj
 0002:00000b68       __real@41f0000000000000    0000000180050b68     c4_flightControlSystem.obj
 0002:00000b70       __real@43000000            0000000180050b70     c4_flightControlSystem.obj
 0002:00000b78       __real@bff0000000000000    0000000180050b78     c4_flightControlSystem.obj
 0002:00000b80       __real@c3000000            0000000180050b80     c4_flightControlSystem.obj
 0002:00000b90       __xmm@80000000000000008000000000000000 0000000180050b90     c4_flightControlSystem.obj
 0002:00000ba0       DYNAMIC_DIMENSION_DEF      0000000180050ba0     flightControlSystem_sfun_registry.obj
 0002:00000bb8       __real@4010000000000000    0000000180050bb8     flightControlSystem_sfun_registry.obj
 0002:00000bc0       __real@41602cbca0000000    0000000180050bc0     flightControlSystem_sfun_registry.obj
 0002:00001db8       ??_7?$small_any_policy@H@anyimpl@cvflann@@6B@ 0000000180051db8     extractSurfCore.obj
 0002:00001e10       ??_7?$small_any_policy@M@anyimpl@cvflann@@6B@ 0000000180051e10     extractSurfCore.obj
 0002:00001e68       ??_7?$small_any_policy@_N@anyimpl@cvflann@@6B@ 0000000180051e68     extractSurfCore.obj
 0002:00001ec0       ??_7?$small_any_policy@I@anyimpl@cvflann@@6B@ 0000000180051ec0     extractSurfCore.obj
 0002:00001f18       ??_7?$big_any_policy@W4flann_centers_init_t@cvflann@@@anyimpl@cvflann@@6B@ 0000000180051f18     extractSurfCore.obj
 0002:00001f70       ??_7?$big_any_policy@W4flann_algorithm_t@cvflann@@@anyimpl@cvflann@@6B@ 0000000180051f70     extractSurfCore.obj
 0002:00001fc8       ??_7?$big_any_policy@V?$basic_string@DU?$char_traits@D@std@@V?$allocator@D@2@@std@@@anyimpl@cvflann@@6B@ 0000000180051fc8     extractSurfCore.obj
 0002:00002020       ??_7?$big_any_policy@Uempty_any@anyimpl@cvflann@@@anyimpl@cvflann@@6B@ 0000000180052020     extractSurfCore.obj
 0002:00002078       ??_7?$small_any_policy@PEBD@anyimpl@cvflann@@6B@ 0000000180052078     extractSurfCore.obj
 0002:000020d0       ??_7exception@std@@6B@     00000001800520d0     extractSurfCore.obj
 0002:000020e0       ??_C@_0BC@EOODALEL@Unknown?5exception@ 00000001800520e0     extractSurfCore.obj
 0002:00002100       ??_7bad_alloc@std@@6B@     0000000180052100     extractSurfCore.obj
 0002:00002118       ??_7bad_array_new_length@std@@6B@ 0000000180052118     extractSurfCore.obj
 0002:00002128       ??_C@_0BF@KINCDENJ@bad?5array?5new?5length@ 0000000180052128     extractSurfCore.obj
 0002:00002140       ??_C@_0BA@JFNIOLAK@string?5too?5long@ 0000000180052140     extractSurfCore.obj
 0002:00002150       ??_C@_0GJ@GFKGBAFA@C?3?2Program?5Files?2MATLAB?2R2021a?2@ 0000000180052150     extractSurfCore.obj
 0002:000021c0       ??_C@_0N@DDCCIDDE@cv?3?3Mat?3?3Mat@ 00000001800521c0     extractSurfCore.obj
 0002:000021d0       ??_C@_0BN@EEFOKAEN@total?$CI?$CJ?5?$DN?$DN?50?5?$HM?$HM?5data?5?$CB?$DN?5NULL@ 00000001800521d0     extractSurfCore.obj
 0002:000021f0       ??_C@_0CA@LBFJDOIG@Step?5must?5be?5a?5multiple?5of?5esz1@ 00000001800521f0     extractSurfCore.obj
 0002:00002210       ??_C@_0M@LLFGKPEG@?$FLempty_any?$FN@ 0000000180052210     extractSurfCore.obj
 0002:00002228       ??_7base_any_policy@anyimpl@cvflann@@6B@ 0000000180052228     extractSurfCore.obj
 0002:00002278       ??_C@_0N@LPFKKEBD@?3AM?3am?3PM?3pm@ 0000000180052278     extractSurfCore.obj
 0002:00002288       ??_C@_0BA@FOIKENOD@vector?5too?5long@ 0000000180052288     extractSurfCore.obj
 0002:00002298       ??_C@_1BK@MHIKGOKE@?$AA?3?$AAA?$AAM?$AA?3?$AAa?$AAm?$AA?3?$AAP?$AAM?$AA?3?$AAp?$AAm@ 0000000180052298     extractSurfCore.obj
 0002:000022c0       ??_7?$_Ref_count_obj2@VMWSURF@cv@@@std@@6B@ 00000001800522c0     extractSurfCore.obj
 0002:000022e0       __real@00000000            00000001800522e0     extractSurfCore.obj
 0002:000022e4       __real@3c8efa35            00000001800522e4     extractSurfCore.obj
 0002:000022e8       __real@3e088889            00000001800522e8     extractSurfCore.obj
 0002:00004570       ??_7ParallelLoopBody@cv@@6B@ 0000000180054570     mwsurf.obj
 0002:00004588       ??_7Feature2D@cv@@6B01@@   0000000180054588     mwsurf.obj
 0002:000045d0       ??_7Feature2D@cv@@6BAlgorithm@1@@ 00000001800545d0     mwsurf.obj
 0002:00004608       ??_8Feature2D@cv@@7B@      0000000180054608     mwsurf.obj
 0002:00004618       ??_7MWSURF@cv@@6BFeature2D@1@@ 0000000180054618     mwsurf.obj
 0002:00004660       ??_7MWSURF@cv@@6BAlgorithm@1@@ 0000000180054660     mwsurf.obj
 0002:00004698       ??_8MWSURF@cv@@7B@         0000000180054698     mwsurf.obj
 0002:000046a8       ??_7MWSURFBuildInvoker@cv@@6B@ 00000001800546a8     mwsurf.obj
 0002:000046c0       ??_7MWSURFFindInvoker@cv@@6B@ 00000001800546c0     mwsurf.obj
 0002:000046d8       ??_7MWSURFInvoker@cv@@6B@  00000001800546d8     mwsurf.obj
 0002:000046f0       ??_C@_0EK@NHDMHELI@C?3?2Program?5Files?2MATLAB?2R2021a?2@ 00000001800546f0     mwsurf.obj
 0002:00004740       ??_C@_0CB@LLEJHCBJ@cv?3?3MWSURFInvoker?3?3MWSURFInvoke@ 0000000180054740     mwsurf.obj
 0002:00004768       ??_C@_0BP@PPFGGEHI@nOriSamples?5?$DM?$DN?5nOriSampleBound@ 0000000180054768     mwsurf.obj
 0002:00004788       ??_C@_0BP@HLCNBEFL@cv?3?3MWSURFInvoker?3?3operator?5?$CI?$CJ@ 0000000180054788     mwsurf.obj
 0002:000047a8       ??_C@_0CC@EEHLCAKH@winbuf?9?$DOcols?5?$DO?$DN?5win_size?$CKwin_si@ 00000001800547a8     mwsurf.obj
 0002:000047d8       ??_7?$_Ref_count_resource@PEAUCvMat@@U?$DefaultDeleter@UCvMat@@@cv@@@std@@6B@ 00000001800547d8     mwsurf.obj
 0002:000047f8       __real@3cb0000000000000    00000001800547f8     mwsurf.obj
 0002:00004800       __real@3f000000            0000000180054800     mwsurf.obj
 0002:00004804       __real@3f4f5c29            0000000180054804     mwsurf.obj
 0002:00004808       __real@3f99999a            0000000180054808     mwsurf.obj
 0002:0000480c       __real@40000000            000000018005480c     mwsurf.obj
 0002:00004810       __real@4004000000000000    0000000180054810     mwsurf.obj
 0002:00004818       __real@400a666660000000    0000000180054818     mwsurf.obj
 0002:00004820       __real@4059000000000000    0000000180054820     mwsurf.obj
 0002:00004828       __real@40800000            0000000180054828     mwsurf.obj
 0002:0000482c       __real@41100000            000000018005482c     mwsurf.obj
 0002:00004830       __real@41a80000            0000000180054830     mwsurf.obj
 0002:00004834       __real@43870000            0000000180054834     mwsurf.obj
 0002:00004838       __real@bf000000            0000000180054838     mwsurf.obj
 0002:0000483c       __real@bf800000            000000018005483c     mwsurf.obj
 0002:00004840       __xmm@80000000800000008000000080000000 0000000180054840     mwsurf.obj
 0002:000059a0       __real@77800000            00000001800559a0     half_type.obj
 0002:000059c0       ??_7type_info@@6B@         00000001800559c0     MSVCRT:std_type_info_static.obj
 0002:000059d0       __xmm@ffffffffffffffffffffffffffffffff 00000001800559d0     MSVCRT:utility.obj
 0002:000059e0       _pRawDllMain               00000001800559e0     MSVCRT:dll_dllmain.obj
 0002:000059e0       _pDefaultRawDllMain        00000001800559e0     MSVCRT:dll_dllmain.obj
 0002:000059e8       ??_C@_0P@GHFPNOJB@bad?5allocation@ 00000001800559e8     MSVCRT:throw_bad_alloc.obj
 0002:00005a20       _load_config_used          0000000180055a20     MSVCRT:loadcfg.obj
 0002:00005b80       __CastGuardVftablesStart   0000000180055b80     MSVCRT:guard_support.obj
 0002:00005b88       __CastGuardVftablesEnd     0000000180055b88     MSVCRT:guard_support.obj
 0002:00005b90       ??_R3base_any_policy@anyimpl@cvflann@@8 0000000180055b90     extractSurfCore.obj
 0002:00005ba8       ??_R2base_any_policy@anyimpl@cvflann@@8 0000000180055ba8     extractSurfCore.obj
 0002:00005bb8       ??_R1A@?0A@EA@base_any_policy@anyimpl@cvflann@@8 0000000180055bb8     extractSurfCore.obj
 0002:00005be0       ??_R4?$big_any_policy@W4flann_centers_init_t@cvflann@@@anyimpl@cvflann@@6B@ 0000000180055be0     extractSurfCore.obj
 0002:00005c08       ??_R3?$big_any_policy@W4flann_centers_init_t@cvflann@@@anyimpl@cvflann@@8 0000000180055c08     extractSurfCore.obj
 0002:00005c20       ??_R2?$big_any_policy@W4flann_centers_init_t@cvflann@@@anyimpl@cvflann@@8 0000000180055c20     extractSurfCore.obj
 0002:00005c40       ??_R1A@?0A@EA@?$big_any_policy@W4flann_centers_init_t@cvflann@@@anyimpl@cvflann@@8 0000000180055c40     extractSurfCore.obj
 0002:00005c68       ??_R1A@?0A@EA@?$typed_base_any_policy@W4flann_centers_init_t@cvflann@@@anyimpl@cvflann@@8 0000000180055c68     extractSurfCore.obj
 0002:00005c90       ??_R3?$typed_base_any_policy@W4flann_centers_init_t@cvflann@@@anyimpl@cvflann@@8 0000000180055c90     extractSurfCore.obj
 0002:00005ca8       ??_R2?$typed_base_any_policy@W4flann_centers_init_t@cvflann@@@anyimpl@cvflann@@8 0000000180055ca8     extractSurfCore.obj
 0002:00005cc0       ??_R4?$big_any_policy@W4flann_algorithm_t@cvflann@@@anyimpl@cvflann@@6B@ 0000000180055cc0     extractSurfCore.obj
 0002:00005ce8       ??_R3?$big_any_policy@W4flann_algorithm_t@cvflann@@@anyimpl@cvflann@@8 0000000180055ce8     extractSurfCore.obj
 0002:00005d00       ??_R2?$big_any_policy@W4flann_algorithm_t@cvflann@@@anyimpl@cvflann@@8 0000000180055d00     extractSurfCore.obj
 0002:00005d20       ??_R1A@?0A@EA@?$big_any_policy@W4flann_algorithm_t@cvflann@@@anyimpl@cvflann@@8 0000000180055d20     extractSurfCore.obj
 0002:00005d48       ??_R1A@?0A@EA@?$typed_base_any_policy@W4flann_algorithm_t@cvflann@@@anyimpl@cvflann@@8 0000000180055d48     extractSurfCore.obj
 0002:00005d70       ??_R3?$typed_base_any_policy@W4flann_algorithm_t@cvflann@@@anyimpl@cvflann@@8 0000000180055d70     extractSurfCore.obj
 0002:00005d88       ??_R2?$typed_base_any_policy@W4flann_algorithm_t@cvflann@@@anyimpl@cvflann@@8 0000000180055d88     extractSurfCore.obj
 0002:00005da0       ??_R4?$big_any_policy@V?$basic_string@DU?$char_traits@D@std@@V?$allocator@D@2@@std@@@anyimpl@cvflann@@6B@ 0000000180055da0     extractSurfCore.obj
 0002:00005dc8       ??_R3?$big_any_policy@V?$basic_string@DU?$char_traits@D@std@@V?$allocator@D@2@@std@@@anyimpl@cvflann@@8 0000000180055dc8     extractSurfCore.obj
 0002:00005de0       ??_R2?$big_any_policy@V?$basic_string@DU?$char_traits@D@std@@V?$allocator@D@2@@std@@@anyimpl@cvflann@@8 0000000180055de0     extractSurfCore.obj
 0002:00005e00       ??_R1A@?0A@EA@?$big_any_policy@V?$basic_string@DU?$char_traits@D@std@@V?$allocator@D@2@@std@@@anyimpl@cvflann@@8 0000000180055e00     extractSurfCore.obj
 0002:00005e28       ??_R1A@?0A@EA@?$typed_base_any_policy@V?$basic_string@DU?$char_traits@D@std@@V?$allocator@D@2@@std@@@anyimpl@cvflann@@8 0000000180055e28     extractSurfCore.obj
 0002:00005e50       ??_R3?$typed_base_any_policy@V?$basic_string@DU?$char_traits@D@std@@V?$allocator@D@2@@std@@@anyimpl@cvflann@@8 0000000180055e50     extractSurfCore.obj
 0002:00005e68       ??_R2?$typed_base_any_policy@V?$basic_string@DU?$char_traits@D@std@@V?$allocator@D@2@@std@@@anyimpl@cvflann@@8 0000000180055e68     extractSurfCore.obj
 0002:00005e80       ??_R4?$small_any_policy@H@anyimpl@cvflann@@6B@ 0000000180055e80     extractSurfCore.obj
 0002:00005ea8       ??_R3?$small_any_policy@H@anyimpl@cvflann@@8 0000000180055ea8     extractSurfCore.obj
 0002:00005ec0       ??_R2?$small_any_policy@H@anyimpl@cvflann@@8 0000000180055ec0     extractSurfCore.obj
 0002:00005ee0       ??_R1A@?0A@EA@?$small_any_policy@H@anyimpl@cvflann@@8 0000000180055ee0     extractSurfCore.obj
 0002:00005f08       ??_R1A@?0A@EA@?$typed_base_any_policy@H@anyimpl@cvflann@@8 0000000180055f08     extractSurfCore.obj
 0002:00005f30       ??_R3?$typed_base_any_policy@H@anyimpl@cvflann@@8 0000000180055f30     extractSurfCore.obj
 0002:00005f48       ??_R2?$typed_base_any_policy@H@anyimpl@cvflann@@8 0000000180055f48     extractSurfCore.obj
 0002:00005f60       ??_R4?$small_any_policy@I@anyimpl@cvflann@@6B@ 0000000180055f60     extractSurfCore.obj
 0002:00005f88       ??_R3?$small_any_policy@I@anyimpl@cvflann@@8 0000000180055f88     extractSurfCore.obj
 0002:00005fa0       ??_R2?$small_any_policy@I@anyimpl@cvflann@@8 0000000180055fa0     extractSurfCore.obj
 0002:00005fc0       ??_R1A@?0A@EA@?$small_any_policy@I@anyimpl@cvflann@@8 0000000180055fc0     extractSurfCore.obj
 0002:00005fe8       ??_R1A@?0A@EA@?$typed_base_any_policy@I@anyimpl@cvflann@@8 0000000180055fe8     extractSurfCore.obj
 0002:00006010       ??_R3?$typed_base_any_policy@I@anyimpl@cvflann@@8 0000000180056010     extractSurfCore.obj
 0002:00006028       ??_R2?$typed_base_any_policy@I@anyimpl@cvflann@@8 0000000180056028     extractSurfCore.obj
 0002:00006040       ??_R4?$small_any_policy@M@anyimpl@cvflann@@6B@ 0000000180056040     extractSurfCore.obj
 0002:00006068       ??_R3?$small_any_policy@M@anyimpl@cvflann@@8 0000000180056068     extractSurfCore.obj
 0002:00006080       ??_R2?$small_any_policy@M@anyimpl@cvflann@@8 0000000180056080     extractSurfCore.obj
 0002:000060a0       ??_R1A@?0A@EA@?$small_any_policy@M@anyimpl@cvflann@@8 00000001800560a0     extractSurfCore.obj
 0002:000060c8       ??_R1A@?0A@EA@?$typed_base_any_policy@M@anyimpl@cvflann@@8 00000001800560c8     extractSurfCore.obj
 0002:000060f0       ??_R3?$typed_base_any_policy@M@anyimpl@cvflann@@8 00000001800560f0     extractSurfCore.obj
 0002:00006108       ??_R2?$typed_base_any_policy@M@anyimpl@cvflann@@8 0000000180056108     extractSurfCore.obj
 0002:00006120       ??_R4?$small_any_policy@_N@anyimpl@cvflann@@6B@ 0000000180056120     extractSurfCore.obj
 0002:00006148       ??_R3?$small_any_policy@_N@anyimpl@cvflann@@8 0000000180056148     extractSurfCore.obj
 0002:00006160       ??_R2?$small_any_policy@_N@anyimpl@cvflann@@8 0000000180056160     extractSurfCore.obj
 0002:00006180       ??_R1A@?0A@EA@?$small_any_policy@_N@anyimpl@cvflann@@8 0000000180056180     extractSurfCore.obj
 0002:000061a8       ??_R1A@?0A@EA@?$typed_base_any_policy@_N@anyimpl@cvflann@@8 00000001800561a8     extractSurfCore.obj
 0002:000061d0       ??_R3?$typed_base_any_policy@_N@anyimpl@cvflann@@8 00000001800561d0     extractSurfCore.obj
 0002:000061e8       ??_R2?$typed_base_any_policy@_N@anyimpl@cvflann@@8 00000001800561e8     extractSurfCore.obj
 0002:00006200       ??_R4?$big_any_policy@Uempty_any@anyimpl@cvflann@@@anyimpl@cvflann@@6B@ 0000000180056200     extractSurfCore.obj
 0002:00006228       ??_R3?$big_any_policy@Uempty_any@anyimpl@cvflann@@@anyimpl@cvflann@@8 0000000180056228     extractSurfCore.obj
 0002:00006240       ??_R2?$big_any_policy@Uempty_any@anyimpl@cvflann@@@anyimpl@cvflann@@8 0000000180056240     extractSurfCore.obj
 0002:00006260       ??_R1A@?0A@EA@?$big_any_policy@Uempty_any@anyimpl@cvflann@@@anyimpl@cvflann@@8 0000000180056260     extractSurfCore.obj
 0002:00006288       ??_R1A@?0A@EA@?$typed_base_any_policy@Uempty_any@anyimpl@cvflann@@@anyimpl@cvflann@@8 0000000180056288     extractSurfCore.obj
 0002:000062b0       ??_R3?$typed_base_any_policy@Uempty_any@anyimpl@cvflann@@@anyimpl@cvflann@@8 00000001800562b0     extractSurfCore.obj
 0002:000062c8       ??_R2?$typed_base_any_policy@Uempty_any@anyimpl@cvflann@@@anyimpl@cvflann@@8 00000001800562c8     extractSurfCore.obj
 0002:000062e0       ??_R4?$small_any_policy@PEBD@anyimpl@cvflann@@6B@ 00000001800562e0     extractSurfCore.obj
 0002:00006308       ??_R3?$small_any_policy@PEBD@anyimpl@cvflann@@8 0000000180056308     extractSurfCore.obj
 0002:00006320       ??_R2?$small_any_policy@PEBD@anyimpl@cvflann@@8 0000000180056320     extractSurfCore.obj
 0002:00006340       ??_R1A@?0A@EA@?$small_any_policy@PEBD@anyimpl@cvflann@@8 0000000180056340     extractSurfCore.obj
 0002:00006368       ??_R1A@?0A@EA@?$typed_base_any_policy@PEBD@anyimpl@cvflann@@8 0000000180056368     extractSurfCore.obj
 0002:00006390       ??_R3?$typed_base_any_policy@PEBD@anyimpl@cvflann@@8 0000000180056390     extractSurfCore.obj
 0002:000063a8       ??_R2?$typed_base_any_policy@PEBD@anyimpl@cvflann@@8 00000001800563a8     extractSurfCore.obj
 0002:000063c0       ??_R4exception@std@@6B@    00000001800563c0     extractSurfCore.obj
 0002:000063e8       ??_R3exception@std@@8      00000001800563e8     extractSurfCore.obj
 0002:00006400       ??_R2exception@std@@8      0000000180056400     extractSurfCore.obj
 0002:00006410       ??_R1A@?0A@EA@exception@std@@8 0000000180056410     extractSurfCore.obj
 0002:00006438       ??_R4bad_alloc@std@@6B@    0000000180056438     extractSurfCore.obj
 0002:00006460       ??_R3bad_alloc@std@@8      0000000180056460     extractSurfCore.obj
 0002:00006478       ??_R2bad_alloc@std@@8      0000000180056478     extractSurfCore.obj
 0002:00006490       ??_R1A@?0A@EA@bad_alloc@std@@8 0000000180056490     extractSurfCore.obj
 0002:000064b8       ??_R4bad_array_new_length@std@@6B@ 00000001800564b8     extractSurfCore.obj
 0002:000064e0       ??_R3bad_array_new_length@std@@8 00000001800564e0     extractSurfCore.obj
 0002:000064f8       ??_R2bad_array_new_length@std@@8 00000001800564f8     extractSurfCore.obj
 0002:00006518       ??_R1A@?0A@EA@bad_array_new_length@std@@8 0000000180056518     extractSurfCore.obj
 0002:00006540       ??_R3_Ref_count_base@std@@8 0000000180056540     extractSurfCore.obj
 0002:00006558       ??_R2_Ref_count_base@std@@8 0000000180056558     extractSurfCore.obj
 0002:00006568       ??_R1A@?0A@EA@_Ref_count_base@std@@8 0000000180056568     extractSurfCore.obj
 0002:00006590       ??_R4base_any_policy@anyimpl@cvflann@@6B@ 0000000180056590     extractSurfCore.obj
 0002:000065b8       ??_R4?$_Ref_count_obj2@VMWSURF@cv@@@std@@6B@ 00000001800565b8     extractSurfCore.obj
 0002:000065e0       ??_R3?$_Ref_count_obj2@VMWSURF@cv@@@std@@8 00000001800565e0     extractSurfCore.obj
 0002:000065f8       ??_R2?$_Ref_count_obj2@VMWSURF@cv@@@std@@8 00000001800565f8     extractSurfCore.obj
 0002:00006610       ??_R1A@?0A@EA@?$_Ref_count_obj2@VMWSURF@cv@@@std@@8 0000000180056610     extractSurfCore.obj
 0002:00006638       ??_R4ParallelLoopBody@cv@@6B@ 0000000180056638     mwsurf.obj
 0002:00006660       ??_R3ParallelLoopBody@cv@@8 0000000180056660     mwsurf.obj
 0002:00006678       ??_R2ParallelLoopBody@cv@@8 0000000180056678     mwsurf.obj
 0002:00006688       ??_R1A@?0A@EA@ParallelLoopBody@cv@@8 0000000180056688     mwsurf.obj
 0002:000066b0       ??_R4Feature2D@cv@@6B01@@  00000001800566b0     mwsurf.obj
 0002:000066d8       ??_R3Feature2D@cv@@8       00000001800566d8     mwsurf.obj
 0002:000066f0       ??_R2Feature2D@cv@@8       00000001800566f0     mwsurf.obj
 0002:00006708       ??_R1A@?0A@EA@Feature2D@cv@@8 0000000180056708     mwsurf.obj
 0002:00006730       ??_R1A@73FA@Algorithm@cv@@8 0000000180056730     mwsurf.obj
 0002:00006758       ??_R3Algorithm@cv@@8       0000000180056758     mwsurf.obj
 0002:00006770       ??_R2Algorithm@cv@@8       0000000180056770     mwsurf.obj
 0002:00006780       ??_R1A@?0A@EA@Algorithm@cv@@8 0000000180056780     mwsurf.obj
 0002:000067a8       ??_R4Feature2D@cv@@6BAlgorithm@1@@ 00000001800567a8     mwsurf.obj
 0002:000067d0       ??_R4MWSURF@cv@@6BFeature2D@1@@ 00000001800567d0     mwsurf.obj
 0002:000067f8       ??_R3MWSURF@cv@@8          00000001800567f8     mwsurf.obj
 0002:00006810       ??_R2MWSURF@cv@@8          0000000180056810     mwsurf.obj
 0002:00006830       ??_R1A@?0A@EA@MWSURF@cv@@8 0000000180056830     mwsurf.obj
 0002:00006858       ??_R4MWSURF@cv@@6BAlgorithm@1@@ 0000000180056858     mwsurf.obj
 0002:00006880       ??_R4MWSURFBuildInvoker@cv@@6B@ 0000000180056880     mwsurf.obj
 0002:000068a8       ??_R3MWSURFBuildInvoker@cv@@8 00000001800568a8     mwsurf.obj
 0002:000068c0       ??_R2MWSURFBuildInvoker@cv@@8 00000001800568c0     mwsurf.obj
 0002:000068d8       ??_R1A@?0A@EA@MWSURFBuildInvoker@cv@@8 00000001800568d8     mwsurf.obj
 0002:00006900       ??_R4MWSURFFindInvoker@cv@@6B@ 0000000180056900     mwsurf.obj
 0002:00006928       ??_R3MWSURFFindInvoker@cv@@8 0000000180056928     mwsurf.obj
 0002:00006940       ??_R2MWSURFFindInvoker@cv@@8 0000000180056940     mwsurf.obj
 0002:00006958       ??_R1A@?0A@EA@MWSURFFindInvoker@cv@@8 0000000180056958     mwsurf.obj
 0002:00006980       ??_R4MWSURFInvoker@cv@@6B@ 0000000180056980     mwsurf.obj
 0002:000069a8       ??_R3MWSURFInvoker@cv@@8   00000001800569a8     mwsurf.obj
 0002:000069c0       ??_R2MWSURFInvoker@cv@@8   00000001800569c0     mwsurf.obj
 0002:000069d8       ??_R1A@?0A@EA@MWSURFInvoker@cv@@8 00000001800569d8     mwsurf.obj
 0002:00006a00       ??_R4?$_Ref_count_resource@PEAUCvMat@@U?$DefaultDeleter@UCvMat@@@cv@@@std@@6B@ 0000000180056a00     mwsurf.obj
 0002:00006a28       ??_R3?$_Ref_count_resource@PEAUCvMat@@U?$DefaultDeleter@UCvMat@@@cv@@@std@@8 0000000180056a28     mwsurf.obj
 0002:00006a40       ??_R2?$_Ref_count_resource@PEAUCvMat@@U?$DefaultDeleter@UCvMat@@@cv@@@std@@8 0000000180056a40     mwsurf.obj
 0002:00006a58       ??_R1A@?0A@EA@?$_Ref_count_resource@PEAUCvMat@@U?$DefaultDeleter@UCvMat@@@cv@@@std@@8 0000000180056a58     mwsurf.obj
 0002:00006a80       ??_R4type_info@@6B@        0000000180056a80     MSVCRT:std_type_info_static.obj
 0002:00006aa8       ??_R3type_info@@8          0000000180056aa8     MSVCRT:std_type_info_static.obj
 0002:00006ac0       ??_R2type_info@@8          0000000180056ac0     MSVCRT:std_type_info_static.obj
 0002:00006ad0       ??_R1A@?0A@EA@type_info@@8 0000000180056ad0     MSVCRT:std_type_info_static.obj
 0002:00006de0       __rtc_iaa                  0000000180056de0     MSVCRT:initsect.obj
 0002:00006de8       __rtc_izz                  0000000180056de8     MSVCRT:initsect.obj
 0002:00006df0       __rtc_taa                  0000000180056df0     MSVCRT:initsect.obj
 0002:00006df8       __rtc_tzz                  0000000180056df8     MSVCRT:initsect.obj
 0002:000097e8       _TI3?AVbad_array_new_length@std@@ 00000001800597e8     extractSurfCore.obj
 0002:00009808       _CTA3?AVbad_array_new_length@std@@ 0000000180059808     extractSurfCore.obj
 0002:00009828       _CT??_R0?AVbad_array_new_length@std@@@8??0bad_array_new_length@std@@QEAA@AEBV01@@Z24 0000000180059828     extractSurfCore.obj
 0002:00009850       _CT??_R0?AVbad_alloc@std@@@8??0bad_alloc@std@@QEAA@AEBV01@@Z24 0000000180059850     extractSurfCore.obj
 0002:00009878       _CT??_R0?AVexception@std@@@8??0exception@std@@QEAA@AEBV01@@Z24 0000000180059878     extractSurfCore.obj
 0002:000098a0       _TI2?AVbad_alloc@std@@     00000001800598a0     MSVCRT:throw_bad_alloc.obj
 0002:000098c0       _CTA2?AVbad_alloc@std@@    00000001800598c0     MSVCRT:throw_bad_alloc.obj
 0002:00009adc       __IMPORT_DESCRIPTOR_libmwrgb2gray_tbb 0000000180059adc     libmwrgb2gray_tbb:libmwrgb2gray_tbb.dll
 0002:00009af0       __IMPORT_DESCRIPTOR_libmwjpegreader 0000000180059af0     libmwjpegreader:libmwjpegreader.dll
 0002:00009b04       __IMPORT_DESCRIPTOR_libmwComputeMetric 0000000180059b04     libmwComputeMetric:libmwComputeMetric.dll
 0002:00009b18       __IMPORT_DESCRIPTOR_opencv_core420 0000000180059b18     opencv_core420:opencv_core420.dll
 0002:00009b2c       __IMPORT_DESCRIPTOR_opencv_imgproc420 0000000180059b2c     opencv_imgproc420:opencv_imgproc420.dll
 0002:00009b40       __IMPORT_DESCRIPTOR_opencv_features2d420 0000000180059b40     opencv_features2d420:opencv_features2d420.dll
 0002:00009b54       __IMPORT_DESCRIPTOR_sf_runtime 0000000180059b54     sf_runtime:sf_runtime.dll
 0002:00009b68       __IMPORT_DESCRIPTOR_libmx  0000000180059b68     libmx:libmx.dll
 0002:00009b7c       __IMPORT_DESCRIPTOR_libmex 0000000180059b7c     libmex:libmex.dll
 0002:00009b90       __IMPORT_DESCRIPTOR_libut  0000000180059b90     libut:libut.dll
 0002:00009ba4       __IMPORT_DESCRIPTOR_libmwmathutil 0000000180059ba4     libmwmathutil:libmwmathutil.dll
 0002:00009bb8       __IMPORT_DESCRIPTOR_libemlrt 0000000180059bb8     libemlrt:libemlrt.dll
 0002:00009bcc       __IMPORT_DESCRIPTOR_libcovrt 0000000180059bcc     libcovrt:libcovrt.dll
 0002:00009be0       __IMPORT_DESCRIPTOR_MSVCP140 0000000180059be0     msvcprt:MSVCP140.dll
 0002:00009bf4       __IMPORT_DESCRIPTOR_KERNEL32 0000000180059bf4     kernel32:KERNEL32.dll
 0002:00009c08       __IMPORT_DESCRIPTOR_VCRUNTIME140 0000000180059c08     vcruntime:VCRUNTIME140.dll
 0002:00009c1c       __IMPORT_DESCRIPTOR_VCRUNTIME140_1 0000000180059c1c     vcruntime:VCRUNTIME140_1.dll
 0002:00009c30       __IMPORT_DESCRIPTOR_api-ms-win-crt-string-l1-1-0 0000000180059c30     ucrt:api-ms-win-crt-string-l1-1-0.dll
 0002:00009c44       __IMPORT_DESCRIPTOR_api-ms-win-crt-math-l1-1-0 0000000180059c44     ucrt:api-ms-win-crt-math-l1-1-0.dll
 0002:00009c58       __IMPORT_DESCRIPTOR_api-ms-win-crt-stdio-l1-1-0 0000000180059c58     ucrt:api-ms-win-crt-stdio-l1-1-0.dll
 0002:00009c6c       __IMPORT_DESCRIPTOR_api-ms-win-crt-heap-l1-1-0 0000000180059c6c     ucrt:api-ms-win-crt-heap-l1-1-0.dll
 0002:00009c80       __IMPORT_DESCRIPTOR_api-ms-win-crt-runtime-l1-1-0 0000000180059c80     ucrt:api-ms-win-crt-runtime-l1-1-0.dll
 0002:00009c94       __IMPORT_DESCRIPTOR_api-ms-win-crt-utility-l1-1-0 0000000180059c94     ucrt:api-ms-win-crt-utility-l1-1-0.dll
 0002:00009ca8       __NULL_IMPORT_DESCRIPTOR   0000000180059ca8     libmwrgb2gray_tbb:libmwrgb2gray_tbb.dll
 0003:00011580       DYNAMIC_DIMENSION          000000018006e580     flightControlSystem_sfun_registry.obj
 0003:00013aa8       ?policy@?$SinglePolicy@Uempty_any@anyimpl@cvflann@@@anyimpl@cvflann@@0U?$big_any_policy@Uempty_any@anyimpl@cvflann@@@23@A 0000000180070aa8     extractSurfCore.obj
 0003:00013ab0       ?policy@?$SinglePolicy@PEBD@anyimpl@cvflann@@0U?$small_any_policy@PEBD@23@A 0000000180070ab0     extractSurfCore.obj
 0003:00013ab8       ?policy@?$SinglePolicy@H@anyimpl@cvflann@@0U?$small_any_policy@H@23@A 0000000180070ab8     extractSurfCore.obj
 0003:00013ac0       ?policy@?$SinglePolicy@M@anyimpl@cvflann@@0U?$small_any_policy@M@23@A 0000000180070ac0     extractSurfCore.obj
 0003:00013ac8       ?policy@?$SinglePolicy@_N@anyimpl@cvflann@@0U?$small_any_policy@_N@23@A 0000000180070ac8     extractSurfCore.obj
 0003:00013ad0       ?policy@?$SinglePolicy@W4flann_algorithm_t@cvflann@@@anyimpl@cvflann@@0U?$big_any_policy@W4flann_algorithm_t@cvflann@@@23@A 0000000180070ad0     extractSurfCore.obj
 0003:00013ad8       ?policy@?$SinglePolicy@W4flann_centers_init_t@cvflann@@@anyimpl@cvflann@@0U?$big_any_policy@W4flann_centers_init_t@cvflann@@@23@A 0000000180070ad8     extractSurfCore.obj
 0003:00013ae0       ?policy@?$SinglePolicy@I@anyimpl@cvflann@@0U?$small_any_policy@I@23@A 0000000180070ae0     extractSurfCore.obj
 0003:00013ae8       ?policy@?$SinglePolicy@V?$basic_string@DU?$char_traits@D@std@@V?$allocator@D@2@@std@@@anyimpl@cvflann@@0U?$big_any_policy@V?$basic_string@DU?$char_traits@D@std@@V?$allocator@D@2@@std@@@23@A 0000000180070ae8     extractSurfCore.obj
 0003:00013af0       __security_cookie_complement 0000000180070af0     MSVCRT:gs_cookie.obj
 0003:00013af8       __security_cookie          0000000180070af8     MSVCRT:gs_cookie.obj
 0003:00013b00       _fltused                   0000000180070b00     MSVCRT:fltused.obj
 0003:00013b10       __scrt_native_dllmain_reason 0000000180070b10     MSVCRT:utility.obj
 0003:00013b18       __isa_available            0000000180070b18     MSVCRT:cpu_disp.obj
 0003:00013b1c       __isa_enabled              0000000180070b1c     MSVCRT:cpu_disp.obj
 0003:00013b20       __memcpy_nt_iters          0000000180070b20     MSVCRT:cpu_disp.obj
 0003:00013b28       __memset_nt_iters          0000000180070b28     MSVCRT:cpu_disp.obj
 0003:00013b30       __scrt_ucrt_dll_is_in_use  0000000180070b30     MSVCRT:ucrt_stubs.obj
 0003:00013b40       ??_R0?AVbad_array_new_length@std@@@8 0000000180070b40     extractSurfCore.obj
 0003:00013b70       ??_R0?AVbad_alloc@std@@@8  0000000180070b70     extractSurfCore.obj
 0003:00013b98       ??_R0?AVexception@std@@@8  0000000180070b98     extractSurfCore.obj
 0003:00013bc0       ??_R0?AUempty_any@anyimpl@cvflann@@@8 0000000180070bc0     extractSurfCore.obj
 0003:00013bf0       ??_R0?AV?$basic_string@DU?$char_traits@D@std@@V?$allocator@D@2@@std@@@8 0000000180070bf0     extractSurfCore.obj
 0003:00013c48       ??_R0?AW4flann_algorithm_t@cvflann@@@8 0000000180070c48     extractSurfCore.obj
 0003:00013c80       ??_R0?AW4flann_centers_init_t@cvflann@@@8 0000000180070c80     extractSurfCore.obj
 0003:00013cb8       ??_R0PEBD@8                0000000180070cb8     extractSurfCore.obj
 0003:00013cd0       ??_R0I@8                   0000000180070cd0     extractSurfCore.obj
 0003:00013ce8       ??_R0_N@8                  0000000180070ce8     extractSurfCore.obj
 0003:00013d00       ??_R0M@8                   0000000180070d00     extractSurfCore.obj
 0003:00013d18       ??_R0H@8                   0000000180070d18     extractSurfCore.obj
 0003:00013d30       ??_R0?AU?$DefaultDeleter@UCvMat@@@cv@@@8 0000000180070d30     mwsurf.obj
 0003:00013d70       ??_R0?AUbase_any_policy@anyimpl@cvflann@@@8 0000000180070d70     extractSurfCore.obj
 0003:00013db0       ??_R0?AU?$big_any_policy@W4flann_centers_init_t@cvflann@@@anyimpl@cvflann@@@8 0000000180070db0     extractSurfCore.obj
 0003:00013e10       ??_R0?AU?$typed_base_any_policy@W4flann_centers_init_t@cvflann@@@anyimpl@cvflann@@@8 0000000180070e10     extractSurfCore.obj
 0003:00013e70       ??_R0?AU?$big_any_policy@W4flann_algorithm_t@cvflann@@@anyimpl@cvflann@@@8 0000000180070e70     extractSurfCore.obj
 0003:00013ed0       ??_R0?AU?$typed_base_any_policy@W4flann_algorithm_t@cvflann@@@anyimpl@cvflann@@@8 0000000180070ed0     extractSurfCore.obj
 0003:00013f30       ??_R0?AU?$big_any_policy@V?$basic_string@DU?$char_traits@D@std@@V?$allocator@D@2@@std@@@anyimpl@cvflann@@@8 0000000180070f30     extractSurfCore.obj
 0003:00013fb0       ??_R0?AU?$typed_base_any_policy@V?$basic_string@DU?$char_traits@D@std@@V?$allocator@D@2@@std@@@anyimpl@cvflann@@@8 0000000180070fb0     extractSurfCore.obj
 0003:00014030       ??_R0?AU?$small_any_policy@H@anyimpl@cvflann@@@8 0000000180071030     extractSurfCore.obj
 0003:00014070       ??_R0?AU?$typed_base_any_policy@H@anyimpl@cvflann@@@8 0000000180071070     extractSurfCore.obj
 0003:000140b0       ??_R0?AU?$small_any_policy@I@anyimpl@cvflann@@@8 00000001800710b0     extractSurfCore.obj
 0003:000140f0       ??_R0?AU?$typed_base_any_policy@I@anyimpl@cvflann@@@8 00000001800710f0     extractSurfCore.obj
 0003:00014130       ??_R0?AU?$small_any_policy@M@anyimpl@cvflann@@@8 0000000180071130     extractSurfCore.obj
 0003:00014170       ??_R0?AU?$typed_base_any_policy@M@anyimpl@cvflann@@@8 0000000180071170     extractSurfCore.obj
 0003:000141b0       ??_R0?AU?$small_any_policy@_N@anyimpl@cvflann@@@8 00000001800711b0     extractSurfCore.obj
 0003:000141f0       ??_R0?AU?$typed_base_any_policy@_N@anyimpl@cvflann@@@8 00000001800711f0     extractSurfCore.obj
 0003:00014240       ??_R0?AU?$big_any_policy@Uempty_any@anyimpl@cvflann@@@anyimpl@cvflann@@@8 0000000180071240     extractSurfCore.obj
 0003:000142a0       ??_R0?AU?$typed_base_any_policy@Uempty_any@anyimpl@cvflann@@@anyimpl@cvflann@@@8 00000001800712a0     extractSurfCore.obj
 0003:00014300       ??_R0?AU?$small_any_policy@PEBD@anyimpl@cvflann@@@8 0000000180071300     extractSurfCore.obj
 0003:00014340       ??_R0?AU?$typed_base_any_policy@PEBD@anyimpl@cvflann@@@8 0000000180071340     extractSurfCore.obj
 0003:00014388       ??_R0?AV_Ref_count_base@std@@@8 0000000180071388     extractSurfCore.obj
 0003:000143b8       ??_R0?AV?$_Ref_count_obj2@VMWSURF@cv@@@std@@@8 00000001800713b8     extractSurfCore.obj
 0003:000143f8       ??_R0?AVParallelLoopBody@cv@@@8 00000001800713f8     mwsurf.obj
 0003:00014428       ??_R0?AVFeature2D@cv@@@8   0000000180071428     mwsurf.obj
 0003:00014450       ??_R0?AVAlgorithm@cv@@@8   0000000180071450     mwsurf.obj
 0003:00014478       ??_R0?AVMWSURF@cv@@@8      0000000180071478     mwsurf.obj
 0003:00014498       ??_R0?AUMWSURFBuildInvoker@cv@@@8 0000000180071498     mwsurf.obj
 0003:000144c8       ??_R0?AUMWSURFFindInvoker@cv@@@8 00000001800714c8     mwsurf.obj
 0003:000144f8       ??_R0?AUMWSURFInvoker@cv@@@8 00000001800714f8     mwsurf.obj
 0003:00014520       ??_R0?AV?$_Ref_count_resource@PEAUCvMat@@U?$DefaultDeleter@UCvMat@@@cv@@@std@@@8 0000000180071520     mwsurf.obj
 0003:00014580       ??_R0?AVtype_info@@@8      0000000180071580     MSVCRT:std_type_info_static.obj
 0003:00014ad0       ?findMaximaInLayer_m@MWSURFFindInvoker@cv@@2Vrecursive_mutex@std@@A 0000000180071ad0     mwsurf.obj
 0003:00015090       __scrt_current_native_startup_state 0000000180072090     MSVCRT:utility.obj
 0003:00015098       __scrt_native_startup_lock 0000000180072098     MSVCRT:utility.obj
 0003:000150dc       __favor                    00000001800720dc     MSVCRT:cpu_disp.obj
 0003:000150e0       __scrt_debugger_hook_flag  00000001800720e0     MSVCRT:utility_desktop.obj
 0003:000150e8       __castguard_check_failure_os_handled_fptr 00000001800720e8     MSVCRT:guard_support.obj
 0003:000150f0       ?__type_info_root_node@@3U__type_info_node@@A 00000001800720f0     MSVCRT:tncleanup.obj
 0003:00015100       ?_OptionsStorage@?1??__local_stdio_printf_options@@9@4_KA 0000000180072100     MSVCRT:default_local_stdio_options.obj
 0003:00015108       ?_OptionsStorage@?1??__local_stdio_scanf_options@@9@4_KA 0000000180072108     MSVCRT:default_local_stdio_options.obj
 0003:00015110       ?_OptionsStorage@?1??__local_stdio_printf_options@@9@9 0000000180072110     <common>
 0003:00015118       __dyn_tls_init_callback    0000000180072118     <common>

 entry point at        0001:0004cd98

 Static symbols

 0002:fffb0000       $cppxdata$??$?6U?$char_traits@D@std@@@std@@YAAEAV?$basic_ostream@DU?$char_traits@D@std@@@0@AEAV10@PEBD@Z 0000000180000000     cgCommon.obj
 0002:fffb0000       $cppxdata$??$_Deallocate@$0BA@$0A@@std@@YAXPEAX_K@Z 0000000180000000     cgCommon.obj
 0002:fffb0000       $cppxdata$??0?$basic_string@DU?$char_traits@D@std@@V?$allocator@D@2@@std@@QEAA@AEBV01@@Z 0000000180000000     cgCommon.obj
 0002:fffb0000       $cppxdata$??0exception@std@@QEAA@AEBV01@@Z 0000000180000000     cgCommon.obj
 0002:fffb0000       $cppxdata$??0sentry@?$basic_ostream@DU?$char_traits@D@std@@@std@@QEAA@AEAV12@@Z 0000000180000000     cgCommon.obj
 0002:fffb0000       $cppxdata$??1_Sentry_base@?$basic_ostream@DU?$char_traits@D@std@@@std@@QEAA@XZ 0000000180000000     cgCommon.obj
 0002:fffb0000       $cppxdata$??1exception@std@@UEAA@XZ 0000000180000000     cgCommon.obj
 0002:fffb0000       $cppxdata$??1sentry@?$basic_ostream@DU?$char_traits@D@std@@@std@@QEAA@XZ 0000000180000000     cgCommon.obj
 0002:fffb0000       $cppxdata$?_Tidy_deallocate@?$basic_string@DU?$char_traits@D@std@@V?$allocator@D@2@@std@@AEAAXXZ 0000000180000000     cgCommon.obj
 0002:fffb0000       $cppxdata$?clone@?$big_any_policy@V?$basic_string@DU?$char_traits@D@std@@V?$allocator@D@2@@std@@@anyimpl@cvflann@@UEAAXPEBQEAXPEAPEAX@Z 0000000180000000     cgCommon.obj
 0002:fffb0000       $cppxdata$?copy@?$_Char_traits@DH@std@@SAPEADQEADQEBD_K@Z 0000000180000000     cgCommon.obj
 0002:fffb0000       $cppxdata$?copy_from_value@?$big_any_policy@V?$basic_string@DU?$char_traits@D@std@@V?$allocator@D@2@@std@@@anyimpl@cvflann@@UEAAXPEBXPEAPEAX@Z 0000000180000000     cgCommon.obj
 0002:fffb0000       $cppxdata$?length@?$_Narrow_char_traits@DH@std@@SA_KQEBD@Z 0000000180000000     cgCommon.obj
 0002:fffb0000       $cppxdata$?move@?$_Char_traits@DH@std@@SAPEADQEADQEBD_K@Z 0000000180000000     cgCommon.obj
 0002:fffb0000       $handlerMap$??$?6U?$char_traits@D@std@@@std@@YAAEAV?$basic_ostream@DU?$char_traits@D@std@@@0@AEAV10@PEBD@Z 0000000180000000     cgCommon.obj
 0002:fffb0000       $ip2state$??$?6U?$char_traits@D@std@@@std@@YAAEAV?$basic_ostream@DU?$char_traits@D@std@@@0@AEAV10@PEBD@Z 0000000180000000     cgCommon.obj
 0002:fffb0000       $ip2state$??$_Deallocate@$0BA@$0A@@std@@YAXPEAX_K@Z 0000000180000000     cgCommon.obj
 0002:fffb0000       $ip2state$??0?$basic_string@DU?$char_traits@D@std@@V?$allocator@D@2@@std@@QEAA@AEBV01@@Z 0000000180000000     cgCommon.obj
 0002:fffb0000       $ip2state$??0exception@std@@QEAA@AEBV01@@Z 0000000180000000     cgCommon.obj
 0002:fffb0000       $ip2state$??0sentry@?$basic_ostream@DU?$char_traits@D@std@@@std@@QEAA@AEAV12@@Z 0000000180000000     cgCommon.obj
 0002:fffb0000       $ip2state$??1_Sentry_base@?$basic_ostream@DU?$char_traits@D@std@@@std@@QEAA@XZ 0000000180000000     cgCommon.obj
 0002:fffb0000       $ip2state$??1exception@std@@UEAA@XZ 0000000180000000     cgCommon.obj
 0002:fffb0000       $ip2state$??1sentry@?$basic_ostream@DU?$char_traits@D@std@@@std@@QEAA@XZ 0000000180000000     cgCommon.obj
 0002:fffb0000       $ip2state$?_Tidy_deallocate@?$basic_string@DU?$char_traits@D@std@@V?$allocator@D@2@@std@@AEAAXXZ 0000000180000000     cgCommon.obj
 0002:fffb0000       $ip2state$?clone@?$big_any_policy@V?$basic_string@DU?$char_traits@D@std@@V?$allocator@D@2@@std@@@anyimpl@cvflann@@UEAAXPEBQEAXPEAPEAX@Z 0000000180000000     cgCommon.obj
 0002:fffb0000       $ip2state$?copy@?$_Char_traits@DH@std@@SAPEADQEADQEBD_K@Z 0000000180000000     cgCommon.obj
 0002:fffb0000       $ip2state$?copy_from_value@?$big_any_policy@V?$basic_string@DU?$char_traits@D@std@@V?$allocator@D@2@@std@@@anyimpl@cvflann@@UEAAXPEBXPEAPEAX@Z 0000000180000000     cgCommon.obj
 0002:fffb0000       $ip2state$?length@?$_Narrow_char_traits@DH@std@@SA_KQEBD@Z 0000000180000000     cgCommon.obj
 0002:fffb0000       $ip2state$?move@?$_Char_traits@DH@std@@SAPEADQEADQEBD_K@Z 0000000180000000     cgCommon.obj
 0002:fffb0000       $stateUnwindMap$??$?6U?$char_traits@D@std@@@std@@YAAEAV?$basic_ostream@DU?$char_traits@D@std@@@0@AEAV10@PEBD@Z 0000000180000000     cgCommon.obj
 0002:fffb0000       $stateUnwindMap$??0?$basic_string@DU?$char_traits@D@std@@V?$allocator@D@2@@std@@QEAA@AEBV01@@Z 0000000180000000     cgCommon.obj
 0002:fffb0000       $stateUnwindMap$??0sentry@?$basic_ostream@DU?$char_traits@D@std@@@std@@QEAA@AEAV12@@Z 0000000180000000     cgCommon.obj
 0002:fffb0000       $stateUnwindMap$?clone@?$big_any_policy@V?$basic_string@DU?$char_traits@D@std@@V?$allocator@D@2@@std@@@anyimpl@cvflann@@UEAAXPEBQEAXPEAPEAX@Z 0000000180000000     cgCommon.obj
 0002:fffb0000       $stateUnwindMap$?copy_from_value@?$big_any_policy@V?$basic_string@DU?$char_traits@D@std@@V?$allocator@D@2@@std@@@anyimpl@cvflann@@UEAAXPEBXPEAPEAX@Z 0000000180000000     cgCommon.obj
 0002:fffb0000       $tryMap$??$?6U?$char_traits@D@std@@@std@@YAAEAV?$basic_ostream@DU?$char_traits@D@std@@@0@AEAV10@PEBD@Z 0000000180000000     cgCommon.obj
 0002:fffb0000       $unwind$??$?0V?$allocator@D@std@@$$V@?$_Compressed_pair@V?$allocator@D@std@@V?$_String_val@U?$_Simple_types@D@std@@@2@$00@std@@QEAA@U_One_then_variadic_args_t@1@$$QEAV?$allocator@D@1@@Z 0000000180000000     cgCommon.obj
 0002:fffb0000       $unwind$??$?6U?$char_traits@D@std@@@std@@YAAEAV?$basic_ostream@DU?$char_traits@D@std@@@0@AEAV10@PEBD@Z 0000000180000000     cgCommon.obj
 0002:fffb0000       $unwind$??$_Allocate@$0BA@U_Default_allocate_traits@std@@$0A@@std@@YAPEAX_K@Z 0000000180000000     cgCommon.obj
 0002:fffb0000       $unwind$??$_Allocate_manually_vector_aligned@U_Default_allocate_traits@std@@@std@@YAPEAX_K@Z 0000000180000000     cgCommon.obj
 0002:fffb0000       $unwind$??$_Construct_in_place@PEADAEBQEAD@std@@YAXAEAPEADAEBQEAD@Z 0000000180000000     cgCommon.obj
 0002:fffb0000       $unwind$??$_Deallocate@$0BA@$0A@@std@@YAXPEAX_K@Z 0000000180000000     cgCommon.obj
 0002:fffb0000       $unwind$??$_Get_size_of_n@$00@std@@YA_K_K@Z 0000000180000000     cgCommon.obj
 0002:fffb0000       $unwind$??$_Getvals@_W@?$time_get@DV?$istreambuf_iterator@DU?$char_traits@D@std@@@std@@@std@@IEAAX_WAEBV_Locinfo@1@@Z 0000000180000000     cgCommon.obj
 0002:fffb0000       $unwind$??$_Getvals@_W@?$time_get@_WV?$istreambuf_iterator@_WU?$char_traits@_W@std@@@std@@@std@@IEAAX_WAEBV_Locinfo@1@@Z 0000000180000000     cgCommon.obj
 0002:fffb0000       $unwind$??$_Maklocstr@D@std@@YAPEADPEBDPEADAEBU_Cvtvec@@@Z 0000000180000000     cgCommon.obj
 0002:fffb0000       $unwind$??$_Maklocstr@_W@std@@YAPEA_WPEBDPEA_WAEBU_Cvtvec@@@Z 0000000180000000     cgCommon.obj
 0002:fffb0000       $unwind$??$_Reallocate_for@V<lambda_66f57f934f28d61049862f64df852ff0>@@PEBD@?$basic_string@DU?$char_traits@D@std@@V?$allocator@D@2@@std@@AEAAAEAV01@_KV<lambda_66f57f934f28d61049862f64df852ff0>@@PEBD@Z 0000000180000000     cgCommon.obj
 0002:fffb0000       $unwind$??$max@_K@std@@YAAEB_KAEB_K0@Z 0000000180000000     cgCommon.obj
 0002:fffb0000       $unwind$??$min@_K@std@@YAAEB_KAEB_K0@Z 0000000180000000     cgCommon.obj
 0002:fffb0000       $unwind$??0?$_String_val@U?$_Simple_types@D@std@@@std@@QEAA@XZ 0000000180000000     cgCommon.obj
 0002:fffb0000       $unwind$??0?$basic_string@DU?$char_traits@D@std@@V?$allocator@D@2@@std@@QEAA@AEBV01@@Z 0000000180000000     cgCommon.obj
 0002:fffb0000       $unwind$??0_Sentry_base@?$basic_ostream@DU?$char_traits@D@std@@@std@@QEAA@AEAV12@@Z 0000000180000000     cgCommon.obj
 0002:fffb0000       $unwind$??0bad_alloc@std@@AEAA@QEBD@Z 0000000180000000     cgCommon.obj
 0002:fffb0000       $unwind$??0bad_alloc@std@@QEAA@AEBV01@@Z 0000000180000000     cgCommon.obj
 0002:fffb0000       $unwind$??0bad_array_new_length@std@@QEAA@AEBV01@@Z 0000000180000000     cgCommon.obj
 0002:fffb0000       $unwind$??0bad_array_new_length@std@@QEAA@XZ 0000000180000000     cgCommon.obj
 0002:fffb0000       $unwind$??0exception@std@@QEAA@AEBV01@@Z 0000000180000000     cgCommon.obj
 0002:fffb0000       $unwind$??0exception@std@@QEAA@QEBDH@Z 0000000180000000     cgCommon.obj
 0002:fffb0000       $unwind$??0sentry@?$basic_ostream@DU?$char_traits@D@std@@@std@@QEAA@AEAV12@@Z 0000000180000000     cgCommon.obj
 0002:fffb0000       $unwind$??1?$_Compressed_pair@V?$allocator@D@std@@V?$_String_val@U?$_Simple_types@D@std@@@2@$00@std@@QEAA@XZ 0000000180000000     cgCommon.obj
 0002:fffb0000       $unwind$??1?$_String_val@U?$_Simple_types@D@std@@@std@@QEAA@XZ 0000000180000000     cgCommon.obj
 0002:fffb0000       $unwind$??1?$basic_string@DU?$char_traits@D@std@@V?$allocator@D@2@@std@@QEAA@XZ 0000000180000000     cgCommon.obj
 0002:fffb0000       $unwind$??1?$big_any_policy@Uempty_any@anyimpl@cvflann@@@anyimpl@cvflann@@UEAA@XZ 0000000180000000     cgCommon.obj
 0002:fffb0000       $unwind$??1?$big_any_policy@V?$basic_string@DU?$char_traits@D@std@@V?$allocator@D@2@@std@@@anyimpl@cvflann@@UEAA@XZ 0000000180000000     cgCommon.obj
 0002:fffb0000       $unwind$??1?$big_any_policy@W4flann_algorithm_t@cvflann@@@anyimpl@cvflann@@UEAA@XZ 0000000180000000     cgCommon.obj
 0002:fffb0000       $unwind$??1?$big_any_policy@W4flann_centers_init_t@cvflann@@@anyimpl@cvflann@@UEAA@XZ 0000000180000000     cgCommon.obj
 0002:fffb0000       $unwind$??1?$small_any_policy@H@anyimpl@cvflann@@UEAA@XZ 0000000180000000     cgCommon.obj
 0002:fffb0000       $unwind$??1?$small_any_policy@I@anyimpl@cvflann@@UEAA@XZ 0000000180000000     cgCommon.obj
 0002:fffb0000       $unwind$??1?$small_any_policy@M@anyimpl@cvflann@@UEAA@XZ 0000000180000000     cgCommon.obj
 0002:fffb0000       $unwind$??1?$small_any_policy@PEBD@anyimpl@cvflann@@UEAA@XZ 0000000180000000     cgCommon.obj
 0002:fffb0000       $unwind$??1?$small_any_policy@_N@anyimpl@cvflann@@UEAA@XZ 0000000180000000     cgCommon.obj
 0002:fffb0000       $unwind$??1?$typed_base_any_policy@H@anyimpl@cvflann@@UEAA@XZ 0000000180000000     cgCommon.obj
 0002:fffb0000       $unwind$??1?$typed_base_any_policy@I@anyimpl@cvflann@@UEAA@XZ 0000000180000000     cgCommon.obj
 0002:fffb0000       $unwind$??1?$typed_base_any_policy@M@anyimpl@cvflann@@UEAA@XZ 0000000180000000     cgCommon.obj
 0002:fffb0000       $unwind$??1?$typed_base_any_policy@PEBD@anyimpl@cvflann@@UEAA@XZ 0000000180000000     cgCommon.obj
 0002:fffb0000       $unwind$??1?$typed_base_any_policy@Uempty_any@anyimpl@cvflann@@@anyimpl@cvflann@@UEAA@XZ 0000000180000000     cgCommon.obj
 0002:fffb0000       $unwind$??1?$typed_base_any_policy@V?$basic_string@DU?$char_traits@D@std@@V?$allocator@D@2@@std@@@anyimpl@cvflann@@UEAA@XZ 0000000180000000     cgCommon.obj
 0002:fffb0000       $unwind$??1?$typed_base_any_policy@W4flann_algorithm_t@cvflann@@@anyimpl@cvflann@@UEAA@XZ 0000000180000000     cgCommon.obj
 0002:fffb0000       $unwind$??1?$typed_base_any_policy@W4flann_centers_init_t@cvflann@@@anyimpl@cvflann@@UEAA@XZ 0000000180000000     cgCommon.obj
 0002:fffb0000       $unwind$??1?$typed_base_any_policy@_N@anyimpl@cvflann@@UEAA@XZ 0000000180000000     cgCommon.obj
 0002:fffb0000       $unwind$??1_Sentry_base@?$basic_ostream@DU?$char_traits@D@std@@@std@@QEAA@XZ 0000000180000000     cgCommon.obj
 0002:fffb0000       $unwind$??1bad_alloc@std@@UEAA@XZ 0000000180000000     cgCommon.obj
 0002:fffb0000       $unwind$??1bad_array_new_length@std@@UEAA@XZ 0000000180000000     cgCommon.obj
 0002:fffb0000       $unwind$??1exception@std@@UEAA@XZ 0000000180000000     cgCommon.obj
 0002:fffb0000       $unwind$??1sentry@?$basic_ostream@DU?$char_traits@D@std@@@std@@QEAA@XZ 0000000180000000     cgCommon.obj
 0002:fffb0000       $unwind$??4?$basic_string@DU?$char_traits@D@std@@V?$allocator@D@2@@std@@QEAAAEAV01@AEBV01@@Z 0000000180000000     cgCommon.obj
 0002:fffb0000       $unwind$??6anyimpl@cvflann@@YAAEAV?$basic_ostream@DU?$char_traits@D@std@@@std@@AEAV23@AEBUempty_any@01@@Z 0000000180000000     cgCommon.obj
 0002:fffb0000       $unwind$??R<lambda_66f57f934f28d61049862f64df852ff0>@@QEBAXQEAD_KQEBD@Z 0000000180000000     cgCommon.obj
 0002:fffb0000       $unwind$??_G?$basic_string@DU?$char_traits@D@std@@V?$allocator@D@2@@std@@QEAAPEAXI@Z 0000000180000000     cgCommon.obj
 0002:fffb0000       $unwind$??_G?$big_any_policy@Uempty_any@anyimpl@cvflann@@@anyimpl@cvflann@@UEAAPEAXI@Z 0000000180000000     cgCommon.obj
 0002:fffb0000       $unwind$??_G?$big_any_policy@V?$basic_string@DU?$char_traits@D@std@@V?$allocator@D@2@@std@@@anyimpl@cvflann@@UEAAPEAXI@Z 0000000180000000     cgCommon.obj
 0002:fffb0000       $unwind$??_G?$big_any_policy@W4flann_algorithm_t@cvflann@@@anyimpl@cvflann@@UEAAPEAXI@Z 0000000180000000     cgCommon.obj
 0002:fffb0000       $unwind$??_G?$big_any_policy@W4flann_centers_init_t@cvflann@@@anyimpl@cvflann@@UEAAPEAXI@Z 0000000180000000     cgCommon.obj
 0002:fffb0000       $unwind$??_G?$small_any_policy@H@anyimpl@cvflann@@UEAAPEAXI@Z 0000000180000000     cgCommon.obj
 0002:fffb0000       $unwind$??_G?$small_any_policy@I@anyimpl@cvflann@@UEAAPEAXI@Z 0000000180000000     cgCommon.obj
 0002:fffb0000       $unwind$??_G?$small_any_policy@M@anyimpl@cvflann@@UEAAPEAXI@Z 0000000180000000     cgCommon.obj
 0002:fffb0000       $unwind$??_G?$small_any_policy@PEBD@anyimpl@cvflann@@UEAAPEAXI@Z 0000000180000000     cgCommon.obj
 0002:fffb0000       $unwind$??_G?$small_any_policy@_N@anyimpl@cvflann@@UEAAPEAXI@Z 0000000180000000     cgCommon.obj
 0002:fffb0000       $unwind$??_Gbad_alloc@std@@UEAAPEAXI@Z 0000000180000000     cgCommon.obj
 0002:fffb0000       $unwind$??_Gbad_array_new_length@std@@UEAAPEAXI@Z 0000000180000000     cgCommon.obj
 0002:fffb0000       $unwind$??_Gbase_any_policy@anyimpl@cvflann@@UEAAPEAXI@Z 0000000180000000     cgCommon.obj
 0002:fffb0000       $unwind$??_Gexception@std@@UEAAPEAXI@Z 0000000180000000     cgCommon.obj
 0002:fffb0000       $unwind$?_Adjust_manually_vector_aligned@std@@YAXAEAPEAXAEA_K@Z 0000000180000000     cgCommon.obj
 0002:fffb0000       $unwind$?_Allocate@_Default_allocate_traits@std@@SAPEAX_K@Z 0000000180000000     cgCommon.obj
 0002:fffb0000       $unwind$?_Calculate_growth@?$basic_string@DU?$char_traits@D@std@@V?$allocator@D@2@@std@@AEBA_K_K@Z 0000000180000000     cgCommon.obj
 0002:fffb0000       $unwind$?_Calculate_growth@?$basic_string@DU?$char_traits@D@std@@V?$allocator@D@2@@std@@CA_K_K00@Z 0000000180000000     cgCommon.obj
 0002:fffb0000       $unwind$?_Construct_lv_contents@?$basic_string@DU?$char_traits@D@std@@V?$allocator@D@2@@std@@AEAAXAEBV12@@Z 0000000180000000     cgCommon.obj
 0002:fffb0000       $unwind$?_Copy_assign@?$basic_string@DU?$char_traits@D@std@@V?$allocator@D@2@@std@@AEAAXAEBV12@U?$integral_constant@_N$0A@@2@@Z 0000000180000000     cgCommon.obj
 0002:fffb0000       $unwind$?_Getal@?$basic_string@DU?$char_traits@D@std@@V?$allocator@D@2@@std@@AEAAAEAV?$allocator@D@2@XZ 0000000180000000     cgCommon.obj
 0002:fffb0000       $unwind$?_Getal@?$basic_string@DU?$char_traits@D@std@@V?$allocator@D@2@@std@@AEBAAEBV?$allocator@D@2@XZ 0000000180000000     cgCommon.obj
 0002:fffb0000       $unwind$?_Large_string_engaged@?$_String_val@U?$_Simple_types@D@std@@@std@@QEBA_NXZ 0000000180000000     cgCommon.obj
 0002:fffb0000       $unwind$?_Maklocwcs@std@@YAPEA_WPEB_W@Z 0000000180000000     cgCommon.obj
 0002:fffb0000       $unwind$?_Myptr@?$_String_val@U?$_Simple_types@D@std@@@std@@QEAAPEADXZ 0000000180000000     cgCommon.obj
 0002:fffb0000       $unwind$?_Myptr@?$_String_val@U?$_Simple_types@D@std@@@std@@QEBAPEBDXZ 0000000180000000     cgCommon.obj
 0002:fffb0000       $unwind$?_Throw_bad_array_new_length@std@@YAXXZ 0000000180000000     cgCommon.obj
 0002:fffb0000       $unwind$?_Tidy_deallocate@?$basic_string@DU?$char_traits@D@std@@V?$allocator@D@2@@std@@AEAAXXZ 0000000180000000     cgCommon.obj
 0002:fffb0000       $unwind$?_Xlen_string@std@@YAXXZ 0000000180000000     cgCommon.obj
 0002:fffb0000       $unwind$?allocate@?$allocator@D@std@@QEAAPEAD_K@Z 0000000180000000     cgCommon.obj
 0002:fffb0000       $unwind$?assign@?$basic_string@DU?$char_traits@D@std@@V?$allocator@D@2@@std@@QEAAAEAV12@QEBD_K@Z 0000000180000000     cgCommon.obj
 0002:fffb0000       $unwind$?c_str@?$basic_string@DU?$char_traits@D@std@@V?$allocator@D@2@@std@@QEBAPEBDXZ 0000000180000000     cgCommon.obj
 0002:fffb0000       $unwind$?catch$1@?0???$?6U?$char_traits@D@std@@@std@@YAAEAV?$basic_ostream@DU?$char_traits@D@std@@@0@AEAV10@PEBD@Z@4HA 0000000180000000     cgCommon.obj
 0002:fffb0000       $unwind$?clone@?$big_any_policy@Uempty_any@anyimpl@cvflann@@@anyimpl@cvflann@@UEAAXPEBQEAXPEAPEAX@Z 0000000180000000     cgCommon.obj
 0002:fffb0000       $unwind$?clone@?$big_any_policy@V?$basic_string@DU?$char_traits@D@std@@V?$allocator@D@2@@std@@@anyimpl@cvflann@@UEAAXPEBQEAXPEAPEAX@Z 0000000180000000     cgCommon.obj
 0002:fffb0000       $unwind$?clone@?$big_any_policy@W4flann_algorithm_t@cvflann@@@anyimpl@cvflann@@UEAAXPEBQEAXPEAPEAX@Z 0000000180000000     cgCommon.obj
 0002:fffb0000       $unwind$?clone@?$big_any_policy@W4flann_centers_init_t@cvflann@@@anyimpl@cvflann@@UEAAXPEBQEAXPEAPEAX@Z 0000000180000000     cgCommon.obj
 0002:fffb0000       $unwind$?copy@?$_Char_traits@DH@std@@SAPEADQEADQEBD_K@Z 0000000180000000     cgCommon.obj
 0002:fffb0000       $unwind$?copy_from_value@?$big_any_policy@Uempty_any@anyimpl@cvflann@@@anyimpl@cvflann@@UEAAXPEBXPEAPEAX@Z 0000000180000000     cgCommon.obj
 0002:fffb0000       $unwind$?copy_from_value@?$big_any_policy@V?$basic_string@DU?$char_traits@D@std@@V?$allocator@D@2@@std@@@anyimpl@cvflann@@UEAAXPEBXPEAPEAX@Z 0000000180000000     cgCommon.obj
 0002:fffb0000       $unwind$?copy_from_value@?$big_any_policy@W4flann_algorithm_t@cvflann@@@anyimpl@cvflann@@UEAAXPEBXPEAPEAX@Z 0000000180000000     cgCommon.obj
 0002:fffb0000       $unwind$?copy_from_value@?$big_any_policy@W4flann_centers_init_t@cvflann@@@anyimpl@cvflann@@UEAAXPEBXPEAPEAX@Z 0000000180000000     cgCommon.obj
 0002:fffb0000       $unwind$?copy_from_value@?$small_any_policy@H@anyimpl@cvflann@@UEAAXPEBXPEAPEAX@Z 0000000180000000     cgCommon.obj
 0002:fffb0000       $unwind$?copy_from_value@?$small_any_policy@I@anyimpl@cvflann@@UEAAXPEBXPEAPEAX@Z 0000000180000000     cgCommon.obj
 0002:fffb0000       $unwind$?copy_from_value@?$small_any_policy@M@anyimpl@cvflann@@UEAAXPEBXPEAPEAX@Z 0000000180000000     cgCommon.obj
 0002:fffb0000       $unwind$?copy_from_value@?$small_any_policy@PEBD@anyimpl@cvflann@@UEAAXPEBXPEAPEAX@Z 0000000180000000     cgCommon.obj
 0002:fffb0000       $unwind$?copy_from_value@?$small_any_policy@_N@anyimpl@cvflann@@UEAAXPEBXPEAPEAX@Z 0000000180000000     cgCommon.obj
 0002:fffb0000       $unwind$?deallocate@?$allocator@D@std@@QEAAXQEAD_K@Z 0000000180000000     cgCommon.obj
 0002:fffb0000       $unwind$?dtor$0@?0???$?6U?$char_traits@D@std@@@std@@YAAEAV?$basic_ostream@DU?$char_traits@D@std@@@0@AEAV10@PEBD@Z@4HA 0000000180000000     cgCommon.obj
 0002:fffb0000       $unwind$?dtor$0@?0???0?$basic_string@DU?$char_traits@D@std@@V?$allocator@D@2@@std@@QEAA@AEBV01@@Z@4HA 0000000180000000     cgCommon.obj
 0002:fffb0000       $unwind$?dtor$0@?0???0sentry@?$basic_ostream@DU?$char_traits@D@std@@@std@@QEAA@AEAV12@@Z@4HA 0000000180000000     cgCommon.obj
 0002:fffb0000       $unwind$?dtor$0@?0??clone@?$big_any_policy@V?$basic_string@DU?$char_traits@D@std@@V?$allocator@D@2@@std@@@anyimpl@cvflann@@UEAAXPEBQEAXPEAPEAX@Z@4HA 0000000180000000     cgCommon.obj
 0002:fffb0000       $unwind$?dtor$0@?0??copy_from_value@?$big_any_policy@V?$basic_string@DU?$char_traits@D@std@@V?$allocator@D@2@@std@@@anyimpl@cvflann@@UEAAXPEBXPEAPEAX@Z@4HA 0000000180000000     cgCommon.obj
 0002:fffb0000       $unwind$?eq_int_type@?$_Narrow_char_traits@DH@std@@SA_NAEBH0@Z 0000000180000000     cgCommon.obj
 0002:fffb0000       $unwind$?length@?$_Narrow_char_traits@DH@std@@SA_KQEBD@Z 0000000180000000     cgCommon.obj
 0002:fffb0000       $unwind$?max_size@?$basic_string@DU?$char_traits@D@std@@V?$allocator@D@2@@std@@QEBA_KXZ 0000000180000000     cgCommon.obj
 0002:fffb0000       $unwind$?move@?$_Char_traits@DH@std@@SAPEADQEADQEBD_K@Z 0000000180000000     cgCommon.obj
 0002:fffb0000       $unwind$?move@?$big_any_policy@V?$basic_string@DU?$char_traits@D@std@@V?$allocator@D@2@@std@@@anyimpl@cvflann@@UEAAXPEBQEAXPEAPEAX@Z 0000000180000000     cgCommon.obj
 0002:fffb0000       $unwind$?print@?$big_any_policy@Uempty_any@anyimpl@cvflann@@@anyimpl@cvflann@@UEAAXAEAV?$basic_ostream@DU?$char_traits@D@std@@@std@@PEBQEAX@Z 0000000180000000     cgCommon.obj
 0002:fffb0000       $unwind$?print@?$big_any_policy@V?$basic_string@DU?$char_traits@D@std@@V?$allocator@D@2@@std@@@anyimpl@cvflann@@UEAAXAEAV?$basic_ostream@DU?$char_traits@D@std@@@std@@PEBQEAX@Z 0000000180000000     cgCommon.obj
 0002:fffb0000       $unwind$?print@?$big_any_policy@W4flann_algorithm_t@cvflann@@@anyimpl@cvflann@@UEAAXAEAV?$basic_ostream@DU?$char_traits@D@std@@@std@@PEBQEAX@Z 0000000180000000     cgCommon.obj
 0002:fffb0000       $unwind$?print@?$big_any_policy@W4flann_centers_init_t@cvflann@@@anyimpl@cvflann@@UEAAXAEAV?$basic_ostream@DU?$char_traits@D@std@@@std@@PEBQEAX@Z 0000000180000000     cgCommon.obj
 0002:fffb0000       $unwind$?print@?$small_any_policy@H@anyimpl@cvflann@@UEAAXAEAV?$basic_ostream@DU?$char_traits@D@std@@@std@@PEBQEAX@Z 0000000180000000     cgCommon.obj
 0002:fffb0000       $unwind$?print@?$small_any_policy@I@anyimpl@cvflann@@UEAAXAEAV?$basic_ostream@DU?$char_traits@D@std@@@std@@PEBQEAX@Z 0000000180000000     cgCommon.obj
 0002:fffb0000       $unwind$?print@?$small_any_policy@M@anyimpl@cvflann@@UEAAXAEAV?$basic_ostream@DU?$char_traits@D@std@@@std@@PEBQEAX@Z 0000000180000000     cgCommon.obj
 0002:fffb0000       $unwind$?print@?$small_any_policy@PEBD@anyimpl@cvflann@@UEAAXAEAV?$basic_ostream@DU?$char_traits@D@std@@@std@@PEBQEAX@Z 0000000180000000     cgCommon.obj
 0002:fffb0000       $unwind$?print@?$small_any_policy@_N@anyimpl@cvflann@@UEAAXAEAV?$basic_ostream@DU?$char_traits@D@std@@@std@@PEBQEAX@Z 0000000180000000     cgCommon.obj
 0002:fffb0000       $unwind$?static_delete@?$big_any_policy@Uempty_any@anyimpl@cvflann@@@anyimpl@cvflann@@UEAAXPEAPEAX@Z 0000000180000000     cgCommon.obj
 0002:fffb0000       $unwind$?static_delete@?$big_any_policy@V?$basic_string@DU?$char_traits@D@std@@V?$allocator@D@2@@std@@@anyimpl@cvflann@@UEAAXPEAPEAX@Z 0000000180000000     cgCommon.obj
 0002:fffb0000       $unwind$?static_delete@?$big_any_policy@W4flann_algorithm_t@cvflann@@@anyimpl@cvflann@@UEAAXPEAPEAX@Z 0000000180000000     cgCommon.obj
 0002:fffb0000       $unwind$?static_delete@?$big_any_policy@W4flann_centers_init_t@cvflann@@@anyimpl@cvflann@@UEAAXPEAPEAX@Z 0000000180000000     cgCommon.obj
 0002:fffb0000       $unwind$?what@exception@std@@UEBAPEBDXZ 0000000180000000     cgCommon.obj
 0002:fffb0000       $unwind$wmemcpy            0000000180000000     cgCommon.obj
 0002:fffb0000       ??policy$initializer$@?$SinglePolicy@H@anyimpl@cvflann@@0P6AXXZEA@@3P6AXXZEA 0000000180000000     cgCommon.obj
 0002:fffb0000       ??policy$initializer$@?$SinglePolicy@I@anyimpl@cvflann@@0P6AXXZEA@@3P6AXXZEA 0000000180000000     cgCommon.obj
 0002:fffb0000       ??policy$initializer$@?$SinglePolicy@M@anyimpl@cvflann@@0P6AXXZEA@@3P6AXXZEA 0000000180000000     cgCommon.obj
 0002:fffb0000       ??policy$initializer$@?$SinglePolicy@PEBD@anyimpl@cvflann@@0P6AXXZEA@@3P6AXXZEA 0000000180000000     cgCommon.obj
 0002:fffb0000       ??policy$initializer$@?$SinglePolicy@Uempty_any@anyimpl@cvflann@@@anyimpl@cvflann@@0P6AXXZEA@@3P6AXXZEA 0000000180000000     cgCommon.obj
 0002:fffb0000       ??policy$initializer$@?$SinglePolicy@V?$basic_string@DU?$char_traits@D@std@@V?$allocator@D@2@@std@@@anyimpl@cvflann@@0P6AXXZEA@@3P6AXXZEA 0000000180000000     cgCommon.obj
 0002:fffb0000       ??policy$initializer$@?$SinglePolicy@W4flann_algorithm_t@cvflann@@@anyimpl@cvflann@@0P6AXXZEA@@3P6AXXZEA 0000000180000000     cgCommon.obj
 0002:fffb0000       ??policy$initializer$@?$SinglePolicy@W4flann_centers_init_t@cvflann@@@anyimpl@cvflann@@0P6AXXZEA@@3P6AXXZEA 0000000180000000     cgCommon.obj
 0002:fffb0000       ??policy$initializer$@?$SinglePolicy@_N@anyimpl@cvflann@@0P6AXXZEA@@3P6AXXZEA 0000000180000000     cgCommon.obj
 0001:fffff000       ?catch$1@?0???$?6U?$char_traits@D@std@@@std@@YAAEAV?$basic_ostream@DU?$char_traits@D@std@@@0@AEAV10@PEBD@Z@4HA 0000000180000000 f   cgCommon.obj
 0001:fffff000       ?dtor$0@?0???$?6U?$char_traits@D@std@@@std@@YAAEAV?$basic_ostream@DU?$char_traits@D@std@@@0@AEAV10@PEBD@Z@4HA 0000000180000000 f   cgCommon.obj
 0001:fffff000       ?dtor$0@?0???0?$basic_string@DU?$char_traits@D@std@@V?$allocator@D@2@@std@@QEAA@AEBV01@@Z@4HA 0000000180000000 f   cgCommon.obj
 0001:fffff000       ?dtor$0@?0???0sentry@?$basic_ostream@DU?$char_traits@D@std@@@std@@QEAA@AEAV12@@Z@4HA 0000000180000000 f   cgCommon.obj
 0001:fffff000       ?dtor$0@?0??clone@?$big_any_policy@V?$basic_string@DU?$char_traits@D@std@@V?$allocator@D@2@@std@@@anyimpl@cvflann@@UEAAXPEBQEAXPEAPEAX@Z@4HA 0000000180000000 f   cgCommon.obj
 0001:fffff000       ?dtor$0@?0??copy_from_value@?$big_any_policy@V?$basic_string@DU?$char_traits@D@std@@V?$allocator@D@2@@std@@@anyimpl@cvflann@@UEAAXPEBXPEAPEAX@Z@4HA 0000000180000000 f   cgCommon.obj
 0002:fffb0000       $cppxdata$??$?0$$V@?$_Ref_count_obj2@VMWSURF@cv@@@std@@QEAA@XZ 0000000180000000     fastHessianDetectorCore.obj
 0002:fffb0000       $cppxdata$??$?6U?$char_traits@D@std@@@std@@YAAEAV?$basic_ostream@DU?$char_traits@D@std@@@0@AEAV10@PEBD@Z 0000000180000000     fastHessianDetectorCore.obj
 0002:fffb0000       $cppxdata$??$_Deallocate@$0BA@$0A@@std@@YAXPEAX_K@Z 0000000180000000     fastHessianDetectorCore.obj
 0002:fffb0000       $cppxdata$??$make_shared@VMWSURF@cv@@$$V@std@@YA?AV?$shared_ptr@VMWSURF@cv@@@0@XZ 0000000180000000     fastHessianDetectorCore.obj
 0002:fffb0000       $cppxdata$??0?$basic_string@DU?$char_traits@D@std@@V?$allocator@D@2@@std@@QEAA@AEBV01@@Z 0000000180000000     fastHessianDetectorCore.obj
 0002:fffb0000       $cppxdata$??0?$basic_string@DU?$char_traits@D@std@@V?$allocator@D@2@@std@@QEAA@QEBD@Z 0000000180000000     fastHessianDetectorCore.obj
 0002:fffb0000       $cppxdata$??0Mat@cv@@QEAA@HHHPEAX_K@Z 0000000180000000     fastHessianDetectorCore.obj
 0002:fffb0000       $cppxdata$??0exception@std@@QEAA@AEBV01@@Z 0000000180000000     fastHessianDetectorCore.obj
 0002:fffb0000       $cppxdata$??0sentry@?$basic_ostream@DU?$char_traits@D@std@@@std@@QEAA@AEAV12@@Z 0000000180000000     fastHessianDetectorCore.obj
 0002:fffb0000       $cppxdata$??1Mat@cv@@QEAA@XZ 0000000180000000     fastHessianDetectorCore.obj
 0002:fffb0000       $cppxdata$??1_Sentry_base@?$basic_ostream@DU?$char_traits@D@std@@@std@@QEAA@XZ 0000000180000000     fastHessianDetectorCore.obj
 0002:fffb0000       $cppxdata$??1exception@std@@UEAA@XZ 0000000180000000     fastHessianDetectorCore.obj
 0002:fffb0000       $cppxdata$??1sentry@?$basic_ostream@DU?$char_traits@D@std@@@std@@QEAA@XZ 0000000180000000     fastHessianDetectorCore.obj
 0002:fffb0000       $cppxdata$?_Tidy@?$vector@VKeyPoint@cv@@V?$allocator@VKeyPoint@cv@@@std@@@std@@AEAAXXZ 0000000180000000     fastHessianDetectorCore.obj
 0002:fffb0000       $cppxdata$?_Tidy_deallocate@?$basic_string@DU?$char_traits@D@std@@V?$allocator@D@2@@std@@AEAAXXZ 0000000180000000     fastHessianDetectorCore.obj
 0002:fffb0000       $cppxdata$?clone@?$big_any_policy@V?$basic_string@DU?$char_traits@D@std@@V?$allocator@D@2@@std@@@anyimpl@cvflann@@UEAAXPEBQEAXPEAPEAX@Z 0000000180000000     fastHessianDetectorCore.obj
 0002:fffb0000       $cppxdata$?copy@?$_Char_traits@DH@std@@SAPEADQEADQEBD_K@Z 0000000180000000     fastHessianDetectorCore.obj
 0002:fffb0000       $cppxdata$?copy_from_value@?$big_any_policy@V?$basic_string@DU?$char_traits@D@std@@V?$allocator@D@2@@std@@@anyimpl@cvflann@@UEAAXPEBXPEAPEAX@Z 0000000180000000     fastHessianDetectorCore.obj
 0002:fffb0000       $cppxdata$?length@?$_Narrow_char_traits@DH@std@@SA_KQEBD@Z 0000000180000000     fastHessianDetectorCore.obj
 0002:fffb0000       $cppxdata$?move@?$_Char_traits@DH@std@@SAPEADQEADQEBD_K@Z 0000000180000000     fastHessianDetectorCore.obj
 0002:fffb0000       $handlerMap$??$?6U?$char_traits@D@std@@@std@@YAAEAV?$basic_ostream@DU?$char_traits@D@std@@@0@AEAV10@PEBD@Z 0000000180000000     fastHessianDetectorCore.obj
 0002:fffb0000       $ip2state$??$?0$$V@?$_Ref_count_obj2@VMWSURF@cv@@@std@@QEAA@XZ 0000000180000000     fastHessianDetectorCore.obj
 0002:fffb0000       $ip2state$??$?6U?$char_traits@D@std@@@std@@YAAEAV?$basic_ostream@DU?$char_traits@D@std@@@0@AEAV10@PEBD@Z 0000000180000000     fastHessianDetectorCore.obj
 0002:fffb0000       $ip2state$??$_Deallocate@$0BA@$0A@@std@@YAXPEAX_K@Z 0000000180000000     fastHessianDetectorCore.obj
 0002:fffb0000       $ip2state$??$make_shared@VMWSURF@cv@@$$V@std@@YA?AV?$shared_ptr@VMWSURF@cv@@@0@XZ 0000000180000000     fastHessianDetectorCore.obj
 0002:fffb0000       $ip2state$??0?$basic_string@DU?$char_traits@D@std@@V?$allocator@D@2@@std@@QEAA@AEBV01@@Z 0000000180000000     fastHessianDetectorCore.obj
 0002:fffb0000       $ip2state$??0?$basic_string@DU?$char_traits@D@std@@V?$allocator@D@2@@std@@QEAA@QEBD@Z 0000000180000000     fastHessianDetectorCore.obj
 0002:fffb0000       $ip2state$??0Mat@cv@@QEAA@HHHPEAX_K@Z 0000000180000000     fastHessianDetectorCore.obj
 0002:fffb0000       $ip2state$??0exception@std@@QEAA@AEBV01@@Z 0000000180000000     fastHessianDetectorCore.obj
 0002:fffb0000       $ip2state$??0sentry@?$basic_ostream@DU?$char_traits@D@std@@@std@@QEAA@AEAV12@@Z 0000000180000000     fastHessianDetectorCore.obj
 0002:fffb0000       $ip2state$??1Mat@cv@@QEAA@XZ 0000000180000000     fastHessianDetectorCore.obj
 0002:fffb0000       $ip2state$??1_Sentry_base@?$basic_ostream@DU?$char_traits@D@std@@@std@@QEAA@XZ 0000000180000000     fastHessianDetectorCore.obj
 0002:fffb0000       $ip2state$??1exception@std@@UEAA@XZ 0000000180000000     fastHessianDetectorCore.obj
 0002:fffb0000       $ip2state$??1sentry@?$basic_ostream@DU?$char_traits@D@std@@@std@@QEAA@XZ 0000000180000000     fastHessianDetectorCore.obj
 0002:fffb0000       $ip2state$?_Tidy@?$vector@VKeyPoint@cv@@V?$allocator@VKeyPoint@cv@@@std@@@std@@AEAAXXZ 0000000180000000     fastHessianDetectorCore.obj
 0002:fffb0000       $ip2state$?_Tidy_deallocate@?$basic_string@DU?$char_traits@D@std@@V?$allocator@D@2@@std@@AEAAXXZ 0000000180000000     fastHessianDetectorCore.obj
 0002:fffb0000       $ip2state$?clone@?$big_any_policy@V?$basic_string@DU?$char_traits@D@std@@V?$allocator@D@2@@std@@@anyimpl@cvflann@@UEAAXPEBQEAXPEAPEAX@Z 0000000180000000     fastHessianDetectorCore.obj
 0002:fffb0000       $ip2state$?copy@?$_Char_traits@DH@std@@SAPEADQEADQEBD_K@Z 0000000180000000     fastHessianDetectorCore.obj
 0002:fffb0000       $ip2state$?copy_from_value@?$big_any_policy@V?$basic_string@DU?$char_traits@D@std@@V?$allocator@D@2@@std@@@anyimpl@cvflann@@UEAAXPEBXPEAPEAX@Z 0000000180000000     fastHessianDetectorCore.obj
 0002:fffb0000       $ip2state$?length@?$_Narrow_char_traits@DH@std@@SA_KQEBD@Z 0000000180000000     fastHessianDetectorCore.obj
 0002:fffb0000       $ip2state$?move@?$_Char_traits@DH@std@@SAPEADQEADQEBD_K@Z 0000000180000000     fastHessianDetectorCore.obj
 0002:fffb0000       $stateUnwindMap$??$?0$$V@?$_Ref_count_obj2@VMWSURF@cv@@@std@@QEAA@XZ 0000000180000000     fastHessianDetectorCore.obj
 0002:fffb0000       $stateUnwindMap$??$?6U?$char_traits@D@std@@@std@@YAAEAV?$basic_ostream@DU?$char_traits@D@std@@@0@AEAV10@PEBD@Z 0000000180000000     fastHessianDetectorCore.obj
 0002:fffb0000       $stateUnwindMap$??$make_shared@VMWSURF@cv@@$$V@std@@YA?AV?$shared_ptr@VMWSURF@cv@@@0@XZ 0000000180000000     fastHessianDetectorCore.obj
 0002:fffb0000       $stateUnwindMap$??0?$basic_string@DU?$char_traits@D@std@@V?$allocator@D@2@@std@@QEAA@AEBV01@@Z 0000000180000000     fastHessianDetectorCore.obj
 0002:fffb0000       $stateUnwindMap$??0?$basic_string@DU?$char_traits@D@std@@V?$allocator@D@2@@std@@QEAA@QEBD@Z 0000000180000000     fastHessianDetectorCore.obj
 0002:fffb0000       $stateUnwindMap$??0Mat@cv@@QEAA@HHHPEAX_K@Z 0000000180000000     fastHessianDetectorCore.obj
 0002:fffb0000       $stateUnwindMap$??0sentry@?$basic_ostream@DU?$char_traits@D@std@@@std@@QEAA@AEAV12@@Z 0000000180000000     fastHessianDetectorCore.obj
 0002:fffb0000       $stateUnwindMap$?clone@?$big_any_policy@V?$basic_string@DU?$char_traits@D@std@@V?$allocator@D@2@@std@@@anyimpl@cvflann@@UEAAXPEBQEAXPEAPEAX@Z 0000000180000000     fastHessianDetectorCore.obj
 0002:fffb0000       $stateUnwindMap$?copy_from_value@?$big_any_policy@V?$basic_string@DU?$char_traits@D@std@@V?$allocator@D@2@@std@@@anyimpl@cvflann@@UEAAXPEBXPEAPEAX@Z 0000000180000000     fastHessianDetectorCore.obj
 0002:fffb0000       $tryMap$??$?6U?$char_traits@D@std@@@std@@YAAEAV?$basic_ostream@DU?$char_traits@D@std@@@0@AEAV10@PEBD@Z 0000000180000000     fastHessianDetectorCore.obj
 0002:fffb0000       $unwind$??$?0$$V@?$_Compressed_pair@V?$allocator@D@std@@V?$_String_val@U?$_Simple_types@D@std@@@2@$00@std@@QEAA@U_Zero_then_variadic_args_t@1@@Z 0000000180000000     fastHessianDetectorCore.obj
 0002:fffb0000       $unwind$??$?0$$V@?$_Compressed_pair@V?$allocator@VKeyPoint@cv@@@std@@V?$_Vector_val@U?$_Simple_types@VKeyPoint@cv@@@std@@@2@$00@std@@QEAA@U_Zero_then_variadic_args_t@1@@Z 0000000180000000     fastHessianDetectorCore.obj
 0002:fffb0000       $unwind$??$?0$$V@?$_Ref_count_obj2@VMWSURF@cv@@@std@@QEAA@XZ 0000000180000000     fastHessianDetectorCore.obj
 0002:fffb0000       $unwind$??$?0V?$allocator@D@std@@$$V@?$_Compressed_pair@V?$allocator@D@std@@V?$_String_val@U?$_Simple_types@D@std@@@2@$00@std@@QEAA@U_One_then_variadic_args_t@1@$$QEAV?$allocator@D@1@@Z 0000000180000000     fastHessianDetectorCore.obj
 0002:fffb0000       $unwind$??$?6U?$char_traits@D@std@@@std@@YAAEAV?$basic_ostream@DU?$char_traits@D@std@@@0@AEAV10@PEBD@Z 0000000180000000     fastHessianDetectorCore.obj
 0002:fffb0000       $unwind$??$_Allocate@$0BA@U_Default_allocate_traits@std@@$0A@@std@@YAPEAX_K@Z 0000000180000000     fastHessianDetectorCore.obj
 0002:fffb0000       $unwind$??$_Allocate_manually_vector_aligned@U_Default_allocate_traits@std@@@std@@YAPEAX_K@Z 0000000180000000     fastHessianDetectorCore.obj
 0002:fffb0000       $unwind$??$_Construct_in_place@PEADAEBQEAD@std@@YAXAEAPEADAEBQEAD@Z 0000000180000000     fastHessianDetectorCore.obj
 0002:fffb0000       $unwind$??$_Construct_in_place@VMWSURF@cv@@$$V@std@@YAXAEAVMWSURF@cv@@@Z 0000000180000000     fastHessianDetectorCore.obj
 0002:fffb0000       $unwind$??$_Deallocate@$0BA@$0A@@std@@YAXPEAX_K@Z 0000000180000000     fastHessianDetectorCore.obj
 0002:fffb0000       $unwind$??$_Destroy_in_place@VMWSURF@cv@@@std@@YAXAEAVMWSURF@cv@@@Z 0000000180000000     fastHessianDetectorCore.obj
 0002:fffb0000       $unwind$??$_Get_size_of_n@$00@std@@YA_K_K@Z 0000000180000000     fastHessianDetectorCore.obj
 0002:fffb0000       $unwind$??$_Getvals@_W@?$time_get@DV?$istreambuf_iterator@DU?$char_traits@D@std@@@std@@@std@@IEAAX_WAEBV_Locinfo@1@@Z 0000000180000000     fastHessianDetectorCore.obj
 0002:fffb0000       $unwind$??$_Getvals@_W@?$time_get@_WV?$istreambuf_iterator@_WU?$char_traits@_W@std@@@std@@@std@@IEAAX_WAEBV_Locinfo@1@@Z 0000000180000000     fastHessianDetectorCore.obj
 0002:fffb0000       $unwind$??$_Maklocstr@D@std@@YAPEADPEBDPEADAEBU_Cvtvec@@@Z 0000000180000000     fastHessianDetectorCore.obj
 0002:fffb0000       $unwind$??$_Maklocstr@_W@std@@YAPEA_WPEBDPEA_WAEBU_Cvtvec@@@Z 0000000180000000     fastHessianDetectorCore.obj
 0002:fffb0000       $unwind$??$_Reallocate_for@V<lambda_66f57f934f28d61049862f64df852ff0>@@PEBD@?$basic_string@DU?$char_traits@D@std@@V?$allocator@D@2@@std@@AEAAAEAV01@_KV<lambda_66f57f934f28d61049862f64df852ff0>@@PEBD@Z 0000000180000000     fastHessianDetectorCore.obj
 0002:fffb0000       $unwind$??$make_shared@VMWSURF@cv@@$$V@std@@YA?AV?$shared_ptr@VMWSURF@cv@@@0@XZ 0000000180000000     fastHessianDetectorCore.obj
 0002:fffb0000       $unwind$??$max@_K@std@@YAAEB_KAEB_K0@Z 0000000180000000     fastHessianDetectorCore.obj
 0002:fffb0000       $unwind$??$min@_K@std@@YAAEB_KAEB_K0@Z 0000000180000000     fastHessianDetectorCore.obj
 0002:fffb0000       $unwind$??0?$Ptr@VMWSURF@cv@@@cv@@QEAA@$$QEAV?$shared_ptr@VMWSURF@cv@@@std@@@Z 0000000180000000     fastHessianDetectorCore.obj
 0002:fffb0000       $unwind$??0?$_String_val@U?$_Simple_types@D@std@@@std@@QEAA@XZ 0000000180000000     fastHessianDetectorCore.obj
 0002:fffb0000       $unwind$??0?$basic_string@DU?$char_traits@D@std@@V?$allocator@D@2@@std@@QEAA@AEBV01@@Z 0000000180000000     fastHessianDetectorCore.obj
 0002:fffb0000       $unwind$??0?$basic_string@DU?$char_traits@D@std@@V?$allocator@D@2@@std@@QEAA@QEBD@Z 0000000180000000     fastHessianDetectorCore.obj
 0002:fffb0000       $unwind$??0?$shared_ptr@VMWSURF@cv@@@std@@QEAA@$$QEAV01@@Z 0000000180000000     fastHessianDetectorCore.obj
 0002:fffb0000       $unwind$??0?$shared_ptr@VMWSURF@cv@@@std@@QEAA@XZ 0000000180000000     fastHessianDetectorCore.obj
 0002:fffb0000       $unwind$??0?$vector@VKeyPoint@cv@@V?$allocator@VKeyPoint@cv@@@std@@@std@@QEAA@XZ 0000000180000000     fastHessianDetectorCore.obj
 0002:fffb0000       $unwind$??0Mat@cv@@QEAA@HHHPEAX_K@Z 0000000180000000     fastHessianDetectorCore.obj
 0002:fffb0000       $unwind$??0Mat@cv@@QEAA@XZ 0000000180000000     fastHessianDetectorCore.obj
 0002:fffb0000       $unwind$??0_Sentry_base@?$basic_ostream@DU?$char_traits@D@std@@@std@@QEAA@AEAV12@@Z 0000000180000000     fastHessianDetectorCore.obj
 0002:fffb0000       $unwind$??0bad_alloc@std@@AEAA@QEBD@Z 0000000180000000     fastHessianDetectorCore.obj
 0002:fffb0000       $unwind$??0bad_alloc@std@@QEAA@AEBV01@@Z 0000000180000000     fastHessianDetectorCore.obj
 0002:fffb0000       $unwind$??0bad_array_new_length@std@@QEAA@AEBV01@@Z 0000000180000000     fastHessianDetectorCore.obj
 0002:fffb0000       $unwind$??0bad_array_new_length@std@@QEAA@XZ 0000000180000000     fastHessianDetectorCore.obj
 0002:fffb0000       $unwind$??0exception@std@@QEAA@AEBV01@@Z 0000000180000000     fastHessianDetectorCore.obj
 0002:fffb0000       $unwind$??0exception@std@@QEAA@QEBDH@Z 0000000180000000     fastHessianDetectorCore.obj
 0002:fffb0000       $unwind$??0sentry@?$basic_ostream@DU?$char_traits@D@std@@@std@@QEAA@AEAV12@@Z 0000000180000000     fastHessianDetectorCore.obj
 0002:fffb0000       $unwind$??1?$Ptr@VMWSURF@cv@@@cv@@QEAA@XZ 0000000180000000     fastHessianDetectorCore.obj
 0002:fffb0000       $unwind$??1?$_Compressed_pair@V?$allocator@D@std@@V?$_String_val@U?$_Simple_types@D@std@@@2@$00@std@@QEAA@XZ 0000000180000000     fastHessianDetectorCore.obj
 0002:fffb0000       $unwind$??1?$_Ref_count_obj2@VMWSURF@cv@@@std@@UEAA@XZ 0000000180000000     fastHessianDetectorCore.obj
 0002:fffb0000       $unwind$??1?$_String_val@U?$_Simple_types@D@std@@@std@@QEAA@XZ 0000000180000000     fastHessianDetectorCore.obj
 0002:fffb0000       $unwind$??1?$basic_string@DU?$char_traits@D@std@@V?$allocator@D@2@@std@@QEAA@XZ 0000000180000000     fastHessianDetectorCore.obj
 0002:fffb0000       $unwind$??1?$big_any_policy@Uempty_any@anyimpl@cvflann@@@anyimpl@cvflann@@UEAA@XZ 0000000180000000     fastHessianDetectorCore.obj
 0002:fffb0000       $unwind$??1?$big_any_policy@V?$basic_string@DU?$char_traits@D@std@@V?$allocator@D@2@@std@@@anyimpl@cvflann@@UEAA@XZ 0000000180000000     fastHessianDetectorCore.obj
 0002:fffb0000       $unwind$??1?$big_any_policy@W4flann_algorithm_t@cvflann@@@anyimpl@cvflann@@UEAA@XZ 0000000180000000     fastHessianDetectorCore.obj
 0002:fffb0000       $unwind$??1?$big_any_policy@W4flann_centers_init_t@cvflann@@@anyimpl@cvflann@@UEAA@XZ 0000000180000000     fastHessianDetectorCore.obj
 0002:fffb0000       $unwind$??1?$shared_ptr@VMWSURF@cv@@@std@@QEAA@XZ 0000000180000000     fastHessianDetectorCore.obj
 0002:fffb0000       $unwind$??1?$small_any_policy@H@anyimpl@cvflann@@UEAA@XZ 0000000180000000     fastHessianDetectorCore.obj
 0002:fffb0000       $unwind$??1?$small_any_policy@I@anyimpl@cvflann@@UEAA@XZ 0000000180000000     fastHessianDetectorCore.obj
 0002:fffb0000       $unwind$??1?$small_any_policy@M@anyimpl@cvflann@@UEAA@XZ 0000000180000000     fastHessianDetectorCore.obj
 0002:fffb0000       $unwind$??1?$small_any_policy@PEBD@anyimpl@cvflann@@UEAA@XZ 0000000180000000     fastHessianDetectorCore.obj
 0002:fffb0000       $unwind$??1?$small_any_policy@_N@anyimpl@cvflann@@UEAA@XZ 0000000180000000     fastHessianDetectorCore.obj
 0002:fffb0000       $unwind$??1?$typed_base_any_policy@H@anyimpl@cvflann@@UEAA@XZ 0000000180000000     fastHessianDetectorCore.obj
 0002:fffb0000       $unwind$??1?$typed_base_any_policy@I@anyimpl@cvflann@@UEAA@XZ 0000000180000000     fastHessianDetectorCore.obj
 0002:fffb0000       $unwind$??1?$typed_base_any_policy@M@anyimpl@cvflann@@UEAA@XZ 0000000180000000     fastHessianDetectorCore.obj
 0002:fffb0000       $unwind$??1?$typed_base_any_policy@PEBD@anyimpl@cvflann@@UEAA@XZ 0000000180000000     fastHessianDetectorCore.obj
 0002:fffb0000       $unwind$??1?$typed_base_any_policy@Uempty_any@anyimpl@cvflann@@@anyimpl@cvflann@@UEAA@XZ 0000000180000000     fastHessianDetectorCore.obj
 0002:fffb0000       $unwind$??1?$typed_base_any_policy@V?$basic_string@DU?$char_traits@D@std@@V?$allocator@D@2@@std@@@anyimpl@cvflann@@UEAA@XZ 0000000180000000     fastHessianDetectorCore.obj
 0002:fffb0000       $unwind$??1?$typed_base_any_policy@W4flann_algorithm_t@cvflann@@@anyimpl@cvflann@@UEAA@XZ 0000000180000000     fastHessianDetectorCore.obj
 0002:fffb0000       $unwind$??1?$typed_base_any_policy@W4flann_centers_init_t@cvflann@@@anyimpl@cvflann@@UEAA@XZ 0000000180000000     fastHessianDetectorCore.obj
 0002:fffb0000       $unwind$??1?$typed_base_any_policy@_N@anyimpl@cvflann@@UEAA@XZ 0000000180000000     fastHessianDetectorCore.obj
 0002:fffb0000       $unwind$??1?$vector@VKeyPoint@cv@@V?$allocator@VKeyPoint@cv@@@std@@@std@@QEAA@XZ 0000000180000000     fastHessianDetectorCore.obj
 0002:fffb0000       $unwind$??1Mat@cv@@QEAA@XZ 0000000180000000     fastHessianDetectorCore.obj
 0002:fffb0000       $unwind$??1_Sentry_base@?$basic_ostream@DU?$char_traits@D@std@@@std@@QEAA@XZ 0000000180000000     fastHessianDetectorCore.obj
 0002:fffb0000       $unwind$??1bad_alloc@std@@UEAA@XZ 0000000180000000     fastHessianDetectorCore.obj
 0002:fffb0000       $unwind$??1bad_array_new_length@std@@UEAA@XZ 0000000180000000     fastHessianDetectorCore.obj
 0002:fffb0000       $unwind$??1exception@std@@UEAA@XZ 0000000180000000     fastHessianDetectorCore.obj
 0002:fffb0000       $unwind$??1sentry@?$basic_ostream@DU?$char_traits@D@std@@@std@@QEAA@XZ 0000000180000000     fastHessianDetectorCore.obj
 0002:fffb0000       $unwind$??4?$basic_string@DU?$char_traits@D@std@@V?$allocator@D@2@@std@@QEAAAEAV01@AEBV01@@Z 0000000180000000     fastHessianDetectorCore.obj
 0002:fffb0000       $unwind$??6anyimpl@cvflann@@YAAEAV?$basic_ostream@DU?$char_traits@D@std@@@std@@AEAV23@AEBUempty_any@01@@Z 0000000180000000     fastHessianDetectorCore.obj
 0002:fffb0000       $unwind$??A?$vector@VKeyPoint@cv@@V?$allocator@VKeyPoint@cv@@@std@@@std@@QEAAAEAVKeyPoint@cv@@_K@Z 0000000180000000     fastHessianDetectorCore.obj
 0002:fffb0000       $unwind$??C?$Ptr@VMWSURF@cv@@@cv@@QEBAPEAVMWSURF@1@XZ 0000000180000000     fastHessianDetectorCore.obj
 0002:fffb0000       $unwind$??R<lambda_66f57f934f28d61049862f64df852ff0>@@QEBAXQEAD_KQEBD@Z 0000000180000000     fastHessianDetectorCore.obj
 0002:fffb0000       $unwind$??_G?$_Ref_count_obj2@VMWSURF@cv@@@std@@UEAAPEAXI@Z 0000000180000000     fastHessianDetectorCore.obj
 0002:fffb0000       $unwind$??_G?$basic_string@DU?$char_traits@D@std@@V?$allocator@D@2@@std@@QEAAPEAXI@Z 0000000180000000     fastHessianDetectorCore.obj
 0002:fffb0000       $unwind$??_G?$big_any_policy@Uempty_any@anyimpl@cvflann@@@anyimpl@cvflann@@UEAAPEAXI@Z 0000000180000000     fastHessianDetectorCore.obj
 0002:fffb0000       $unwind$??_G?$big_any_policy@V?$basic_string@DU?$char_traits@D@std@@V?$allocator@D@2@@std@@@anyimpl@cvflann@@UEAAPEAXI@Z 0000000180000000     fastHessianDetectorCore.obj
 0002:fffb0000       $unwind$??_G?$big_any_policy@W4flann_algorithm_t@cvflann@@@anyimpl@cvflann@@UEAAPEAXI@Z 0000000180000000     fastHessianDetectorCore.obj
 0002:fffb0000       $unwind$??_G?$big_any_policy@W4flann_centers_init_t@cvflann@@@anyimpl@cvflann@@UEAAPEAXI@Z 0000000180000000     fastHessianDetectorCore.obj
 0002:fffb0000       $unwind$??_G?$small_any_policy@H@anyimpl@cvflann@@UEAAPEAXI@Z 0000000180000000     fastHessianDetectorCore.obj
 0002:fffb0000       $unwind$??_G?$small_any_policy@I@anyimpl@cvflann@@UEAAPEAXI@Z 0000000180000000     fastHessianDetectorCore.obj
 0002:fffb0000       $unwind$??_G?$small_any_policy@M@anyimpl@cvflann@@UEAAPEAXI@Z 0000000180000000     fastHessianDetectorCore.obj
 0002:fffb0000       $unwind$??_G?$small_any_policy@PEBD@anyimpl@cvflann@@UEAAPEAXI@Z 0000000180000000     fastHessianDetectorCore.obj
 0002:fffb0000       $unwind$??_G?$small_any_policy@_N@anyimpl@cvflann@@UEAAPEAXI@Z 0000000180000000     fastHessianDetectorCore.obj
 0002:fffb0000       $unwind$??_G?$vector@VKeyPoint@cv@@V?$allocator@VKeyPoint@cv@@@std@@@std@@QEAAPEAXI@Z 0000000180000000     fastHessianDetectorCore.obj
 0002:fffb0000       $unwind$??_Gbad_alloc@std@@UEAAPEAXI@Z 0000000180000000     fastHessianDetectorCore.obj
 0002:fffb0000       $unwind$??_Gbad_array_new_length@std@@UEAAPEAXI@Z 0000000180000000     fastHessianDetectorCore.obj
 0002:fffb0000       $unwind$??_Gbase_any_policy@anyimpl@cvflann@@UEAAPEAXI@Z 0000000180000000     fastHessianDetectorCore.obj
 0002:fffb0000       $unwind$??_Gexception@std@@UEAAPEAXI@Z 0000000180000000     fastHessianDetectorCore.obj
 0002:fffb0000       $unwind$?_Adjust_manually_vector_aligned@std@@YAXAEAPEAXAEA_K@Z 0000000180000000     fastHessianDetectorCore.obj
 0002:fffb0000       $unwind$?_Allocate@_Default_allocate_traits@std@@SAPEAX_K@Z 0000000180000000     fastHessianDetectorCore.obj
 0002:fffb0000       $unwind$?_Calculate_growth@?$basic_string@DU?$char_traits@D@std@@V?$allocator@D@2@@std@@AEBA_K_K@Z 0000000180000000     fastHessianDetectorCore.obj
 0002:fffb0000       $unwind$?_Calculate_growth@?$basic_string@DU?$char_traits@D@std@@V?$allocator@D@2@@std@@CA_K_K00@Z 0000000180000000     fastHessianDetectorCore.obj
 0002:fffb0000       $unwind$?_Construct_lv_contents@?$basic_string@DU?$char_traits@D@std@@V?$allocator@D@2@@std@@AEAAXAEBV12@@Z 0000000180000000     fastHessianDetectorCore.obj
 0002:fffb0000       $unwind$?_Copy_assign@?$basic_string@DU?$char_traits@D@std@@V?$allocator@D@2@@std@@AEAAXAEBV12@U?$integral_constant@_N$0A@@2@@Z 0000000180000000     fastHessianDetectorCore.obj
 0002:fffb0000       $unwind$?_Decref@?$_Ptr_base@VMWSURF@cv@@@std@@IEAAXXZ 0000000180000000     fastHessianDetectorCore.obj
 0002:fffb0000       $unwind$?_Decref@_Ref_count_base@std@@QEAAXXZ 0000000180000000     fastHessianDetectorCore.obj
 0002:fffb0000       $unwind$?_Decwref@_Ref_count_base@std@@QEAAXXZ 0000000180000000     fastHessianDetectorCore.obj
 0002:fffb0000       $unwind$?_Delete_this@?$_Ref_count_obj2@VMWSURF@cv@@@std@@EEAAXXZ 0000000180000000     fastHessianDetectorCore.obj
 0002:fffb0000       $unwind$?_Destroy@?$_Ref_count_obj2@VMWSURF@cv@@@std@@EEAAXXZ 0000000180000000     fastHessianDetectorCore.obj
 0002:fffb0000       $unwind$?_Destroy@?$vector@VKeyPoint@cv@@V?$allocator@VKeyPoint@cv@@@std@@@std@@AEAAXPEAVKeyPoint@cv@@0@Z 0000000180000000     fastHessianDetectorCore.obj
 0002:fffb0000       $unwind$?_Getal@?$basic_string@DU?$char_traits@D@std@@V?$allocator@D@2@@std@@AEAAAEAV?$allocator@D@2@XZ 0000000180000000     fastHessianDetectorCore.obj
 0002:fffb0000       $unwind$?_Getal@?$basic_string@DU?$char_traits@D@std@@V?$allocator@D@2@@std@@AEBAAEBV?$allocator@D@2@XZ 0000000180000000     fastHessianDetectorCore.obj
 0002:fffb0000       $unwind$?_Getal@?$vector@VKeyPoint@cv@@V?$allocator@VKeyPoint@cv@@@std@@@std@@AEAAAEAV?$allocator@VKeyPoint@cv@@@2@XZ 0000000180000000     fastHessianDetectorCore.obj
 0002:fffb0000       $unwind$?_Large_string_engaged@?$_String_val@U?$_Simple_types@D@std@@@std@@QEBA_NXZ 0000000180000000     fastHessianDetectorCore.obj
 0002:fffb0000       $unwind$?_Maklocwcs@std@@YAPEA_WPEB_W@Z 0000000180000000     fastHessianDetectorCore.obj
 0002:fffb0000       $unwind$?_Myptr@?$_String_val@U?$_Simple_types@D@std@@@std@@QEAAPEADXZ 0000000180000000     fastHessianDetectorCore.obj
 0002:fffb0000       $unwind$?_Myptr@?$_String_val@U?$_Simple_types@D@std@@@std@@QEBAPEBDXZ 0000000180000000     fastHessianDetectorCore.obj
 0002:fffb0000       $unwind$?_Throw_bad_array_new_length@std@@YAXXZ 0000000180000000     fastHessianDetectorCore.obj
 0002:fffb0000       $unwind$?_Tidy@?$vector@VKeyPoint@cv@@V?$allocator@VKeyPoint@cv@@@std@@@std@@AEAAXXZ 0000000180000000     fastHessianDetectorCore.obj
 0002:fffb0000       $unwind$?_Tidy_deallocate@?$basic_string@DU?$char_traits@D@std@@V?$allocator@D@2@@std@@AEAAXXZ 0000000180000000     fastHessianDetectorCore.obj
 0002:fffb0000       $unwind$?_Tidy_init@?$basic_string@DU?$char_traits@D@std@@V?$allocator@D@2@@std@@AEAAXXZ 0000000180000000     fastHessianDetectorCore.obj
 0002:fffb0000       $unwind$?_Xlen_string@std@@YAXXZ 0000000180000000     fastHessianDetectorCore.obj
 0002:fffb0000       $unwind$?allocate@?$allocator@D@std@@QEAAPEAD_K@Z 0000000180000000     fastHessianDetectorCore.obj
 0002:fffb0000       $unwind$?assign@?$basic_string@DU?$char_traits@D@std@@V?$allocator@D@2@@std@@QEAAAEAV12@QEBD@Z 0000000180000000     fastHessianDetectorCore.obj
 0002:fffb0000       $unwind$?assign@?$basic_string@DU?$char_traits@D@std@@V?$allocator@D@2@@std@@QEAAAEAV12@QEBD_K@Z 0000000180000000     fastHessianDetectorCore.obj
 0002:fffb0000       $unwind$?c_str@?$basic_string@DU?$char_traits@D@std@@V?$allocator@D@2@@std@@QEBAPEBDXZ 0000000180000000     fastHessianDetectorCore.obj
 0002:fffb0000       $unwind$?catch$1@?0???$?6U?$char_traits@D@std@@@std@@YAAEAV?$basic_ostream@DU?$char_traits@D@std@@@0@AEAV10@PEBD@Z@4HA 0000000180000000     fastHessianDetectorCore.obj
 0002:fffb0000       $unwind$?clone@?$big_any_policy@Uempty_any@anyimpl@cvflann@@@anyimpl@cvflann@@UEAAXPEBQEAXPEAPEAX@Z 0000000180000000     fastHessianDetectorCore.obj
 0002:fffb0000       $unwind$?clone@?$big_any_policy@V?$basic_string@DU?$char_traits@D@std@@V?$allocator@D@2@@std@@@anyimpl@cvflann@@UEAAXPEBQEAXPEAPEAX@Z 0000000180000000     fastHessianDetectorCore.obj
 0002:fffb0000       $unwind$?clone@?$big_any_policy@W4flann_algorithm_t@cvflann@@@anyimpl@cvflann@@UEAAXPEBQEAXPEAPEAX@Z 0000000180000000     fastHessianDetectorCore.obj
 0002:fffb0000       $unwind$?clone@?$big_any_policy@W4flann_centers_init_t@cvflann@@@anyimpl@cvflann@@UEAAXPEBQEAXPEAPEAX@Z 0000000180000000     fastHessianDetectorCore.obj
 0002:fffb0000       $unwind$?copy@?$_Char_traits@DH@std@@SAPEADQEADQEBD_K@Z 0000000180000000     fastHessianDetectorCore.obj
 0002:fffb0000       $unwind$?copy_from_value@?$big_any_policy@Uempty_any@anyimpl@cvflann@@@anyimpl@cvflann@@UEAAXPEBXPEAPEAX@Z 0000000180000000     fastHessianDetectorCore.obj
 0002:fffb0000       $unwind$?copy_from_value@?$big_any_policy@V?$basic_string@DU?$char_traits@D@std@@V?$allocator@D@2@@std@@@anyimpl@cvflann@@UEAAXPEBXPEAPEAX@Z 0000000180000000     fastHessianDetectorCore.obj
 0002:fffb0000       $unwind$?copy_from_value@?$big_any_policy@W4flann_algorithm_t@cvflann@@@anyimpl@cvflann@@UEAAXPEBXPEAPEAX@Z 0000000180000000     fastHessianDetectorCore.obj
 0002:fffb0000       $unwind$?copy_from_value@?$big_any_policy@W4flann_centers_init_t@cvflann@@@anyimpl@cvflann@@UEAAXPEBXPEAPEAX@Z 0000000180000000     fastHessianDetectorCore.obj
 0002:fffb0000       $unwind$?copy_from_value@?$small_any_policy@H@anyimpl@cvflann@@UEAAXPEBXPEAPEAX@Z 0000000180000000     fastHessianDetectorCore.obj
 0002:fffb0000       $unwind$?copy_from_value@?$small_any_policy@I@anyimpl@cvflann@@UEAAXPEBXPEAPEAX@Z 0000000180000000     fastHessianDetectorCore.obj
 0002:fffb0000       $unwind$?copy_from_value@?$small_any_policy@M@anyimpl@cvflann@@UEAAXPEBXPEAPEAX@Z 0000000180000000     fastHessianDetectorCore.obj
 0002:fffb0000       $unwind$?copy_from_value@?$small_any_policy@PEBD@anyimpl@cvflann@@UEAAXPEBXPEAPEAX@Z 0000000180000000     fastHessianDetectorCore.obj
 0002:fffb0000       $unwind$?copy_from_value@?$small_any_policy@_N@anyimpl@cvflann@@UEAAXPEBXPEAPEAX@Z 0000000180000000     fastHessianDetectorCore.obj
 0002:fffb0000       $unwind$?deallocate@?$allocator@D@std@@QEAAXQEAD_K@Z 0000000180000000     fastHessianDetectorCore.obj
 0002:fffb0000       $unwind$?deallocate@?$allocator@VKeyPoint@cv@@@std@@QEAAXQEAVKeyPoint@cv@@_K@Z 0000000180000000     fastHessianDetectorCore.obj
 0002:fffb0000       $unwind$?dtor$0@?0???$?0$$V@?$_Ref_count_obj2@VMWSURF@cv@@@std@@QEAA@XZ@4HA 0000000180000000     fastHessianDetectorCore.obj
 0002:fffb0000       $unwind$?dtor$0@?0???$?6U?$char_traits@D@std@@@std@@YAAEAV?$basic_ostream@DU?$char_traits@D@std@@@0@AEAV10@PEBD@Z@4HA 0000000180000000     fastHessianDetectorCore.obj
 0002:fffb0000       $unwind$?dtor$0@?0???$make_shared@VMWSURF@cv@@$$V@std@@YA?AV?$shared_ptr@VMWSURF@cv@@@0@XZ@4HA 0000000180000000     fastHessianDetectorCore.obj
 0002:fffb0000       $unwind$?dtor$0@?0???0?$basic_string@DU?$char_traits@D@std@@V?$allocator@D@2@@std@@QEAA@AEBV01@@Z@4HA 0000000180000000     fastHessianDetectorCore.obj
 0002:fffb0000       $unwind$?dtor$0@?0???0?$basic_string@DU?$char_traits@D@std@@V?$allocator@D@2@@std@@QEAA@QEBD@Z@4HA 0000000180000000     fastHessianDetectorCore.obj
 0002:fffb0000       $unwind$?dtor$0@?0???0Mat@cv@@QEAA@HHHPEAX_K@Z@4HA 0000000180000000     fastHessianDetectorCore.obj
 0002:fffb0000       $unwind$?dtor$0@?0???0sentry@?$basic_ostream@DU?$char_traits@D@std@@@std@@QEAA@AEAV12@@Z@4HA 0000000180000000     fastHessianDetectorCore.obj
 0002:fffb0000       $unwind$?dtor$0@?0??clone@?$big_any_policy@V?$basic_string@DU?$char_traits@D@std@@V?$allocator@D@2@@std@@@anyimpl@cvflann@@UEAAXPEBQEAXPEAPEAX@Z@4HA 0000000180000000     fastHessianDetectorCore.obj
 0002:fffb0000       $unwind$?dtor$0@?0??copy_from_value@?$big_any_policy@V?$basic_string@DU?$char_traits@D@std@@V?$allocator@D@2@@std@@@anyimpl@cvflann@@UEAAXPEBXPEAPEAX@Z@4HA 0000000180000000     fastHessianDetectorCore.obj
 0002:fffb0000       $unwind$?dtor$1@?0???0Mat@cv@@QEAA@HHHPEAX_K@Z@4HA 0000000180000000     fastHessianDetectorCore.obj
 0002:fffb0000       $unwind$?empty@?$Ptr@VMWSURF@cv@@@cv@@QEBA_NXZ 0000000180000000     fastHessianDetectorCore.obj
 0002:fffb0000       $unwind$?eq_int_type@?$_Narrow_char_traits@DH@std@@SA_NAEBH0@Z 0000000180000000     fastHessianDetectorCore.obj
 0002:fffb0000       $unwind$?length@?$_Narrow_char_traits@DH@std@@SA_KQEBD@Z 0000000180000000     fastHessianDetectorCore.obj
 0002:fffb0000       $unwind$?max_size@?$basic_string@DU?$char_traits@D@std@@V?$allocator@D@2@@std@@QEBA_KXZ 0000000180000000     fastHessianDetectorCore.obj
 0002:fffb0000       $unwind$?move@?$_Char_traits@DH@std@@SAPEADQEADQEBD_K@Z 0000000180000000     fastHessianDetectorCore.obj
 0002:fffb0000       $unwind$?move@?$big_any_policy@V?$basic_string@DU?$char_traits@D@std@@V?$allocator@D@2@@std@@@anyimpl@cvflann@@UEAAXPEBQEAXPEAPEAX@Z 0000000180000000     fastHessianDetectorCore.obj
 0002:fffb0000       $unwind$?print@?$big_any_policy@Uempty_any@anyimpl@cvflann@@@anyimpl@cvflann@@UEAAXAEAV?$basic_ostream@DU?$char_traits@D@std@@@std@@PEBQEAX@Z 0000000180000000     fastHessianDetectorCore.obj
 0002:fffb0000       $unwind$?print@?$big_any_policy@V?$basic_string@DU?$char_traits@D@std@@V?$allocator@D@2@@std@@@anyimpl@cvflann@@UEAAXAEAV?$basic_ostream@DU?$char_traits@D@std@@@std@@PEBQEAX@Z 0000000180000000     fastHessianDetectorCore.obj
 0002:fffb0000       $unwind$?print@?$big_any_policy@W4flann_algorithm_t@cvflann@@@anyimpl@cvflann@@UEAAXAEAV?$basic_ostream@DU?$char_traits@D@std@@@std@@PEBQEAX@Z 0000000180000000     fastHessianDetectorCore.obj
 0002:fffb0000       $unwind$?print@?$big_any_policy@W4flann_centers_init_t@cvflann@@@anyimpl@cvflann@@UEAAXAEAV?$basic_ostream@DU?$char_traits@D@std@@@std@@PEBQEAX@Z 0000000180000000     fastHessianDetectorCore.obj
 0002:fffb0000       $unwind$?print@?$small_any_policy@H@anyimpl@cvflann@@UEAAXAEAV?$basic_ostream@DU?$char_traits@D@std@@@std@@PEBQEAX@Z 0000000180000000     fastHessianDetectorCore.obj
 0002:fffb0000       $unwind$?print@?$small_any_policy@I@anyimpl@cvflann@@UEAAXAEAV?$basic_ostream@DU?$char_traits@D@std@@@std@@PEBQEAX@Z 0000000180000000     fastHessianDetectorCore.obj
 0002:fffb0000       $unwind$?print@?$small_any_policy@M@anyimpl@cvflann@@UEAAXAEAV?$basic_ostream@DU?$char_traits@D@std@@@std@@PEBQEAX@Z 0000000180000000     fastHessianDetectorCore.obj
 0002:fffb0000       $unwind$?print@?$small_any_policy@PEBD@anyimpl@cvflann@@UEAAXAEAV?$basic_ostream@DU?$char_traits@D@std@@@std@@PEBQEAX@Z 0000000180000000     fastHessianDetectorCore.obj
 0002:fffb0000       $unwind$?print@?$small_any_policy@_N@anyimpl@cvflann@@UEAAXAEAV?$basic_ostream@DU?$char_traits@D@std@@@std@@PEBQEAX@Z 0000000180000000     fastHessianDetectorCore.obj
 0002:fffb0000       $unwind$?release@Mat@cv@@QEAAXXZ 0000000180000000     fastHessianDetectorCore.obj
 0002:fffb0000       $unwind$?size@?$vector@VKeyPoint@cv@@V?$allocator@VKeyPoint@cv@@@std@@@std@@QEBA_KXZ 0000000180000000     fastHessianDetectorCore.obj
 0002:fffb0000       $unwind$?static_delete@?$big_any_policy@Uempty_any@anyimpl@cvflann@@@anyimpl@cvflann@@UEAAXPEAPEAX@Z 0000000180000000     fastHessianDetectorCore.obj
 0002:fffb0000       $unwind$?static_delete@?$big_any_policy@V?$basic_string@DU?$char_traits@D@std@@V?$allocator@D@2@@std@@@anyimpl@cvflann@@UEAAXPEAPEAX@Z 0000000180000000     fastHessianDetectorCore.obj
 0002:fffb0000       $unwind$?static_delete@?$big_any_policy@W4flann_algorithm_t@cvflann@@@anyimpl@cvflann@@UEAAXPEAPEAX@Z 0000000180000000     fastHessianDetectorCore.obj
 0002:fffb0000       $unwind$?static_delete@?$big_any_policy@W4flann_centers_init_t@cvflann@@@anyimpl@cvflann@@UEAAXPEAPEAX@Z 0000000180000000     fastHessianDetectorCore.obj
 0002:fffb0000       $unwind$?total@Mat@cv@@QEBA_KXZ 0000000180000000     fastHessianDetectorCore.obj
 0002:fffb0000       $unwind$?what@exception@std@@UEBAPEBDXZ 0000000180000000     fastHessianDetectorCore.obj
 0002:fffb0000       $unwind$wmemcpy            0000000180000000     fastHessianDetectorCore.obj
 0002:fffb0000       ??policy$initializer$@?$SinglePolicy@H@anyimpl@cvflann@@0P6AXXZEA@@3P6AXXZEA 0000000180000000     fastHessianDetectorCore.obj
 0002:fffb0000       ??policy$initializer$@?$SinglePolicy@I@anyimpl@cvflann@@0P6AXXZEA@@3P6AXXZEA 0000000180000000     fastHessianDetectorCore.obj
 0002:fffb0000       ??policy$initializer$@?$SinglePolicy@M@anyimpl@cvflann@@0P6AXXZEA@@3P6AXXZEA 0000000180000000     fastHessianDetectorCore.obj
 0002:fffb0000       ??policy$initializer$@?$SinglePolicy@PEBD@anyimpl@cvflann@@0P6AXXZEA@@3P6AXXZEA 0000000180000000     fastHessianDetectorCore.obj
 0002:fffb0000       ??policy$initializer$@?$SinglePolicy@Uempty_any@anyimpl@cvflann@@@anyimpl@cvflann@@0P6AXXZEA@@3P6AXXZEA 0000000180000000     fastHessianDetectorCore.obj
 0002:fffb0000       ??policy$initializer$@?$SinglePolicy@V?$basic_string@DU?$char_traits@D@std@@V?$allocator@D@2@@std@@@anyimpl@cvflann@@0P6AXXZEA@@3P6AXXZEA 0000000180000000     fastHessianDetectorCore.obj
 0002:fffb0000       ??policy$initializer$@?$SinglePolicy@W4flann_algorithm_t@cvflann@@@anyimpl@cvflann@@0P6AXXZEA@@3P6AXXZEA 0000000180000000     fastHessianDetectorCore.obj
 0002:fffb0000       ??policy$initializer$@?$SinglePolicy@W4flann_centers_init_t@cvflann@@@anyimpl@cvflann@@0P6AXXZEA@@3P6AXXZEA 0000000180000000     fastHessianDetectorCore.obj
 0002:fffb0000       ??policy$initializer$@?$SinglePolicy@_N@anyimpl@cvflann@@0P6AXXZEA@@3P6AXXZEA 0000000180000000     fastHessianDetectorCore.obj
 0001:fffff000       ?catch$1@?0???$?6U?$char_traits@D@std@@@std@@YAAEAV?$basic_ostream@DU?$char_traits@D@std@@@0@AEAV10@PEBD@Z@4HA 0000000180000000 f   fastHessianDetectorCore.obj
 0001:fffff000       ?dtor$0@?0???$?0$$V@?$_Ref_count_obj2@VMWSURF@cv@@@std@@QEAA@XZ@4HA 0000000180000000 f   fastHessianDetectorCore.obj
 0001:fffff000       ?dtor$0@?0???$?6U?$char_traits@D@std@@@std@@YAAEAV?$basic_ostream@DU?$char_traits@D@std@@@0@AEAV10@PEBD@Z@4HA 0000000180000000 f   fastHessianDetectorCore.obj
 0001:fffff000       ?dtor$0@?0???$make_shared@VMWSURF@cv@@$$V@std@@YA?AV?$shared_ptr@VMWSURF@cv@@@0@XZ@4HA 0000000180000000 f   fastHessianDetectorCore.obj
 0001:fffff000       ?dtor$0@?0???0?$basic_string@DU?$char_traits@D@std@@V?$allocator@D@2@@std@@QEAA@AEBV01@@Z@4HA 0000000180000000 f   fastHessianDetectorCore.obj
 0001:fffff000       ?dtor$0@?0???0?$basic_string@DU?$char_traits@D@std@@V?$allocator@D@2@@std@@QEAA@QEBD@Z@4HA 0000000180000000 f   fastHessianDetectorCore.obj
 0001:fffff000       ?dtor$0@?0???0Mat@cv@@QEAA@HHHPEAX_K@Z@4HA 0000000180000000 f   fastHessianDetectorCore.obj
 0001:fffff000       ?dtor$0@?0???0sentry@?$basic_ostream@DU?$char_traits@D@std@@@std@@QEAA@AEAV12@@Z@4HA 0000000180000000 f   fastHessianDetectorCore.obj
 0001:fffff000       ?dtor$0@?0??clone@?$big_any_policy@V?$basic_string@DU?$char_traits@D@std@@V?$allocator@D@2@@std@@@anyimpl@cvflann@@UEAAXPEBQEAXPEAPEAX@Z@4HA 0000000180000000 f   fastHessianDetectorCore.obj
 0001:fffff000       ?dtor$0@?0??copy_from_value@?$big_any_policy@V?$basic_string@DU?$char_traits@D@std@@V?$allocator@D@2@@std@@@anyimpl@cvflann@@UEAAXPEBXPEAPEAX@Z@4HA 0000000180000000 f   fastHessianDetectorCore.obj
 0001:fffff000       ?dtor$1@?0???0Mat@cv@@QEAA@HHHPEAX_K@Z@4HA 0000000180000000 f   fastHessianDetectorCore.obj
 0000:00000000       .debug$S                   0000000180000000     flightControlSystem_sfun.exp
 0002:fffb0000       $cppxdata$??$_Deallocate@$0BA@$0A@@std@@YAXPEAX_K@Z 0000000180000000     mwsurf.obj
 0002:fffb0000       $cppxdata$??$_Emplace_reallocate@AEBVKeyPoint@cv@@@?$vector@VKeyPoint@cv@@V?$allocator@VKeyPoint@cv@@@std@@@std@@QEAAPEAVKeyPoint@cv@@QEAV23@AEBV23@@Z 0000000180000000     mwsurf.obj
 0002:fffb0000       $cppxdata$??$_Uninitialized_move@PEAVKeyPoint@cv@@V?$allocator@VKeyPoint@cv@@@std@@@std@@YAPEAVKeyPoint@cv@@QEAV12@0PEAV12@AEAV?$allocator@VKeyPoint@cv@@@0@@Z 0000000180000000     mwsurf.obj
 0002:fffb0000       $cppxdata$??0?$basic_string@DU?$char_traits@D@std@@V?$allocator@D@2@@std@@QEAA@QEBD@Z 0000000180000000     mwsurf.obj
 0002:fffb0000       $cppxdata$??0Mat@cv@@QEAA@HHHPEAX_K@Z 0000000180000000     mwsurf.obj
 0002:fffb0000       $cppxdata$??0exception@std@@QEAA@AEBV01@@Z 0000000180000000     mwsurf.obj
 0002:fffb0000       $cppxdata$??1Mat@cv@@QEAA@XZ 0000000180000000     mwsurf.obj
 0002:fffb0000       $cppxdata$??1exception@std@@UEAA@XZ 0000000180000000     mwsurf.obj
 0002:fffb0000       $cppxdata$?_Tidy_deallocate@?$basic_string@DU?$char_traits@D@std@@V?$allocator@D@2@@std@@AEAAXXZ 0000000180000000     mwsurf.obj
 0002:fffb0000       $cppxdata$?copy@?$_Char_traits@DH@std@@SAPEADQEADQEBD_K@Z 0000000180000000     mwsurf.obj
 0002:fffb0000       $cppxdata$?length@?$_Narrow_char_traits@DH@std@@SA_KQEBD@Z 0000000180000000     mwsurf.obj
 0002:fffb0000       $cppxdata$?move@?$_Char_traits@DH@std@@SAPEADQEADQEBD_K@Z 0000000180000000     mwsurf.obj
 0002:fffb0000       $handlerMap$??$_Emplace_reallocate@AEBVKeyPoint@cv@@@?$vector@VKeyPoint@cv@@V?$allocator@VKeyPoint@cv@@@std@@@std@@QEAAPEAVKeyPoint@cv@@QEAV23@AEBV23@@Z 0000000180000000     mwsurf.obj
 0002:fffb0000       $ip2state$??$_Deallocate@$0BA@$0A@@std@@YAXPEAX_K@Z 0000000180000000     mwsurf.obj
 0002:fffb0000       $ip2state$??$_Emplace_reallocate@AEBVKeyPoint@cv@@@?$vector@VKeyPoint@cv@@V?$allocator@VKeyPoint@cv@@@std@@@std@@QEAAPEAVKeyPoint@cv@@QEAV23@AEBV23@@Z 0000000180000000     mwsurf.obj
 0002:fffb0000       $ip2state$??$_Uninitialized_move@PEAVKeyPoint@cv@@V?$allocator@VKeyPoint@cv@@@std@@@std@@YAPEAVKeyPoint@cv@@QEAV12@0PEAV12@AEAV?$allocator@VKeyPoint@cv@@@0@@Z 0000000180000000     mwsurf.obj
 0002:fffb0000       $ip2state$??0?$basic_string@DU?$char_traits@D@std@@V?$allocator@D@2@@std@@QEAA@QEBD@Z 0000000180000000     mwsurf.obj
 0002:fffb0000       $ip2state$??0Mat@cv@@QEAA@HHHPEAX_K@Z 0000000180000000     mwsurf.obj
 0002:fffb0000       $ip2state$??0exception@std@@QEAA@AEBV01@@Z 0000000180000000     mwsurf.obj
 0002:fffb0000       $ip2state$??1Mat@cv@@QEAA@XZ 0000000180000000     mwsurf.obj
 0002:fffb0000       $ip2state$??1exception@std@@UEAA@XZ 0000000180000000     mwsurf.obj
 0002:fffb0000       $ip2state$?_Tidy_deallocate@?$basic_string@DU?$char_traits@D@std@@V?$allocator@D@2@@std@@AEAAXXZ 0000000180000000     mwsurf.obj
 0002:fffb0000       $ip2state$?copy@?$_Char_traits@DH@std@@SAPEADQEADQEBD_K@Z 0000000180000000     mwsurf.obj
 0002:fffb0000       $ip2state$?length@?$_Narrow_char_traits@DH@std@@SA_KQEBD@Z 0000000180000000     mwsurf.obj
 0002:fffb0000       $ip2state$?move@?$_Char_traits@DH@std@@SAPEADQEADQEBD_K@Z 0000000180000000     mwsurf.obj
 0002:fffb0000       $stateUnwindMap$??$_Emplace_reallocate@AEBVKeyPoint@cv@@@?$vector@VKeyPoint@cv@@V?$allocator@VKeyPoint@cv@@@std@@@std@@QEAAPEAVKeyPoint@cv@@QEAV23@AEBV23@@Z 0000000180000000     mwsurf.obj
 0002:fffb0000       $stateUnwindMap$??$_Uninitialized_move@PEAVKeyPoint@cv@@V?$allocator@VKeyPoint@cv@@@std@@@std@@YAPEAVKeyPoint@cv@@QEAV12@0PEAV12@AEAV?$allocator@VKeyPoint@cv@@@0@@Z 0000000180000000     mwsurf.obj
 0002:fffb0000       $stateUnwindMap$??0?$basic_string@DU?$char_traits@D@std@@V?$allocator@D@2@@std@@QEAA@QEBD@Z 0000000180000000     mwsurf.obj
 0002:fffb0000       $stateUnwindMap$??0Mat@cv@@QEAA@HHHPEAX_K@Z 0000000180000000     mwsurf.obj
 0002:fffb0000       $tryMap$??$_Emplace_reallocate@AEBVKeyPoint@cv@@@?$vector@VKeyPoint@cv@@V?$allocator@VKeyPoint@cv@@@std@@@std@@QEAAPEAVKeyPoint@cv@@QEAV23@AEBV23@@Z 0000000180000000     mwsurf.obj
 0002:fffb0000       $unwind$??$?0$$V@?$_Compressed_pair@V?$allocator@D@std@@V?$_String_val@U?$_Simple_types@D@std@@@2@$00@std@@QEAA@U_Zero_then_variadic_args_t@1@@Z 0000000180000000     mwsurf.obj
 0002:fffb0000       $unwind$??$_Allocate@$0BA@U_Default_allocate_traits@std@@$0A@@std@@YAPEAX_K@Z 0000000180000000     mwsurf.obj
 0002:fffb0000       $unwind$??$_Allocate_manually_vector_aligned@U_Default_allocate_traits@std@@@std@@YAPEAX_K@Z 0000000180000000     mwsurf.obj
 0002:fffb0000       $unwind$??$_Construct_in_place@PEADAEBQEAD@std@@YAXAEAPEADAEBQEAD@Z 0000000180000000     mwsurf.obj
 0002:fffb0000       $unwind$??$_Deallocate@$0BA@$0A@@std@@YAXPEAX_K@Z 0000000180000000     mwsurf.obj
 0002:fffb0000       $unwind$??$_Emplace_back@VKeyPoint@cv@@@?$_Uninitialized_backout_al@V?$allocator@VKeyPoint@cv@@@std@@@std@@QEAAX$$QEAVKeyPoint@cv@@@Z 0000000180000000     mwsurf.obj
 0002:fffb0000       $unwind$??$_Emplace_back_with_unused_capacity@AEBVKeyPoint@cv@@@?$vector@VKeyPoint@cv@@V?$allocator@VKeyPoint@cv@@@std@@@std@@AEAAXAEBVKeyPoint@cv@@@Z 0000000180000000     mwsurf.obj
 0002:fffb0000       $unwind$??$_Emplace_reallocate@AEBVKeyPoint@cv@@@?$vector@VKeyPoint@cv@@V?$allocator@VKeyPoint@cv@@@std@@@std@@QEAAPEAVKeyPoint@cv@@QEAV23@AEBV23@@Z 0000000180000000     mwsurf.obj
 0002:fffb0000       $unwind$??$_Get_size_of_n@$00@std@@YA_K_K@Z 0000000180000000     mwsurf.obj
 0002:fffb0000       $unwind$??$_Get_size_of_n@$0BM@@std@@YA_K_K@Z 0000000180000000     mwsurf.obj
 0002:fffb0000       $unwind$??$_Reallocate_for@V<lambda_66f57f934f28d61049862f64df852ff0>@@PEBD@?$basic_string@DU?$char_traits@D@std@@V?$allocator@D@2@@std@@AEAAAEAV01@_KV<lambda_66f57f934f28d61049862f64df852ff0>@@PEBD@Z 0000000180000000     mwsurf.obj
 0002:fffb0000       $unwind$??$_Uninitialized_move@PEAVKeyPoint@cv@@V?$allocator@VKeyPoint@cv@@@std@@@std@@YAPEAVKeyPoint@cv@@QEAV12@0PEAV12@AEAV?$allocator@VKeyPoint@cv@@@0@@Z 0000000180000000     mwsurf.obj
 0002:fffb0000       $unwind$??$construct@VKeyPoint@cv@@AEBV12@@?$_Default_allocator_traits@V?$allocator@VKeyPoint@cv@@@std@@@std@@SAXAEAV?$allocator@VKeyPoint@cv@@@1@QEAVKeyPoint@cv@@AEBV34@@Z 0000000180000000     mwsurf.obj
 0002:fffb0000       $unwind$??$construct@VKeyPoint@cv@@V12@@?$_Default_allocator_traits@V?$allocator@VKeyPoint@cv@@@std@@@std@@SAXAEAV?$allocator@VKeyPoint@cv@@@1@QEAVKeyPoint@cv@@$$QEAV34@@Z 0000000180000000     mwsurf.obj
 0002:fffb0000       $unwind$??$emplace_back@AEBVKeyPoint@cv@@@?$vector@VKeyPoint@cv@@V?$allocator@VKeyPoint@cv@@@std@@@std@@QEAAXAEBVKeyPoint@cv@@@Z 0000000180000000     mwsurf.obj
 0002:fffb0000       $unwind$??$max@_K@std@@YAAEB_KAEB_K0@Z 0000000180000000     mwsurf.obj
 0002:fffb0000       $unwind$??$min@_K@std@@YAAEB_KAEB_K0@Z 0000000180000000     mwsurf.obj
 0002:fffb0000       $unwind$??0?$Point_@M@cv@@QEAA@$$QEAV01@@Z 0000000180000000     mwsurf.obj
 0002:fffb0000       $unwind$??0?$_String_val@U?$_Simple_types@D@std@@@std@@QEAA@XZ 0000000180000000     mwsurf.obj
 0002:fffb0000       $unwind$??0?$basic_string@DU?$char_traits@D@std@@V?$allocator@D@2@@std@@QEAA@QEBD@Z 0000000180000000     mwsurf.obj
 0002:fffb0000       $unwind$??0KeyPoint@cv@@QEAA@$$QEAV01@@Z 0000000180000000     mwsurf.obj
 0002:fffb0000       $unwind$??0KeyPoint@cv@@QEAA@AEBV01@@Z 0000000180000000     mwsurf.obj
 0002:fffb0000       $unwind$??0KeyPoint@cv@@QEAA@MMMMMHH@Z 0000000180000000     mwsurf.obj
 0002:fffb0000       $unwind$??0Mat@cv@@QEAA@AEBV01@@Z 0000000180000000     mwsurf.obj
 0002:fffb0000       $unwind$??0Mat@cv@@QEAA@HHHPEAX_K@Z 0000000180000000     mwsurf.obj
 0002:fffb0000       $unwind$??0Mat@cv@@QEAA@XZ 0000000180000000     mwsurf.obj
 0002:fffb0000       $unwind$??0bad_alloc@std@@AEAA@QEBD@Z 0000000180000000     mwsurf.obj
 0002:fffb0000       $unwind$??0bad_alloc@std@@QEAA@AEBV01@@Z 0000000180000000     mwsurf.obj
 0002:fffb0000       $unwind$??0bad_array_new_length@std@@QEAA@AEBV01@@Z 0000000180000000     mwsurf.obj
 0002:fffb0000       $unwind$??0bad_array_new_length@std@@QEAA@XZ 0000000180000000     mwsurf.obj
 0002:fffb0000       $unwind$??0exception@std@@QEAA@AEBV01@@Z 0000000180000000     mwsurf.obj
 0002:fffb0000       $unwind$??0exception@std@@QEAA@QEBDH@Z 0000000180000000     mwsurf.obj
 0002:fffb0000       $unwind$??1?$_Compressed_pair@V?$allocator@D@std@@V?$_String_val@U?$_Simple_types@D@std@@@2@$00@std@@QEAA@XZ 0000000180000000     mwsurf.obj
 0002:fffb0000       $unwind$??1?$_String_val@U?$_Simple_types@D@std@@@std@@QEAA@XZ 0000000180000000     mwsurf.obj
 0002:fffb0000       $unwind$??1?$_Uninitialized_backout_al@V?$allocator@VKeyPoint@cv@@@std@@@std@@QEAA@XZ 0000000180000000     mwsurf.obj
 0002:fffb0000       $unwind$??1?$basic_string@DU?$char_traits@D@std@@V?$allocator@D@2@@std@@QEAA@XZ 0000000180000000     mwsurf.obj
 0002:fffb0000       $unwind$??1Mat@cv@@QEAA@XZ 0000000180000000     mwsurf.obj
 0002:fffb0000       $unwind$??1bad_alloc@std@@UEAA@XZ 0000000180000000     mwsurf.obj
 0002:fffb0000       $unwind$??1bad_array_new_length@std@@UEAA@XZ 0000000180000000     mwsurf.obj
 0002:fffb0000       $unwind$??1exception@std@@UEAA@XZ 0000000180000000     mwsurf.obj
 0002:fffb0000       $unwind$??A?$vector@VKeyPoint@cv@@V?$allocator@VKeyPoint@cv@@@std@@@std@@QEAAAEAVKeyPoint@cv@@_K@Z 0000000180000000     mwsurf.obj
 0002:fffb0000       $unwind$??R<lambda_66f57f934f28d61049862f64df852ff0>@@QEBAXQEAD_KQEBD@Z 0000000180000000     mwsurf.obj
 0002:fffb0000       $unwind$??RMatSize@cv@@QEBA?AV?$Size_@H@1@XZ 0000000180000000     mwsurf.obj
 0002:fffb0000       $unwind$??_GMat@cv@@QEAAPEAXI@Z 0000000180000000     mwsurf.obj
 0002:fffb0000       $unwind$??_Gbad_alloc@std@@UEAAPEAXI@Z 0000000180000000     mwsurf.obj
 0002:fffb0000       $unwind$??_Gbad_array_new_length@std@@UEAAPEAXI@Z 0000000180000000     mwsurf.obj
 0002:fffb0000       $unwind$??_Gexception@std@@UEAAPEAXI@Z 0000000180000000     mwsurf.obj
 0002:fffb0000       $unwind$?_Adjust_manually_vector_aligned@std@@YAXAEAPEAXAEA_K@Z 0000000180000000     mwsurf.obj
 0002:fffb0000       $unwind$?_Allocate@_Default_allocate_traits@std@@SAPEAX_K@Z 0000000180000000     mwsurf.obj
 0002:fffb0000       $unwind$?_Calculate_growth@?$basic_string@DU?$char_traits@D@std@@V?$allocator@D@2@@std@@AEBA_K_K@Z 0000000180000000     mwsurf.obj
 0002:fffb0000       $unwind$?_Calculate_growth@?$basic_string@DU?$char_traits@D@std@@V?$allocator@D@2@@std@@CA_K_K00@Z 0000000180000000     mwsurf.obj
 0002:fffb0000       $unwind$?_Calculate_growth@?$vector@VKeyPoint@cv@@V?$allocator@VKeyPoint@cv@@@std@@@std@@AEBA_K_K@Z 0000000180000000     mwsurf.obj
 0002:fffb0000       $unwind$?_Change_array@?$vector@VKeyPoint@cv@@V?$allocator@VKeyPoint@cv@@@std@@@std@@AEAAXQEAVKeyPoint@cv@@_K1@Z 0000000180000000     mwsurf.obj
 0002:fffb0000       $unwind$?_Decref@_Ref_count_base@std@@QEAAXXZ 0000000180000000     mwsurf.obj
 0002:fffb0000       $unwind$?_Decwref@_Ref_count_base@std@@QEAAXXZ 0000000180000000     mwsurf.obj
 0002:fffb0000       $unwind$?_Destroy@?$vector@VKeyPoint@cv@@V?$allocator@VKeyPoint@cv@@@std@@@std@@AEAAXPEAVKeyPoint@cv@@0@Z 0000000180000000     mwsurf.obj
 0002:fffb0000       $unwind$?_Getal@?$basic_string@DU?$char_traits@D@std@@V?$allocator@D@2@@std@@AEAAAEAV?$allocator@D@2@XZ 0000000180000000     mwsurf.obj
 0002:fffb0000       $unwind$?_Getal@?$basic_string@DU?$char_traits@D@std@@V?$allocator@D@2@@std@@AEBAAEBV?$allocator@D@2@XZ 0000000180000000     mwsurf.obj
 0002:fffb0000       $unwind$?_Getal@?$vector@VKeyPoint@cv@@V?$allocator@VKeyPoint@cv@@@std@@@std@@AEAAAEAV?$allocator@VKeyPoint@cv@@@2@XZ 0000000180000000     mwsurf.obj
 0002:fffb0000       $unwind$?_Getal@?$vector@VKeyPoint@cv@@V?$allocator@VKeyPoint@cv@@@std@@@std@@AEBAAEBV?$allocator@VKeyPoint@cv@@@2@XZ 0000000180000000     mwsurf.obj
 0002:fffb0000       $unwind$?_Large_string_engaged@?$_String_val@U?$_Simple_types@D@std@@@std@@QEBA_NXZ 0000000180000000     mwsurf.obj
 0002:fffb0000       $unwind$?_Myptr@?$_String_val@U?$_Simple_types@D@std@@@std@@QEAAPEADXZ 0000000180000000     mwsurf.obj
 0002:fffb0000       $unwind$?_Throw_bad_array_new_length@std@@YAXXZ 0000000180000000     mwsurf.obj
 0002:fffb0000       $unwind$?_Tidy_deallocate@?$basic_string@DU?$char_traits@D@std@@V?$allocator@D@2@@std@@AEAAXXZ 0000000180000000     mwsurf.obj
 0002:fffb0000       $unwind$?_Tidy_init@?$basic_string@DU?$char_traits@D@std@@V?$allocator@D@2@@std@@AEAAXXZ 0000000180000000     mwsurf.obj
 0002:fffb0000       $unwind$?_Umove@?$vector@VKeyPoint@cv@@V?$allocator@VKeyPoint@cv@@@std@@@std@@AEAAPEAVKeyPoint@cv@@PEAV34@00@Z 0000000180000000     mwsurf.obj
 0002:fffb0000       $unwind$?_Umove_if_noexcept1@?$vector@VKeyPoint@cv@@V?$allocator@VKeyPoint@cv@@@std@@@std@@AEAAXPEAVKeyPoint@cv@@00U?$integral_constant@_N$00@2@@Z 0000000180000000     mwsurf.obj
 0002:fffb0000       $unwind$?_Umove_if_noexcept@?$vector@VKeyPoint@cv@@V?$allocator@VKeyPoint@cv@@@std@@@std@@AEAAXPEAVKeyPoint@cv@@00@Z 0000000180000000     mwsurf.obj
 0002:fffb0000       $unwind$?_Xlen_string@std@@YAXXZ 0000000180000000     mwsurf.obj
 0002:fffb0000       $unwind$?_Xlength@?$vector@VKeyPoint@cv@@V?$allocator@VKeyPoint@cv@@@std@@@std@@CAXXZ 0000000180000000     mwsurf.obj
 0002:fffb0000       $unwind$?allocate@?$allocator@D@std@@QEAAPEAD_K@Z 0000000180000000     mwsurf.obj
 0002:fffb0000       $unwind$?allocate@?$allocator@VKeyPoint@cv@@@std@@QEAAPEAVKeyPoint@cv@@_K@Z 0000000180000000     mwsurf.obj
 0002:fffb0000       $unwind$?assign@?$basic_string@DU?$char_traits@D@std@@V?$allocator@D@2@@std@@QEAAAEAV12@QEBD@Z 0000000180000000     mwsurf.obj
 0002:fffb0000       $unwind$?assign@?$basic_string@DU?$char_traits@D@std@@V?$allocator@D@2@@std@@QEAAAEAV12@QEBD_K@Z 0000000180000000     mwsurf.obj
 0002:fffb0000       $unwind$?capacity@?$vector@VKeyPoint@cv@@V?$allocator@VKeyPoint@cv@@@std@@@std@@QEBA_KXZ 0000000180000000     mwsurf.obj
 0002:fffb0000       $unwind$?catch$0@?0???$_Emplace_reallocate@AEBVKeyPoint@cv@@@?$vector@VKeyPoint@cv@@V?$allocator@VKeyPoint@cv@@@std@@@std@@QEAAPEAVKeyPoint@cv@@QEAV23@AEBV23@@Z@4HA 0000000180000000     mwsurf.obj
 0002:fffb0000       $unwind$?copy@?$_Char_traits@DH@std@@SAPEADQEADQEBD_K@Z 0000000180000000     mwsurf.obj
 0002:fffb0000       $unwind$?deallocate@?$allocator@D@std@@QEAAXQEAD_K@Z 0000000180000000     mwsurf.obj
 0002:fffb0000       $unwind$?deallocate@?$allocator@VKeyPoint@cv@@@std@@QEAAXQEAVKeyPoint@cv@@_K@Z 0000000180000000     mwsurf.obj
 0002:fffb0000       $unwind$?dtor$0@?0???$_Uninitialized_move@PEAVKeyPoint@cv@@V?$allocator@VKeyPoint@cv@@@std@@@std@@YAPEAVKeyPoint@cv@@QEAV12@0PEAV12@AEAV?$allocator@VKeyPoint@cv@@@0@@Z@4HA 0000000180000000     mwsurf.obj
 0002:fffb0000       $unwind$?dtor$0@?0???0?$basic_string@DU?$char_traits@D@std@@V?$allocator@D@2@@std@@QEAA@QEBD@Z@4HA 0000000180000000     mwsurf.obj
 0002:fffb0000       $unwind$?dtor$0@?0???0Mat@cv@@QEAA@HHHPEAX_K@Z@4HA 0000000180000000     mwsurf.obj
 0002:fffb0000       $unwind$?dtor$1@?0???0Mat@cv@@QEAA@HHHPEAX_K@Z@4HA 0000000180000000     mwsurf.obj
 0002:fffb0000       $unwind$?length@?$_Narrow_char_traits@DH@std@@SA_KQEBD@Z 0000000180000000     mwsurf.obj
 0002:fffb0000       $unwind$?max_size@?$basic_string@DU?$char_traits@D@std@@V?$allocator@D@2@@std@@QEBA_KXZ 0000000180000000     mwsurf.obj
 0002:fffb0000       $unwind$?max_size@?$vector@VKeyPoint@cv@@V?$allocator@VKeyPoint@cv@@@std@@@std@@QEBA_KXZ 0000000180000000     mwsurf.obj
 0002:fffb0000       $unwind$?move@?$_Char_traits@DH@std@@SAPEADQEADQEBD_K@Z 0000000180000000     mwsurf.obj
 0002:fffb0000       $unwind$?push_back@?$vector@VKeyPoint@cv@@V?$allocator@VKeyPoint@cv@@@std@@@std@@QEAAXAEBVKeyPoint@cv@@@Z 0000000180000000     mwsurf.obj
 0002:fffb0000       $unwind$?release@Mat@cv@@QEAAXXZ 0000000180000000     mwsurf.obj
 0002:fffb0000       $unwind$?size@?$vector@VKeyPoint@cv@@V?$allocator@VKeyPoint@cv@@@std@@@std@@QEBA_KXZ 0000000180000000     mwsurf.obj
 0002:fffb0000       $unwind$?total@Mat@cv@@QEBA_KXZ 0000000180000000     mwsurf.obj
 0002:fffb0000       $unwind$?what@exception@std@@UEBAPEBDXZ 0000000180000000     mwsurf.obj
 0001:fffff000       ?catch$0@?0???$_Emplace_reallocate@AEBVKeyPoint@cv@@@?$vector@VKeyPoint@cv@@V?$allocator@VKeyPoint@cv@@@std@@@std@@QEAAPEAVKeyPoint@cv@@QEAV23@AEBV23@@Z@4HA 0000000180000000 f   mwsurf.obj
 0001:fffff000       ?dtor$0@?0???$_Uninitialized_move@PEAVKeyPoint@cv@@V?$allocator@VKeyPoint@cv@@@std@@@std@@YAPEAVKeyPoint@cv@@QEAV12@0PEAV12@AEAV?$allocator@VKeyPoint@cv@@@0@@Z@4HA 0000000180000000 f   mwsurf.obj
 0001:fffff000       ?dtor$0@?0???0?$basic_string@DU?$char_traits@D@std@@V?$allocator@D@2@@std@@QEAA@QEBD@Z@4HA 0000000180000000 f   mwsurf.obj
 0001:fffff000       ?dtor$0@?0???0Mat@cv@@QEAA@HHHPEAX_K@Z@4HA 0000000180000000 f   mwsurf.obj
 0001:fffff000       ?dtor$1@?0???0Mat@cv@@QEAA@HHHPEAX_K@Z@4HA 0000000180000000 f   mwsurf.obj
 0002:fffb0000       __guard_ehcont_?dllmain_dispatch@@YAHQEAUHINSTANCE__@@KQEAX@Z 0000000180000000     MSVCRT:dll_dllmain.obj
 0002:fffb0000       __guard_fids_?dllmain_dispatch@@YAHQEAUHINSTANCE__@@KQEAX@Z 0000000180000000     MSVCRT:dll_dllmain.obj
 0002:fffb0000       __guard_fids__             0000000180000000     MSVCRT:guard_support.obj
 0002:fffb0000       __guard_fids__             0000000180000000     MSVCRT:guard_support.obj
 0002:fffb0000       __guard_fids__guard_icall_checks_enforced 0000000180000000     MSVCRT:guard_support.obj
 0002:fffb0000       __guard_fids__             0000000180000000     MSVCRT:std_type_info_static.obj
 0002:fffb0000       $unwind$??0bad_alloc@std@@QEAA@AEBV01@@Z 0000000180000000     MSVCRT:throw_bad_alloc.obj
 0002:fffb0000       $unwind$??0bad_array_new_length@std@@QEAA@AEBV01@@Z 0000000180000000     MSVCRT:throw_bad_alloc.obj
 0002:fffb0000       $unwind$??0exception@std@@QEAA@AEBV01@@Z 0000000180000000     MSVCRT:throw_bad_alloc.obj
 0002:fffb0000       $unwind$??_Gbad_alloc@std@@UEAAPEAXI@Z 0000000180000000     MSVCRT:throw_bad_alloc.obj
 0002:fffb0000       $unwind$??_Gbad_array_new_length@std@@UEAAPEAXI@Z 0000000180000000     MSVCRT:throw_bad_alloc.obj
 0002:fffb0000       $unwind$??_Gexception@std@@UEAAPEAXI@Z 0000000180000000     MSVCRT:throw_bad_alloc.obj
 0002:fffb0000       __guard_fids__             0000000180000000     MSVCRT:throw_bad_alloc.obj
 0002:fffb0000       __guard_fids__             0000000180000000     MSVCRT:throw_bad_alloc.obj
 0002:fffb0000       __guard_fids__             0000000180000000     MSVCRT:throw_bad_alloc.obj
 0002:fffb0000       __guard_ehcont___scrt_is_nonwritable_in_current_image 0000000180000000     MSVCRT:utility.obj
 0002:fffb0000       __guard_fids___scrt_set_unhandled_exception_filter 0000000180000000     MSVCRT:utility_desktop.obj
 0000:00000000       .debug$S                   0000000180000000     msvcprt:MSVCP140.dll
 0000:00000000       .debug$S                   0000000180000000     msvcprt:MSVCP140.dll
 0000:00000000       .debug$S                   0000000180000000     msvcprt:MSVCP140.dll
 0000:00000000       .debug$S                   0000000180000000     msvcprt:MSVCP140.dll
 0000:00000000       .debug$S                   0000000180000000     msvcprt:MSVCP140.dll
 0000:00000000       .debug$S                   0000000180000000     msvcprt:MSVCP140.dll
 0000:00000000       .debug$S                   0000000180000000     msvcprt:MSVCP140.dll
 0000:00000000       .debug$S                   0000000180000000     msvcprt:MSVCP140.dll
 0000:00000000       .debug$S                   0000000180000000     msvcprt:MSVCP140.dll
 0000:00000000       .debug$S                   0000000180000000     msvcprt:MSVCP140.dll
 0000:00000000       .debug$S                   0000000180000000     msvcprt:MSVCP140.dll
 0000:00000000       .debug$S                   0000000180000000     msvcprt:MSVCP140.dll
 0000:00000000       .debug$S                   0000000180000000     msvcprt:MSVCP140.dll
 0000:00000000       .debug$S                   0000000180000000     msvcprt:MSVCP140.dll
 0000:00000000       .debug$S                   0000000180000000     msvcprt:MSVCP140.dll
 0000:00000000       .debug$S                   0000000180000000     msvcprt:MSVCP140.dll
 0000:00000000       .debug$S                   0000000180000000     msvcprt:MSVCP140.dll
 0000:00000000       .debug$S                   0000000180000000     msvcprt:MSVCP140.dll
 0000:00000000       .debug$S                   0000000180000000     msvcprt:MSVCP140.dll
 0000:00000000       .debug$S                   0000000180000000     msvcprt:MSVCP140.dll
 0000:00000000       .debug$S                   0000000180000000     msvcprt:MSVCP140.dll
 0000:00000000       .debug$S                   0000000180000000     msvcprt:MSVCP140.dll
 0000:00000000       .debug$S                   0000000180000000     msvcprt:MSVCP140.dll
 0000:00000000       .debug$S                   0000000180000000     msvcprt:MSVCP140.dll
 0000:00000000       .debug$S                   0000000180000000     msvcprt:MSVCP140.dll
 0000:00000000       .debug$S                   0000000180000000     msvcprt:MSVCP140.dll
 0000:00000000       .debug$S                   0000000180000000     msvcprt:MSVCP140.dll
 0000:00000000       .debug$S                   0000000180000000     msvcprt:MSVCP140.dll
 0000:00000000       .debug$S                   0000000180000000     msvcprt:MSVCP140.dll
 0000:00000000       .debug$S                   0000000180000000     msvcprt:MSVCP140.dll
 0000:00000000       .debug$S                   0000000180000000     vcruntime:VCRUNTIME140.dll
 0000:00000000       .debug$S                   0000000180000000     vcruntime:VCRUNTIME140.dll
 0000:00000000       .debug$S                   0000000180000000     vcruntime:VCRUNTIME140.dll
 0000:00000000       .debug$S                   0000000180000000     vcruntime:VCRUNTIME140.dll
 0000:00000000       .debug$S                   0000000180000000     vcruntime:VCRUNTIME140.dll
 0000:00000000       .debug$S                   0000000180000000     vcruntime:VCRUNTIME140.dll
 0000:00000000       .debug$S                   0000000180000000     vcruntime:VCRUNTIME140.dll
 0000:00000000       .debug$S                   0000000180000000     vcruntime:VCRUNTIME140.dll
 0000:00000000       .debug$S                   0000000180000000     vcruntime:VCRUNTIME140.dll
 0000:00000000       .debug$S                   0000000180000000     vcruntime:VCRUNTIME140.dll
 0000:00000000       .debug$S                   0000000180000000     vcruntime:VCRUNTIME140.dll
 0000:00000000       .debug$S                   0000000180000000     vcruntime:VCRUNTIME140.dll
 0000:00000000       .debug$S                   0000000180000000     vcruntime:VCRUNTIME140_1.dll
 0000:00000000       .debug$S                   0000000180000000     ucrt:api-ms-win-crt-heap-l1-1-0.dll
 0000:00000000       .debug$S                   0000000180000000     ucrt:api-ms-win-crt-heap-l1-1-0.dll
 0000:00000000       .debug$S                   0000000180000000     ucrt:api-ms-win-crt-heap-l1-1-0.dll
 0000:00000000       .debug$S                   0000000180000000     ucrt:api-ms-win-crt-heap-l1-1-0.dll
 0000:00000000       .debug$S                   0000000180000000     ucrt:api-ms-win-crt-math-l1-1-0.dll
 0000:00000000       .debug$S                   0000000180000000     ucrt:api-ms-win-crt-math-l1-1-0.dll
 0000:00000000       .debug$S                   0000000180000000     ucrt:api-ms-win-crt-math-l1-1-0.dll
 0000:00000000       .debug$S                   0000000180000000     ucrt:api-ms-win-crt-math-l1-1-0.dll
 0000:00000000       .debug$S                   0000000180000000     ucrt:api-ms-win-crt-math-l1-1-0.dll
 0000:00000000       .debug$S                   0000000180000000     ucrt:api-ms-win-crt-runtime-l1-1-0.dll
 0000:00000000       .debug$S                   0000000180000000     ucrt:api-ms-win-crt-runtime-l1-1-0.dll
 0000:00000000       .debug$S                   0000000180000000     ucrt:api-ms-win-crt-runtime-l1-1-0.dll
 0000:00000000       .debug$S                   0000000180000000     ucrt:api-ms-win-crt-runtime-l1-1-0.dll
 0000:00000000       .debug$S                   0000000180000000     ucrt:api-ms-win-crt-runtime-l1-1-0.dll
 0000:00000000       .debug$S                   0000000180000000     ucrt:api-ms-win-crt-runtime-l1-1-0.dll
 0000:00000000       .debug$S                   0000000180000000     ucrt:api-ms-win-crt-runtime-l1-1-0.dll
 0000:00000000       .debug$S                   0000000180000000     ucrt:api-ms-win-crt-runtime-l1-1-0.dll
 0000:00000000       .debug$S                   0000000180000000     ucrt:api-ms-win-crt-runtime-l1-1-0.dll
 0000:00000000       .debug$S                   0000000180000000     ucrt:api-ms-win-crt-runtime-l1-1-0.dll
 0000:00000000       .debug$S                   0000000180000000     ucrt:api-ms-win-crt-runtime-l1-1-0.dll
 0000:00000000       .debug$S                   0000000180000000     ucrt:api-ms-win-crt-runtime-l1-1-0.dll
 0000:00000000       .debug$S                   0000000180000000     ucrt:api-ms-win-crt-runtime-l1-1-0.dll
 0000:00000000       .debug$S                   0000000180000000     ucrt:api-ms-win-crt-runtime-l1-1-0.dll
 0000:00000000       .debug$S                   0000000180000000     ucrt:api-ms-win-crt-stdio-l1-1-0.dll
 0000:00000000       .debug$S                   0000000180000000     ucrt:api-ms-win-crt-string-l1-1-0.dll
 0000:00000000       .debug$S                   0000000180000000     ucrt:api-ms-win-crt-string-l1-1-0.dll
 0000:00000000       .debug$S                   0000000180000000     ucrt:api-ms-win-crt-string-l1-1-0.dll
 0000:00000000       .debug$S                   0000000180000000     ucrt:api-ms-win-crt-string-l1-1-0.dll
 0000:00000000       .debug$S                   0000000180000000     ucrt:api-ms-win-crt-utility-l1-1-0.dll
 0000:00000000       .debug$S                   0000000180000000     kernel32:KERNEL32.dll
 0000:00000000       .debug$S                   0000000180000000     kernel32:KERNEL32.dll
 0000:00000000       .debug$S                   0000000180000000     kernel32:KERNEL32.dll
 0000:00000000       .debug$S                   0000000180000000     kernel32:KERNEL32.dll
 0000:00000000       .debug$S                   0000000180000000     kernel32:KERNEL32.dll
 0000:00000000       .debug$S                   0000000180000000     kernel32:KERNEL32.dll
 0000:00000000       .debug$S                   0000000180000000     kernel32:KERNEL32.dll
 0000:00000000       .debug$S                   0000000180000000     kernel32:KERNEL32.dll
 0000:00000000       .debug$S                   0000000180000000     kernel32:KERNEL32.dll
 0000:00000000       .debug$S                   0000000180000000     kernel32:KERNEL32.dll
 0000:00000000       .debug$S                   0000000180000000     kernel32:KERNEL32.dll
 0000:00000000       .debug$S                   0000000180000000     kernel32:KERNEL32.dll
 0000:00000000       .debug$S                   0000000180000000     kernel32:KERNEL32.dll
 0000:00000000       .debug$S                   0000000180000000     kernel32:KERNEL32.dll
 0000:00000000       .debug$S                   0000000180000000     kernel32:KERNEL32.dll
 0000:00000000       .debug$S                   0000000180000000     kernel32:KERNEL32.dll
 0000:00000000       .debug$S                   0000000180000000     kernel32:KERNEL32.dll
 0000:00000000       .debug$S                   0000000180000000     libcovrt:libcovrt.dll
 0000:00000000       .debug$S                   0000000180000000     libcovrt:libcovrt.dll
 0000:00000000       .debug$S                   0000000180000000     libcovrt:libcovrt.dll
 0000:00000000       .debug$S                   0000000180000000     libcovrt:libcovrt.dll
 0000:00000000       .debug$S                   0000000180000000     libcovrt:libcovrt.dll
 0000:00000000       .debug$S                   0000000180000000     libcovrt:libcovrt.dll
 0000:00000000       .debug$S                   0000000180000000     libcovrt:libcovrt.dll
 0000:00000000       .debug$S                   0000000180000000     libcovrt:libcovrt.dll
 0000:00000000       .debug$S                   0000000180000000     libcovrt:libcovrt.dll
 0000:00000000       .debug$S                   0000000180000000     libemlrt:libemlrt.dll
 0000:00000000       .debug$S                   0000000180000000     libemlrt:libemlrt.dll
 0000:00000000       .debug$S                   0000000180000000     libemlrt:libemlrt.dll
 0000:00000000       .debug$S                   0000000180000000     libemlrt:libemlrt.dll
 0000:00000000       .debug$S                   0000000180000000     libemlrt:libemlrt.dll
 0000:00000000       .debug$S                   0000000180000000     libemlrt:libemlrt.dll
 0000:00000000       .debug$S                   0000000180000000     libemlrt:libemlrt.dll
 0000:00000000       .debug$S                   0000000180000000     libemlrt:libemlrt.dll
 0000:00000000       .debug$S                   0000000180000000     libemlrt:libemlrt.dll
 0000:00000000       .debug$S                   0000000180000000     libemlrt:libemlrt.dll
 0000:00000000       .debug$S                   0000000180000000     libmex:libmex.dll
 0000:00000000       .debug$S                   0000000180000000     libmex:libmex.dll
 0000:00000000       .debug$S                   0000000180000000     libmex:libmex.dll
 0000:00000000       .debug$S                   0000000180000000     libmex:libmex.dll
 0000:00000000       .debug$S                   0000000180000000     libmex:libmex.dll
 0000:00000000       .debug$S                   0000000180000000     libmex:libmex.dll
 0000:00000000       .debug$S                   0000000180000000     libmex:libmex.dll
 0000:00000000       .debug$S                   0000000180000000     libmwComputeMetric:libmwComputeMetric.dll
 0000:00000000       .debug$S                   0000000180000000     libmwjpegreader:libmwjpegreader.dll
 0000:00000000       .debug$S                   0000000180000000     libmwmathutil:libmwmathutil.dll
 0000:00000000       .debug$S                   0000000180000000     libmwmathutil:libmwmathutil.dll
 0000:00000000       .debug$S                   0000000180000000     libmwmathutil:libmwmathutil.dll
 0000:00000000       .debug$S                   0000000180000000     libmwmathutil:libmwmathutil.dll
 0000:00000000       .debug$S                   0000000180000000     libmwmathutil:libmwmathutil.dll
 0000:00000000       .debug$S                   0000000180000000     libmwmathutil:libmwmathutil.dll
 0000:00000000       .debug$S                   0000000180000000     libmwmathutil:libmwmathutil.dll
 0000:00000000       .debug$S                   0000000180000000     libmwrgb2gray_tbb:libmwrgb2gray_tbb.dll
 0000:00000000       .debug$S                   0000000180000000     libmx:libmx.dll
 0000:00000000       .debug$S                   0000000180000000     libmx:libmx.dll
 0000:00000000       .debug$S                   0000000180000000     libmx:libmx.dll
 0000:00000000       .debug$S                   0000000180000000     libmx:libmx.dll
 0000:00000000       .debug$S                   0000000180000000     libmx:libmx.dll
 0000:00000000       .debug$S                   0000000180000000     libmx:libmx.dll
 0000:00000000       .debug$S                   0000000180000000     libmx:libmx.dll
 0000:00000000       .debug$S                   0000000180000000     libmx:libmx.dll
 0000:00000000       .debug$S                   0000000180000000     libmx:libmx.dll
 0000:00000000       .debug$S                   0000000180000000     libmx:libmx.dll
 0000:00000000       .debug$S                   0000000180000000     libmx:libmx.dll
 0000:00000000       .debug$S                   0000000180000000     libmx:libmx.dll
 0000:00000000       .debug$S                   0000000180000000     libmx:libmx.dll
 0000:00000000       .debug$S                   0000000180000000     libmx:libmx.dll
 0000:00000000       .debug$S                   0000000180000000     libmx:libmx.dll
 0000:00000000       .debug$S                   0000000180000000     libmx:libmx.dll
 0000:00000000       .debug$S                   0000000180000000     libmx:libmx.dll
 0000:00000000       .debug$S                   0000000180000000     libmx:libmx.dll
 0000:00000000       .debug$S                   0000000180000000     libmx:libmx.dll
 0000:00000000       .debug$S                   0000000180000000     libmx:libmx.dll
 0000:00000000       .debug$S                   0000000180000000     libmx:libmx.dll
 0000:00000000       .debug$S                   0000000180000000     libut:libut.dll
 0000:00000000       .debug$S                   0000000180000000     libut:libut.dll
 0000:00000000       .debug$S                   0000000180000000     sf_runtime:sf_runtime.dll
 0000:00000000       .debug$S                   0000000180000000     sf_runtime:sf_runtime.dll
 0000:00000000       .debug$S                   0000000180000000     sf_runtime:sf_runtime.dll
 0000:00000000       .debug$S                   0000000180000000     sf_runtime:sf_runtime.dll
 0000:00000000       .debug$S                   0000000180000000     sf_runtime:sf_runtime.dll
 0000:00000000       .debug$S                   0000000180000000     sf_runtime:sf_runtime.dll
 0000:00000000       .debug$S                   0000000180000000     sf_runtime:sf_runtime.dll
 0000:00000000       .debug$S                   0000000180000000     sf_runtime:sf_runtime.dll
 0000:00000000       .debug$S                   0000000180000000     sf_runtime:sf_runtime.dll
 0000:00000000       .debug$S                   0000000180000000     sf_runtime:sf_runtime.dll
 0000:00000000       .debug$S                   0000000180000000     sf_runtime:sf_runtime.dll
 0000:00000000       .debug$S                   0000000180000000     sf_runtime:sf_runtime.dll
 0000:00000000       .debug$S                   0000000180000000     sf_runtime:sf_runtime.dll
 0000:00000000       .debug$S                   0000000180000000     sf_runtime:sf_runtime.dll
 0000:00000000       .debug$S                   0000000180000000     sf_runtime:sf_runtime.dll
 0000:00000000       .debug$S                   0000000180000000     sf_runtime:sf_runtime.dll
 0000:00000000       .debug$S                   0000000180000000     sf_runtime:sf_runtime.dll
 0000:00000000       .debug$S                   0000000180000000     sf_runtime:sf_runtime.dll
 0000:00000000       .debug$S                   0000000180000000     sf_runtime:sf_runtime.dll
 0000:00000000       .debug$S                   0000000180000000     sf_runtime:sf_runtime.dll
 0000:00000000       .debug$S                   0000000180000000     sf_runtime:sf_runtime.dll
 0000:00000000       .debug$S                   0000000180000000     sf_runtime:sf_runtime.dll
 0000:00000000       .debug$S                   0000000180000000     sf_runtime:sf_runtime.dll
 0000:00000000       .debug$S                   0000000180000000     sf_runtime:sf_runtime.dll
 0000:00000000       .debug$S                   0000000180000000     sf_runtime:sf_runtime.dll
 0000:00000000       .debug$S                   0000000180000000     sf_runtime:sf_runtime.dll
 0000:00000000       .debug$S                   0000000180000000     sf_runtime:sf_runtime.dll
 0000:00000000       .debug$S                   0000000180000000     sf_runtime:sf_runtime.dll
 0000:00000000       .debug$S                   0000000180000000     sf_runtime:sf_runtime.dll
 0000:00000000       .debug$S                   0000000180000000     sf_runtime:sf_runtime.dll
 0000:00000000       .debug$S                   0000000180000000     sf_runtime:sf_runtime.dll
 0000:00000000       .debug$S                   0000000180000000     sf_runtime:sf_runtime.dll
 0000:00000000       .debug$S                   0000000180000000     sf_runtime:sf_runtime.dll
 0000:00000000       .debug$S                   0000000180000000     sf_runtime:sf_runtime.dll
 0000:00000000       .debug$S                   0000000180000000     sf_runtime:sf_runtime.dll
 0000:00000000       .debug$S                   0000000180000000     sf_runtime:sf_runtime.dll
 0000:00000000       .debug$S                   0000000180000000     sf_runtime:sf_runtime.dll
 0000:00000000       .debug$S                   0000000180000000     sf_runtime:sf_runtime.dll
 0000:00000000       .debug$S                   0000000180000000     sf_runtime:sf_runtime.dll
 0000:00000000       .debug$S                   0000000180000000     sf_runtime:sf_runtime.dll
 0000:00000000       .debug$S                   0000000180000000     opencv_core420:opencv_core420.dll
 0000:00000000       .debug$S                   0000000180000000     opencv_core420:opencv_core420.dll
 0000:00000000       .debug$S                   0000000180000000     opencv_core420:opencv_core420.dll
 0000:00000000       .debug$S                   0000000180000000     opencv_core420:opencv_core420.dll
 0000:00000000       .debug$S                   0000000180000000     opencv_core420:opencv_core420.dll
 0000:00000000       .debug$S                   0000000180000000     opencv_core420:opencv_core420.dll
 0000:00000000       .debug$S                   0000000180000000     opencv_core420:opencv_core420.dll
 0000:00000000       .debug$S                   0000000180000000     opencv_core420:opencv_core420.dll
 0000:00000000       .debug$S                   0000000180000000     opencv_core420:opencv_core420.dll
 0000:00000000       .debug$S                   0000000180000000     opencv_core420:opencv_core420.dll
 0000:00000000       .debug$S                   0000000180000000     opencv_core420:opencv_core420.dll
 0000:00000000       .debug$S                   0000000180000000     opencv_core420:opencv_core420.dll
 0000:00000000       .debug$S                   0000000180000000     opencv_core420:opencv_core420.dll
 0000:00000000       .debug$S                   0000000180000000     opencv_core420:opencv_core420.dll
 0000:00000000       .debug$S                   0000000180000000     opencv_core420:opencv_core420.dll
 0000:00000000       .debug$S                   0000000180000000     opencv_core420:opencv_core420.dll
 0000:00000000       .debug$S                   0000000180000000     opencv_core420:opencv_core420.dll
 0000:00000000       .debug$S                   0000000180000000     opencv_core420:opencv_core420.dll
 0000:00000000       .debug$S                   0000000180000000     opencv_core420:opencv_core420.dll
 0000:00000000       .debug$S                   0000000180000000     opencv_core420:opencv_core420.dll
 0000:00000000       .debug$S                   0000000180000000     opencv_core420:opencv_core420.dll
 0000:00000000       .debug$S                   0000000180000000     opencv_core420:opencv_core420.dll
 0000:00000000       .debug$S                   0000000180000000     opencv_core420:opencv_core420.dll
 0000:00000000       .debug$S                   0000000180000000     opencv_core420:opencv_core420.dll
 0000:00000000       .debug$S                   0000000180000000     opencv_core420:opencv_core420.dll
 0000:00000000       .debug$S                   0000000180000000     opencv_features2d420:opencv_features2d420.dll
 0000:00000000       .debug$S                   0000000180000000     opencv_features2d420:opencv_features2d420.dll
 0000:00000000       .debug$S                   0000000180000000     opencv_features2d420:opencv_features2d420.dll
 0000:00000000       .debug$S                   0000000180000000     opencv_features2d420:opencv_features2d420.dll
 0000:00000000       .debug$S                   0000000180000000     opencv_features2d420:opencv_features2d420.dll
 0000:00000000       .debug$S                   0000000180000000     opencv_features2d420:opencv_features2d420.dll
 0000:00000000       .debug$S                   0000000180000000     opencv_features2d420:opencv_features2d420.dll
 0000:00000000       .debug$S                   0000000180000000     opencv_features2d420:opencv_features2d420.dll
 0000:00000000       .debug$S                   0000000180000000     opencv_features2d420:opencv_features2d420.dll
 0000:00000000       .debug$S                   0000000180000000     opencv_features2d420:opencv_features2d420.dll
 0000:00000000       .debug$S                   0000000180000000     opencv_features2d420:opencv_features2d420.dll
 0000:00000000       .debug$S                   0000000180000000     opencv_features2d420:opencv_features2d420.dll
 0000:00000000       .debug$S                   0000000180000000     opencv_features2d420:opencv_features2d420.dll
 0000:00000000       .debug$S                   0000000180000000     opencv_imgproc420:opencv_imgproc420.dll
 0000:00000000       .debug$S                   0000000180000000     opencv_imgproc420:opencv_imgproc420.dll
 0000:00000000       .debug$S                   0000000180000000     opencv_imgproc420:opencv_imgproc420.dll
 0000:00000000       .debug$S                   0000000180000000     opencv_imgproc420:opencv_imgproc420.dll
 0001:fffff00d       __catch$??$?6U?$char_traits@D@std@@@std@@YAAEAV?$basic_ostream@DU?$char_traits@D@std@@@0@AEAV10@PEBD@Z$0 000000018000000d f   cgCommon.obj
 0001:fffff00d       __catch$??$?6U?$char_traits@D@std@@@std@@YAAEAV?$basic_ostream@DU?$char_traits@D@std@@@0@AEAV10@PEBD@Z$0 000000018000000d f   fastHessianDetectorCore.obj
 0001:fffff00d       __catch$??$_Emplace_reallocate@AEBVKeyPoint@cv@@@?$vector@VKeyPoint@cv@@V?$allocator@VKeyPoint@cv@@@std@@@std@@QEAAPEAVKeyPoint@cv@@QEAV23@AEBV23@@Z$0 000000018000000d f   mwsurf.obj
 0001:00000000       ??__F?policy@?$SinglePolicy@H@anyimpl@cvflann@@0U?$small_any_policy@H@23@A@@YAXXZ 0000000180001000 f   extractSurfCore.obj
 0001:00000020       ??__F?policy@?$SinglePolicy@I@anyimpl@cvflann@@0U?$small_any_policy@I@23@A@@YAXXZ 0000000180001020 f   extractSurfCore.obj
 0001:00000040       ??__F?policy@?$SinglePolicy@M@anyimpl@cvflann@@0U?$small_any_policy@M@23@A@@YAXXZ 0000000180001040 f   extractSurfCore.obj
 0001:00000060       ??__F?policy@?$SinglePolicy@PEBD@anyimpl@cvflann@@0U?$small_any_policy@PEBD@23@A@@YAXXZ 0000000180001060 f   extractSurfCore.obj
 0001:00000080       ??__F?policy@?$SinglePolicy@Uempty_any@anyimpl@cvflann@@@anyimpl@cvflann@@0U?$big_any_policy@Uempty_any@anyimpl@cvflann@@@23@A@@YAXXZ 0000000180001080 f   extractSurfCore.obj
 0001:000000a0       ??__F?policy@?$SinglePolicy@V?$basic_string@DU?$char_traits@D@std@@V?$allocator@D@2@@std@@@anyimpl@cvflann@@0U?$big_any_policy@V?$basic_string@DU?$char_traits@D@std@@V?$allocator@D@2@@std@@@23@A@@YAXXZ 00000001800010a0 f   extractSurfCore.obj
 0001:000000c0       ??__F?policy@?$SinglePolicy@W4flann_algorithm_t@cvflann@@@anyimpl@cvflann@@0U?$big_any_policy@W4flann_algorithm_t@cvflann@@@23@A@@YAXXZ 00000001800010c0 f   extractSurfCore.obj
 0001:000000e0       ??__F?policy@?$SinglePolicy@W4flann_centers_init_t@cvflann@@@anyimpl@cvflann@@0U?$big_any_policy@W4flann_centers_init_t@cvflann@@@23@A@@YAXXZ 00000001800010e0 f   extractSurfCore.obj
 0001:00000100       ??__F?policy@?$SinglePolicy@_N@anyimpl@cvflann@@0U?$small_any_policy@_N@23@A@@YAXXZ 0000000180001100 f   extractSurfCore.obj
 0001:00000120       ??__F?policy@?$SinglePolicy@H@anyimpl@cvflann@@0U?$small_any_policy@H@23@A@@YAXXZ 0000000180001120 f   cgCommon.obj
 0001:00000140       ??__F?policy@?$SinglePolicy@I@anyimpl@cvflann@@0U?$small_any_policy@I@23@A@@YAXXZ 0000000180001140 f   cgCommon.obj
 0001:00000160       ??__F?policy@?$SinglePolicy@M@anyimpl@cvflann@@0U?$small_any_policy@M@23@A@@YAXXZ 0000000180001160 f   cgCommon.obj
 0001:00000180       ??__F?policy@?$SinglePolicy@PEBD@anyimpl@cvflann@@0U?$small_any_policy@PEBD@23@A@@YAXXZ 0000000180001180 f   cgCommon.obj
 0001:000001a0       ??__F?policy@?$SinglePolicy@Uempty_any@anyimpl@cvflann@@@anyimpl@cvflann@@0U?$big_any_policy@Uempty_any@anyimpl@cvflann@@@23@A@@YAXXZ 00000001800011a0 f   cgCommon.obj
 0001:000001c0       ??__F?policy@?$SinglePolicy@V?$basic_string@DU?$char_traits@D@std@@V?$allocator@D@2@@std@@@anyimpl@cvflann@@0U?$big_any_policy@V?$basic_string@DU?$char_traits@D@std@@V?$allocator@D@2@@std@@@23@A@@YAXXZ 00000001800011c0 f   cgCommon.obj
 0001:000001e0       ??__F?policy@?$SinglePolicy@W4flann_algorithm_t@cvflann@@@anyimpl@cvflann@@0U?$big_any_policy@W4flann_algorithm_t@cvflann@@@23@A@@YAXXZ 00000001800011e0 f   cgCommon.obj
 0001:00000200       ??__F?policy@?$SinglePolicy@W4flann_centers_init_t@cvflann@@@anyimpl@cvflann@@0U?$big_any_policy@W4flann_centers_init_t@cvflann@@@23@A@@YAXXZ 0000000180001200 f   cgCommon.obj
 0001:00000220       ??__F?policy@?$SinglePolicy@_N@anyimpl@cvflann@@0U?$small_any_policy@_N@23@A@@YAXXZ 0000000180001220 f   cgCommon.obj
 0001:00000240       ??__E?findMaximaInLayer_m@MWSURFFindInvoker@cv@@2Vrecursive_mutex@std@@A@@YAXXZ 0000000180001240 f   mwsurf.obj
 0001:00000270       ??__F?policy@?$SinglePolicy@H@anyimpl@cvflann@@0U?$small_any_policy@H@23@A@@YAXXZ 0000000180001270 f   fastHessianDetectorCore.obj
 0001:00000290       ??__F?policy@?$SinglePolicy@I@anyimpl@cvflann@@0U?$small_any_policy@I@23@A@@YAXXZ 0000000180001290 f   fastHessianDetectorCore.obj
 0001:000002b0       ??__F?policy@?$SinglePolicy@M@anyimpl@cvflann@@0U?$small_any_policy@M@23@A@@YAXXZ 00000001800012b0 f   fastHessianDetectorCore.obj
 0001:000002d0       ??__F?policy@?$SinglePolicy@PEBD@anyimpl@cvflann@@0U?$small_any_policy@PEBD@23@A@@YAXXZ 00000001800012d0 f   fastHessianDetectorCore.obj
 0001:000002f0       ??__F?policy@?$SinglePolicy@Uempty_any@anyimpl@cvflann@@@anyimpl@cvflann@@0U?$big_any_policy@Uempty_any@anyimpl@cvflann@@@23@A@@YAXXZ 00000001800012f0 f   fastHessianDetectorCore.obj
 0001:00000310       ??__F?policy@?$SinglePolicy@V?$basic_string@DU?$char_traits@D@std@@V?$allocator@D@2@@std@@@anyimpl@cvflann@@0U?$big_any_policy@V?$basic_string@DU?$char_traits@D@std@@V?$allocator@D@2@@std@@@23@A@@YAXXZ 0000000180001310 f   fastHessianDetectorCore.obj
 0001:00000330       ??__F?policy@?$SinglePolicy@W4flann_algorithm_t@cvflann@@@anyimpl@cvflann@@0U?$big_any_policy@W4flann_algorithm_t@cvflann@@@23@A@@YAXXZ 0000000180001330 f   fastHessianDetectorCore.obj
 0001:00000350       ??__F?policy@?$SinglePolicy@W4flann_centers_init_t@cvflann@@@anyimpl@cvflann@@0U?$big_any_policy@W4flann_centers_init_t@cvflann@@@23@A@@YAXXZ 0000000180001350 f   fastHessianDetectorCore.obj
 0001:00000370       ??__F?policy@?$SinglePolicy@_N@anyimpl@cvflann@@0U?$small_any_policy@_N@23@A@@YAXXZ 0000000180001370 f   fastHessianDetectorCore.obj
 0001:000014e0       initialize_c4_flightControlSystem 00000001800024e0 f   c4_flightControlSystem.obj
 0001:00001590       initialize_params_c4_flightControlSystem 0000000180002590 f   c4_flightControlSystem.obj
 0001:000015a0       enable_c4_flightControlSystem 00000001800025a0 f   c4_flightControlSystem.obj
 0001:000015d0       disable_c4_flightControlSystem 00000001800025d0 f   c4_flightControlSystem.obj
 0001:00001600       c4_do_animation_call_c4_flightControlSystem 0000000180002600 f   c4_flightControlSystem.obj
 0001:00001640       get_sim_state_c4_flightControlSystem 0000000180002640 f   c4_flightControlSystem.obj
 0001:00001790       set_sim_state_c4_flightControlSystem 0000000180002790 f   c4_flightControlSystem.obj
 0001:00001850       sf_gateway_c4_flightControlSystem 0000000180002850 f   c4_flightControlSystem.obj
 0001:00001f10       mdl_start_c4_flightControlSystem 0000000180002f10 f   c4_flightControlSystem.obj
 0001:00001f20       mdl_terminate_c4_flightControlSystem 0000000180002f20 f   c4_flightControlSystem.obj
 0001:00001f30       mdl_setup_runtime_resources_c4_flightControlSystem 0000000180002f30 f   c4_flightControlSystem.obj
 0001:000021b0       mdl_cleanup_runtime_resources_c4_flightControlSystem 00000001800031b0 f   c4_flightControlSystem.obj
 0001:000021f0       initSimStructsc4_flightControlSystem 00000001800031f0 f   c4_flightControlSystem.obj
 0001:00002200       c4_imread                  0000000180003200 f   c4_flightControlSystem.obj
 0001:00002b70       c4_warning                 0000000180003b70 f   c4_flightControlSystem.obj
 0001:00002e20       c4_detectSURFFeatures      0000000180003e20 f   c4_flightControlSystem.obj
 0001:00003f70       c4_SURFPoints_SURFPoints   0000000180004f70 f   c4_flightControlSystem.obj
 0001:00007090       c4_FeaturePointsImpl_checkLocation 0000000180008090 f   c4_flightControlSystem.obj
 0001:00007f10       c4_inputMeetsSizeRequirement 0000000180008f10 f   c4_flightControlSystem.obj
 0001:00008030       c4_FeaturePointsImpl_checkMetric 0000000180009030 f   c4_flightControlSystem.obj
 0001:00008790       c4_all                     0000000180009790 f   c4_flightControlSystem.obj
 0001:00008910       c4_SURFPointsImpl_checkScale 0000000180009910 f   c4_flightControlSystem.obj
 0001:00009480       c4_b_all                   000000018000a480 f   c4_flightControlSystem.obj
 0001:00009860       c4_check_forloop_overflow_error 000000018000a860 f   c4_flightControlSystem.obj
 0001:00009a70       c4_repmat                  000000018000aa70 f   c4_flightControlSystem.obj
 0001:00009ea0       c4_assertValidSizeArg      000000018000aea0 f   c4_flightControlSystem.obj
 0001:0000a190       c4_SURFPointsImpl_selectStrongest 000000018000b190 f   c4_flightControlSystem.obj
 0001:0000aad0       c4_indexShapeCheck         000000018000bad0 f   c4_flightControlSystem.obj
 0001:0000ad20       c4_SURFPoints_getIndexedObj 000000018000bd20 f   c4_flightControlSystem.obj
 0001:0000b950       c4_b_SURFPoints_SURFPoints 000000018000c950 f   c4_flightControlSystem.obj
 0001:0000c030       c4_SURFPointsImpl_validate 000000018000d030 f   c4_flightControlSystem.obj
 0001:0000ddc0       c4_extractFeatures         000000018000edc0 f   c4_flightControlSystem.obj
 0001:0000e600       c4_extractSURFFeatures     000000018000f600 f   c4_flightControlSystem.obj
 0001:0000fd40       c4_parseSURFInputs         0000000180010d40 f   c4_flightControlSystem.obj
 0001:000113e0       c4_c_SURFPoints_SURFPoints 00000001800123e0 f   c4_flightControlSystem.obj
 0001:00011b30       c4_b_detectSURFFeatures    0000000180012b30 f   c4_flightControlSystem.obj
 0001:00012c00       c4_b_extractFeatures       0000000180013c00 f   c4_flightControlSystem.obj
 0001:00013430       c4_b_extractSURFFeatures   0000000180014430 f   c4_flightControlSystem.obj
 0001:00014b60       c4_b_parseSURFInputs       0000000180015b60 f   c4_flightControlSystem.obj
 0001:00016200       c4_matchFeatures           0000000180017200 f   c4_flightControlSystem.obj
 0001:00019db0       c4_sumColumnB              000000018001adb0 f   c4_flightControlSystem.obj
 0001:00019e50       c4_findNearestNeighbors    000000018001ae50 f   c4_flightControlSystem.obj
 0001:0001ee10       c4_allinrange              000000018001fe10 f   c4_flightControlSystem.obj
 0001:0001ef20       c4_emlrt_marshallIn        000000018001ff20 f   c4_flightControlSystem.obj
 0001:0001ef90       c4_b_emlrt_marshallIn      000000018001ff90 f   c4_flightControlSystem.obj
 0001:0001f020       c4_c_emlrt_marshallIn      0000000180020020 f   c4_flightControlSystem.obj
 0001:0001f090       c4_d_emlrt_marshallIn      0000000180020090 f   c4_flightControlSystem.obj
 0001:0001f120       c4_chart_data_browse_helper 0000000180020120 f   c4_flightControlSystem.obj
 0001:0001f250       c4_feval                   0000000180020250 f   c4_flightControlSystem.obj
 0001:0001f390       c4_b_feval                 0000000180020390 f   c4_flightControlSystem.obj
 0001:0001f430       c4_c_sort                  0000000180020430 f   c4_flightControlSystem.obj
 0001:0001fd70       c4_c_sortIdx               0000000180020d70 f   c4_flightControlSystem.obj
 0001:00021930       c4_c_merge_pow2_block      0000000180022930 f   c4_flightControlSystem.obj
 0001:00021e60       c4_c_merge_block           0000000180022e60 f   c4_flightControlSystem.obj
 0001:000221a0       c4_c_merge                 00000001800231a0 f   c4_flightControlSystem.obj
 0001:000225f0       c4_b_SURFPointsImpl_configure 00000001800235f0 f   c4_flightControlSystem.obj
 0001:00023e30       c4_b_normalizeFeature      0000000180024e30 f   c4_flightControlSystem.obj
 0001:00025cb0       c4_d_sort                  0000000180026cb0 f   c4_flightControlSystem.obj
 0001:00026420       c4_d_sortIdx               0000000180027420 f   c4_flightControlSystem.obj
 0001:00027c30       c4_d_merge_pow2_block      0000000180028c30 f   c4_flightControlSystem.obj
 0001:00028160       c4_d_merge_block           0000000180029160 f   c4_flightControlSystem.obj
 0001:000284a0       c4_d_merge                 00000001800294a0 f   c4_flightControlSystem.obj
 0001:000288f0       c4_b_removeAmbiguousMatches 00000001800298f0 f   c4_flightControlSystem.obj
 0001:0002b3a0       c4_emxInitStruct_SURFPoints 000000018002c3a0 f   c4_flightControlSystem.obj
 0001:0002b4a0       c4_emxInit_real32_T        000000018002c4a0 f   c4_flightControlSystem.obj
 0001:0002b5a0       c4_emxInit_real32_T1       000000018002c5a0 f   c4_flightControlSystem.obj
 0001:0002b6a0       c4_emxInit_int8_T          000000018002c6a0 f   c4_flightControlSystem.obj
 0001:0002b7a0       c4_emxInit_uint32_T        000000018002c7a0 f   c4_flightControlSystem.obj
 0001:0002b8a0       c4_emxFree_real32_T        000000018002c8a0 f   c4_flightControlSystem.obj
 0001:0002b920       c4_emxFreeStruct_SURFPoints 000000018002c920 f   c4_flightControlSystem.obj
 0001:0002b9b0       c4_emxFree_int8_T          000000018002c9b0 f   c4_flightControlSystem.obj
 0001:0002ba30       c4_emxFree_uint32_T        000000018002ca30 f   c4_flightControlSystem.obj
 0001:0002bab0       c4_emxEnsureCapacity_real32_T 000000018002cab0 f   c4_flightControlSystem.obj
 0001:0002bc20       c4_emxEnsureCapacity_real32_T1 000000018002cc20 f   c4_flightControlSystem.obj
 0001:0002bd90       c4_emxEnsureCapacity_int8_T 000000018002cd90 f   c4_flightControlSystem.obj
 0001:0002bf00       c4_emxCopyStruct_s_j4PQEGdN8dC5rck 000000018002cf00 f   c4_flightControlSystem.obj
 0001:0002bfe0       c4_emxCopy_real32_T        000000018002cfe0 f   c4_flightControlSystem.obj
 0001:0002c140       c4_emxCopy_real32_T1       000000018002d140 f   c4_flightControlSystem.obj
 0001:0002c2a0       c4_emxCopy_int8_T          000000018002d2a0 f   c4_flightControlSystem.obj
 0001:0002c400       c4_emxInitStruct_s_j4PQEGdN8dC5rck 000000018002d400 f   c4_flightControlSystem.obj
 0001:0002c4d0       c4_emxFreeStruct_s_j4PQEGdN8dC5rck 000000018002d4d0 f   c4_flightControlSystem.obj
 0001:0002c540       c4_emxEnsureCapacity_boolean_T 000000018002d540 f   c4_flightControlSystem.obj
 0001:0002c6b0       c4_emxInitStruct_s_LBK2BPCTsGNRgPb 000000018002d6b0 f   c4_flightControlSystem.obj
 0001:0002c780       c4_emxInit_boolean_T       000000018002d780 f   c4_flightControlSystem.obj
 0001:0002c880       c4_emxFreeStruct_s_LBK2BPCTsGNRgPb 000000018002d880 f   c4_flightControlSystem.obj
 0001:0002c8f0       c4_emxFree_boolean_T       000000018002d8f0 f   c4_flightControlSystem.obj
 0001:0002c970       c4_emxEnsureCapacity_real_T 000000018002d970 f   c4_flightControlSystem.obj
 0001:0002cae0       c4_emxEnsureCapacity_int32_T 000000018002dae0 f   c4_flightControlSystem.obj
 0001:0002cc50       c4_emxCopyStruct_SURFPoints 000000018002dc50 f   c4_flightControlSystem.obj
 0001:0002cd60       c4_emxInit_real_T          000000018002dd60 f   c4_flightControlSystem.obj
 0001:0002ce60       c4_emxInit_int32_T         000000018002de60 f   c4_flightControlSystem.obj
 0001:0002cf60       c4_emxFree_real_T          000000018002df60 f   c4_flightControlSystem.obj
 0001:0002cfe0       c4_emxFree_int32_T         000000018002dfe0 f   c4_flightControlSystem.obj
 0001:0002d060       c4_emxCopyStruct_s_SnCseetuPvRBpOW 000000018002e060 f   c4_flightControlSystem.obj
 0001:0002d170       c4_emxInitStruct_s_SnCseetuPvRBpOW 000000018002e170 f   c4_flightControlSystem.obj
 0001:0002d270       c4_emxFreeStruct_s_SnCseetuPvRBpOW 000000018002e270 f   c4_flightControlSystem.obj
 0001:0002d300       c4_emxCopyStruct_s_dAlD7xno2U8WY2c 000000018002e300 f   c4_flightControlSystem.obj
 0001:0002d410       c4_emxInitStruct_s_dAlD7xno2U8WY2c 000000018002e410 f   c4_flightControlSystem.obj
 0001:0002d510       c4_emxFreeStruct_s_dAlD7xno2U8WY2c 000000018002e510 f   c4_flightControlSystem.obj
 0001:0002d5a0       c4_emxEnsureCapacity_boolean_T1 000000018002e5a0 f   c4_flightControlSystem.obj
 0001:0002d710       c4_emxEnsureCapacity_int32_T1 000000018002e710 f   c4_flightControlSystem.obj
 0001:0002d880       c4_emxEnsureCapacity_uint32_T 000000018002e880 f   c4_flightControlSystem.obj
 0001:0002d9f0       c4_emxInit_int32_T1        000000018002e9f0 f   c4_flightControlSystem.obj
 0001:0002daf0       c4_emxInit_boolean_T1      000000018002eaf0 f   c4_flightControlSystem.obj
 0001:0002dbf0       c4_emxEnsureCapacity_real_T1 000000018002ebf0 f   c4_flightControlSystem.obj
 0001:0002dd60       c4_emxInitMatrix_cell_wrap_31 000000018002ed60 f   c4_flightControlSystem.obj
 0001:0002ddd0       c4_emxInitStruct_cell_wrap_31 000000018002edd0 f   c4_flightControlSystem.obj
 0001:0002de20       c4_emxInit_real_T1         000000018002ee20 f   c4_flightControlSystem.obj
 0001:0002df20       c4_emxFreeMatrix_cell_wrap_31 000000018002ef20 f   c4_flightControlSystem.obj
 0001:0002df80       c4_emxFreeStruct_cell_wrap_31 000000018002ef80 f   c4_flightControlSystem.obj
 0001:0002dfb0       init_dsm_address_info      000000018002efb0 f   c4_flightControlSystem.obj
 0001:0002dfc0       init_simulink_io_address   000000018002efc0 f   c4_flightControlSystem.obj
 0001:0002e2c0       sf_get_sim_state_info_c4_flightControlSystem 000000018002f2c0 f   c4_flightControlSystem.obj
 0001:0002e380       sf_opaque_initialize_c4_flightControlSystem 000000018002f380 f   c4_flightControlSystem.obj
 0001:0002e3b0       sf_opaque_enable_c4_flightControlSystem 000000018002f3b0 f   c4_flightControlSystem.obj
 0001:0002e3d0       sf_opaque_disable_c4_flightControlSystem 000000018002f3d0 f   c4_flightControlSystem.obj
 0001:0002e3f0       sf_opaque_gateway_c4_flightControlSystem 000000018002f3f0 f   c4_flightControlSystem.obj
 0001:0002e410       sf_opaque_get_sim_state_c4_flightControlSystem 000000018002f410 f   c4_flightControlSystem.obj
 0001:0002e440       sf_opaque_set_sim_state_c4_flightControlSystem 000000018002f440 f   c4_flightControlSystem.obj
 0001:0002e470       sf_opaque_cleanup_runtime_resources_c4_flightControlSystem 000000018002f470 f   c4_flightControlSystem.obj
 0001:0002e510       sf_opaque_mdl_start_c4_flightControlSystem 000000018002f510 f   c4_flightControlSystem.obj
 0001:0002e530       sf_opaque_mdl_terminate_c4_flightControlSystem 000000018002f530 f   c4_flightControlSystem.obj
 0001:0002e550       mdlProcessParameters_c4_flightControlSystem 000000018002f550 f   c4_flightControlSystem.obj
 0001:0002e7d0       mdlSetWorkWidths_c4_flightControlSystem 000000018002f7d0 f   c4_flightControlSystem.obj
 0001:0002e860       mdlRTW_c4_flightControlSystem 000000018002f860 f   c4_flightControlSystem.obj
 0001:0002e8a0       mdlSetupRuntimeResources_c4_flightControlSystem 000000018002f8a0 f   c4_flightControlSystem.obj
 0001:0003125c       $LN193                     000000018003225c     flightControlSystem_sfun_registry.obj
 0001:00032054       $LN22                      0000000180033054     flightControlSystem_sfun_registry.obj
 0001:00032754       $LN26                      0000000180033754     flightControlSystem_sfun_registry.obj
 0001:00032e34       $LN24                      0000000180033e34     flightControlSystem_sfun_registry.obj
 0001:000339ec       $LN30                      00000001800349ec     flightControlSystem_sfun_registry.obj
 0001:000363e0       ProcessMexSfunctionCmdLineCall 00000001800373e0 f   flightControlSystem_sfun_registry.obj
 0001:000366f0       mdlSetWorkWidths           00000001800376f0 f   flightControlSystem_sfun_registry.obj
 0001:00036740       mdlProcessParameters       0000000180037740 f   flightControlSystem_sfun_registry.obj
 0001:00036770       mdl_setup_runtime_resources_processing 0000000180037770 f   flightControlSystem_sfun_registry.obj
 0001:000367d0       mdlSetupRuntimeResources   00000001800377d0 f   flightControlSystem_sfun_registry.obj
 0001:00036800       mdl_cleanup_runtime_resources_processing 0000000180037800 f   flightControlSystem_sfun_registry.obj
 0001:000368c0       mdlCleanupRuntimeResources 00000001800378c0 f   flightControlSystem_sfun_registry.obj
 0001:000368f0       mdl_start_processing       00000001800378f0 f   flightControlSystem_sfun_registry.obj
 0001:00036930       mdlStart                   0000000180037930 f   flightControlSystem_sfun_registry.obj
 0001:00036960       mdl_terminate_processing   0000000180037960 f   flightControlSystem_sfun_registry.obj
 0001:000369a0       mdlTerminate               00000001800379a0 f   flightControlSystem_sfun_registry.obj
 0001:000369d0       mdlInitializeSizes         00000001800379d0 f   flightControlSystem_sfun_registry.obj
 0001:00036a00       mdlInitializeSampleTimes   0000000180037a00 f   flightControlSystem_sfun_registry.obj
 0001:00036a30       mdl_outputs_continuous_legacy 0000000180037a30 f   flightControlSystem_sfun_registry.obj
 0001:00036b30       mdl_outputs_processing     0000000180037b30 f   flightControlSystem_sfun_registry.obj
 0001:00036c50       mdl_zeroCrossings_processing 0000000180037c50 f   flightControlSystem_sfun_registry.obj
 0001:00036c90       mdlZeroCrossings           0000000180037c90 f   flightControlSystem_sfun_registry.obj
 0001:00036cc0       mdl_derivatives_processing 0000000180037cc0 f   flightControlSystem_sfun_registry.obj
 0001:00036d10       mdlDerivatives             0000000180037d10 f   flightControlSystem_sfun_registry.obj
 0001:00036d40       mdl_initialize_conditions_processing 0000000180037d40 f   flightControlSystem_sfun_registry.obj
 0001:00036d90       mdlInitializeConditions    0000000180037d90 f   flightControlSystem_sfun_registry.obj
 0001:00036dc0       mdl_ext_mode_exec_processing 0000000180037dc0 f   flightControlSystem_sfun_registry.obj
 0001:00036e00       mdlExtModeExec             0000000180037e00 f   flightControlSystem_sfun_registry.obj
 0001:00036e30       mdlRTW                     0000000180037e30 f   flightControlSystem_sfun_registry.obj
 0001:00036e70       mdl_enable_processing      0000000180037e70 f   flightControlSystem_sfun_registry.obj
 0001:00036eb0       mdlEnable                  0000000180037eb0 f   flightControlSystem_sfun_registry.obj
 0001:00036ee0       mdl_disable_processing     0000000180037ee0 f   flightControlSystem_sfun_registry.obj
 0001:00036f20       mdlDisable                 0000000180037f20 f   flightControlSystem_sfun_registry.obj
 0001:00036f50       mdlOutputs                 0000000180037f50 f   flightControlSystem_sfun_registry.obj
 0001:00036f80       mdl_update_processing      0000000180037f80 f   flightControlSystem_sfun_registry.obj
 0001:00036fd0       mdlUpdate                  0000000180037fd0 f   flightControlSystem_sfun_registry.obj
 0001:000371c0       mdlGetTimeOfNextVarHit     00000001800381c0 f   flightControlSystem_sfun_registry.obj
 0001:00037210       _RegNumInputPortsCB        0000000180038210 f   flightControlSystem_sfun_registry.obj
 0001:00037290       _RegNumOutputPortsCB       0000000180038290 f   flightControlSystem_sfun_registry.obj
 0001:00037310       _CreateSimStruct           0000000180038310 f   flightControlSystem_sfun_registry.obj
 0001:00037540       _ProcessMexSfunctionCmdLineCall 0000000180038540 f   flightControlSystem_sfun_registry.obj
 0001:00037fb0       ReportIndexOutOfBoundsError 0000000180038fb0 f   flightControlSystem_sfun_registry.obj
 0001:000391b0       ?cvRound@@YAHM@Z           000000018003a1b0 f   extractSurfCore.obj
 0001:0003a120       ??$makePtr@VMWSURF@cv@@$$V@cv@@YA?AU?$Ptr@VMWSURF@cv@@@0@XZ 000000018003b120 f   extractSurfCore.obj
 0001:0003ee80       ?cvRound@@YAHM@Z           000000018003fe80 f   mwsurf.obj
 0001:0003eec0       ?cvCeil@@YAHM@Z            000000018003fec0 f   mwsurf.obj
 0001:0003ef10       ?cvMat@@YA?AUCvMat@@HHHPEAX@Z 000000018003ff10 f   mwsurf.obj
 0001:0003f010       ?cvPoint@@YA?AUCvPoint@@HH@Z 0000000180040010 f   mwsurf.obj
 0001:00040090       ?resizeHaarPattern@cv@@YAXQEAY04$$CBHPEAUMWSurfHF@1@HHHH@Z 0000000180041090 f   mwsurf.obj
 0001:000402b0       ?calcLayerDetAndTrace@cv@@YAXAEBVMat@1@HHAEAV21@1@Z 00000001800412b0 f   mwsurf.obj
 0001:00040840       ?interpolateKeypoint@cv@@YAHQEAY08MHHHAEAVKeyPoint@1@@Z 0000000180041840 f   mwsurf.obj
 0001:00041ec0       ?fastHessianDetector@cv@@YAXAEBVMat@1@0AEAV?$vector@VKeyPoint@cv@@V?$allocator@VKeyPoint@cv@@@std@@@std@@HHM@Z 0000000180042ec0 f   mwsurf.obj
 0001:000423d0       ??$?8H@cv@@YA_NAEBV?$Size_@H@0@0@Z 00000001800433d0 f   mwsurf.obj
 0001:00042420       ??$saturate_cast@H@cv@@YAHH@Z 0000000180043420 f   mwsurf.obj
 0001:00042430       ??$determinant@M$02@cv@@YANAEBV?$Matx@M$02$02@0@@Z 0000000180043430 f   mwsurf.obj
 0001:0004b4c0       ??$makePtr@VMWSURF@cv@@$$V@cv@@YA?AU?$Ptr@VMWSURF@cv@@@0@XZ 000000018004c4c0 f   fastHessianDetectorCore.obj
 0001:0004c304       capture_current_context    000000018004d304 f   MSVCRT:gs_report.obj
 0001:0004c374       capture_previous_context   000000018004d374 f   MSVCRT:gs_report.obj
 0001:0004c470       $$000000                   000000018004d470     MSVCRT:amdsecgs.obj
 0001:0004c4b0       $$000000                   000000018004d4b0     MSVCRT:chkstk.obj
 0001:0004c5a4       ?find_pe_section@@YAPEAU_IMAGE_SECTION_HEADER@@QEAE_K@Z 000000018004d5a4 f   MSVCRT:utility.obj
 0001:0004c5f8       ?is_potentially_valid_image_base@@YA_NQEAX@Z 000000018004d5f8 f   MSVCRT:utility.obj
 0001:0004ca54       ?dllmain_crt_dispatch@@YAHQEAUHINSTANCE__@@KQEAX@Z 000000018004da54 f   MSVCRT:dll_dllmain.obj
 0001:0004caa4       ?dllmain_crt_process_attach@@YAHQEAUHINSTANCE__@@QEAX@Z 000000018004daa4 f   MSVCRT:dll_dllmain.obj
 0001:0004cbbc       ?dllmain_crt_process_detach@@YAH_N@Z 000000018004dbbc f   MSVCRT:dll_dllmain.obj
 0001:0004cc40       ?dllmain_dispatch@@YAHQEAUHINSTANCE__@@KQEAX@Z 000000018004dc40 f   MSVCRT:dll_dllmain.obj
 0001:0004cd74       ?dllmain_raw@@YAHQEAUHINSTANCE__@@KQEAX@Z 000000018004dd74 f   MSVCRT:dll_dllmain.obj
 0001:0004d2e8       __castguard_compat_check   000000018004e2e8 f   MSVCRT:guard_support.obj
 0001:0004d3d4       __castguard_slow_path_compat_check 000000018004e3d4 f   MSVCRT:guard_support.obj
 0001:0004d40c       __get_entropy              000000018004e40c f   MSVCRT:gs_support.obj
 0001:0004d840       $$000000                   000000018004e840     MSVCRT:guard_dispatch.obj
 0001:0004d860       $$000000                   000000018004e860     MSVCRT:guard_xfg_dispatch.obj
 0001:0004d880       extractSurf_assignOutput$dtor$0 000000018004e880 f   extractSurfCore.obj
 0001:0004d898       extractSurf_assignOutput$dtor$1 000000018004e898 f   extractSurfCore.obj
 0001:0004d8b3       extractSurf_assignOutputRM$dtor$0 000000018004e8b3 f   extractSurfCore.obj
 0001:0004d8cb       extractSurf_assignOutputRM$dtor$1 000000018004e8cb f   extractSurfCore.obj
 0001:0004d8e6       extractSurf_compute$dtor$0 000000018004e8e6 f   extractSurfCore.obj
 0001:0004d901       extractSurf_compute$dtor$1 000000018004e901 f   extractSurfCore.obj
 0001:0004d919       extractSurf_compute$dtor$2 000000018004e919 f   extractSurfCore.obj
 0001:0004d934       extractSurf_compute$dtor$3 000000018004e934 f   extractSurfCore.obj
 0001:0004d951       extractSurf_computeRM$dtor$0 000000018004e951 f   extractSurfCore.obj
 0001:0004d96c       extractSurf_computeRM$dtor$1 000000018004e96c f   extractSurfCore.obj
 0001:0004d984       extractSurf_computeRM$dtor$2 000000018004e984 f   extractSurfCore.obj
 0001:0004d99f       extractSurf_computeRM$dtor$3 000000018004e99f f   extractSurfCore.obj
 0001:0004d9c0       ?dtor$0@?0???$?0$$V@?$_Ref_count_obj2@VMWSURF@cv@@@std@@QEAA@XZ@4HA 000000018004e9c0 f   extractSurfCore.obj
 0001:0004d9e0       ?dtor$0@?0???$?6U?$char_traits@D@std@@@std@@YAAEAV?$basic_ostream@DU?$char_traits@D@std@@@0@AEAV10@PEBD@Z@4HA 000000018004e9e0 f   extractSurfCore.obj
 0001:0004da00       ?catch$1@?0???$?6U?$char_traits@D@std@@@std@@YAAEAV?$basic_ostream@DU?$char_traits@D@std@@@0@AEAV10@PEBD@Z@4HA 000000018004ea00 f   extractSurfCore.obj
 0001:0004da0d       __catch$??$?6U?$char_traits@D@std@@@std@@YAAEAV?$basic_ostream@DU?$char_traits@D@std@@@0@AEAV10@PEBD@Z$0 000000018004ea0d f   extractSurfCore.obj
 0001:0004da50       ?catch$0@?0???$_Emplace_reallocate@AEBVKeyPoint@cv@@@?$vector@VKeyPoint@cv@@V?$allocator@VKeyPoint@cv@@@std@@@std@@QEAAPEAVKeyPoint@cv@@QEAV23@AEBV23@@Z@4HA 000000018004ea50 f   extractSurfCore.obj
 0001:0004da5d       __catch$??$_Emplace_reallocate@AEBVKeyPoint@cv@@@?$vector@VKeyPoint@cv@@V?$allocator@VKeyPoint@cv@@@std@@@std@@QEAAPEAVKeyPoint@cv@@QEAV23@AEBV23@@Z$0 000000018004ea5d f   extractSurfCore.obj
 0001:0004daa0       ?dtor$0@?0???$_Uninitialized_copy@PEAVKeyPoint@cv@@V?$allocator@VKeyPoint@cv@@@std@@@std@@YAPEAVKeyPoint@cv@@QEAV12@0PEAV12@AEAV?$allocator@VKeyPoint@cv@@@0@@Z@4HA 000000018004eaa0 f   extractSurfCore.obj
 0001:0004dac0       ?dtor$0@?0???$_Uninitialized_move@PEAVKeyPoint@cv@@V?$allocator@VKeyPoint@cv@@@std@@@std@@YAPEAVKeyPoint@cv@@QEAV12@0PEAV12@AEAV?$allocator@VKeyPoint@cv@@@0@@Z@4HA 000000018004eac0 f   extractSurfCore.obj
 0001:0004dae0       ?dtor$0@?0???$make_shared@VMWSURF@cv@@$$V@std@@YA?AV?$shared_ptr@VMWSURF@cv@@@0@XZ@4HA 000000018004eae0 f   extractSurfCore.obj
 0001:0004db00       ?dtor$0@?0???0?$basic_string@DU?$char_traits@D@std@@V?$allocator@D@2@@std@@QEAA@AEBV01@@Z@4HA 000000018004eb00 f   extractSurfCore.obj
 0001:0004db20       ?dtor$0@?0???0?$basic_string@DU?$char_traits@D@std@@V?$allocator@D@2@@std@@QEAA@QEBD@Z@4HA 000000018004eb20 f   extractSurfCore.obj
 0001:0004db40       ?dtor$0@?0???0?$vector@VKeyPoint@cv@@V?$allocator@VKeyPoint@cv@@@std@@@std@@QEAA@AEBV01@@Z@4HA 000000018004eb40 f   extractSurfCore.obj
 0001:0004db60       ?dtor$0@?0???0Mat@cv@@QEAA@HHHPEAX_K@Z@4HA 000000018004eb60 f   extractSurfCore.obj
 0001:0004db80       ?dtor$1@?0???0Mat@cv@@QEAA@HHHPEAX_K@Z@4HA 000000018004eb80 f   extractSurfCore.obj
 0001:0004dba0       ?dtor$0@?0???0sentry@?$basic_ostream@DU?$char_traits@D@std@@@std@@QEAA@AEAV12@@Z@4HA 000000018004eba0 f   extractSurfCore.obj
 0001:0004dbc0       ?dtor$0@?0??clone@?$big_any_policy@V?$basic_string@DU?$char_traits@D@std@@V?$allocator@D@2@@std@@@anyimpl@cvflann@@UEAAXPEBQEAXPEAPEAX@Z@4HA 000000018004ebc0 f   extractSurfCore.obj
 0001:0004dbe0       ?dtor$0@?0??copy_from_value@?$big_any_policy@V?$basic_string@DU?$char_traits@D@std@@V?$allocator@D@2@@std@@@anyimpl@cvflann@@UEAAXPEBXPEAPEAX@Z@4HA 000000018004ebe0 f   extractSurfCore.obj
 0001:0004dc00       ?dtor$0@?0???0MWSURF@cv@@QEAA@XZ@4HA 000000018004ec00 f   mwsurf.obj
 0001:0004dc2a       ?dtor$0@?0???0MWSURF@cv@@QEAA@NHH_N0@Z@4HA 000000018004ec2a f   mwsurf.obj
 0001:0004dc54       ?dtor$0@?0???RMWSURF@cv@@QEBAXAEBV_InputArray@1@0AEAV?$vector@VKeyPoint@cv@@V?$allocator@VKeyPoint@cv@@@std@@@std@@AEBV_OutputArray@1@_N@Z@4HA 000000018004ec54 f   mwsurf.obj
 0001:0004dc6f       ?dtor$1@?0???RMWSURF@cv@@QEBAXAEBV_InputArray@1@0AEAV?$vector@VKeyPoint@cv@@V?$allocator@VKeyPoint@cv@@@std@@@std@@AEBV_OutputArray@1@_N@Z@4HA 000000018004ec6f f   mwsurf.obj
 0001:0004dc8a       ?dtor$2@?0???RMWSURF@cv@@QEBAXAEBV_InputArray@1@0AEAV?$vector@VKeyPoint@cv@@V?$allocator@VKeyPoint@cv@@@std@@@std@@AEBV_OutputArray@1@_N@Z@4HA 000000018004ec8a f   mwsurf.obj
 0001:0004dca5       ?dtor$3@?0???RMWSURF@cv@@QEBAXAEBV_InputArray@1@0AEAV?$vector@VKeyPoint@cv@@V?$allocator@VKeyPoint@cv@@@std@@@std@@AEBV_OutputArray@1@_N@Z@4HA 000000018004eca5 f   mwsurf.obj
 0001:0004dcc0       ?dtor$4@?0???RMWSURF@cv@@QEBAXAEBV_InputArray@1@0AEAV?$vector@VKeyPoint@cv@@V?$allocator@VKeyPoint@cv@@@std@@@std@@AEBV_OutputArray@1@_N@Z@4HA 000000018004ecc0 f   mwsurf.obj
 0001:0004dcdb       ?dtor$5@?0???RMWSURF@cv@@QEBAXAEBV_InputArray@1@0AEAV?$vector@VKeyPoint@cv@@V?$allocator@VKeyPoint@cv@@@std@@@std@@AEBV_OutputArray@1@_N@Z@4HA 000000018004ecdb f   mwsurf.obj
 0001:0004dcf6       ?dtor$6@?0???RMWSURF@cv@@QEBAXAEBV_InputArray@1@0AEAV?$vector@VKeyPoint@cv@@V?$allocator@VKeyPoint@cv@@@std@@@std@@AEBV_OutputArray@1@_N@Z@4HA 000000018004ecf6 f   mwsurf.obj
 0001:0004dd11       ?dtor$7@?0???RMWSURF@cv@@QEBAXAEBV_InputArray@1@0AEAV?$vector@VKeyPoint@cv@@V?$allocator@VKeyPoint@cv@@@std@@@std@@AEBV_OutputArray@1@_N@Z@4HA 000000018004ed11 f   mwsurf.obj
 0001:0004dd2c       ?dtor$8@?0???RMWSURF@cv@@QEBAXAEBV_InputArray@1@0AEAV?$vector@VKeyPoint@cv@@V?$allocator@VKeyPoint@cv@@@std@@@std@@AEBV_OutputArray@1@_N@Z@4HA 000000018004ed2c f   mwsurf.obj
 0001:0004dd47       ?dtor$9@?0???RMWSURF@cv@@QEBAXAEBV_InputArray@1@0AEAV?$vector@VKeyPoint@cv@@V?$allocator@VKeyPoint@cv@@@std@@@std@@AEBV_OutputArray@1@_N@Z@4HA 000000018004ed47 f   mwsurf.obj
 0001:0004dd62       ?dtor$10@?0???RMWSURF@cv@@QEBAXAEBV_InputArray@1@0AEAV?$vector@VKeyPoint@cv@@V?$allocator@VKeyPoint@cv@@@std@@@std@@AEBV_OutputArray@1@_N@Z@4HA 000000018004ed62 f   mwsurf.obj
 0001:0004dd7d       ?dtor$11@?0???RMWSURF@cv@@QEBAXAEBV_InputArray@1@0AEAV?$vector@VKeyPoint@cv@@V?$allocator@VKeyPoint@cv@@@std@@@std@@AEBV_OutputArray@1@_N@Z@4HA 000000018004ed7d f   mwsurf.obj
 0001:0004dd98       ?dtor$12@?0???RMWSURF@cv@@QEBAXAEBV_InputArray@1@0AEAV?$vector@VKeyPoint@cv@@V?$allocator@VKeyPoint@cv@@@std@@@std@@AEBV_OutputArray@1@_N@Z@4HA 000000018004ed98 f   mwsurf.obj
 0001:0004ddb3       ?dtor$13@?0???RMWSURF@cv@@QEBAXAEBV_InputArray@1@0AEAV?$vector@VKeyPoint@cv@@V?$allocator@VKeyPoint@cv@@@std@@@std@@AEBV_OutputArray@1@_N@Z@4HA 000000018004edb3 f   mwsurf.obj
 0001:0004ddce       ?dtor$14@?0???RMWSURF@cv@@QEBAXAEBV_InputArray@1@0AEAV?$vector@VKeyPoint@cv@@V?$allocator@VKeyPoint@cv@@@std@@@std@@AEBV_OutputArray@1@_N@Z@4HA 000000018004edce f   mwsurf.obj
 0001:0004dde9       ?dtor$15@?0???RMWSURF@cv@@QEBAXAEBV_InputArray@1@0AEAV?$vector@VKeyPoint@cv@@V?$allocator@VKeyPoint@cv@@@std@@@std@@AEBV_OutputArray@1@_N@Z@4HA 000000018004ede9 f   mwsurf.obj
 0001:0004de04       ?dtor$16@?0???RMWSURF@cv@@QEBAXAEBV_InputArray@1@0AEAV?$vector@VKeyPoint@cv@@V?$allocator@VKeyPoint@cv@@@std@@@std@@AEBV_OutputArray@1@_N@Z@4HA 000000018004ee04 f   mwsurf.obj
 0001:0004de1f       ?dtor$17@?0???RMWSURF@cv@@QEBAXAEBV_InputArray@1@0AEAV?$vector@VKeyPoint@cv@@V?$allocator@VKeyPoint@cv@@@std@@@std@@AEBV_OutputArray@1@_N@Z@4HA 000000018004ee1f f   mwsurf.obj
 0001:0004de3a       ?dtor$18@?0???RMWSURF@cv@@QEBAXAEBV_InputArray@1@0AEAV?$vector@VKeyPoint@cv@@V?$allocator@VKeyPoint@cv@@@std@@@std@@AEBV_OutputArray@1@_N@Z@4HA 000000018004ee3a f   mwsurf.obj
 0001:0004de55       ?dtor$19@?0???RMWSURF@cv@@QEBAXAEBV_InputArray@1@0AEAV?$vector@VKeyPoint@cv@@V?$allocator@VKeyPoint@cv@@@std@@@std@@AEBV_OutputArray@1@_N@Z@4HA 000000018004ee55 f   mwsurf.obj
 0001:0004de70       ?dtor$20@?0???RMWSURF@cv@@QEBAXAEBV_InputArray@1@0AEAV?$vector@VKeyPoint@cv@@V?$allocator@VKeyPoint@cv@@@std@@@std@@AEBV_OutputArray@1@_N@Z@4HA 000000018004ee70 f   mwsurf.obj
 0001:0004de8b       ?dtor$21@?0???RMWSURF@cv@@QEBAXAEBV_InputArray@1@0AEAV?$vector@VKeyPoint@cv@@V?$allocator@VKeyPoint@cv@@@std@@@std@@AEBV_OutputArray@1@_N@Z@4HA 000000018004ee8b f   mwsurf.obj
 0001:0004dea6       ?dtor$22@?0???RMWSURF@cv@@QEBAXAEBV_InputArray@1@0AEAV?$vector@VKeyPoint@cv@@V?$allocator@VKeyPoint@cv@@@std@@@std@@AEBV_OutputArray@1@_N@Z@4HA 000000018004eea6 f   mwsurf.obj
 0001:0004dec1       ?dtor$23@?0???RMWSURF@cv@@QEBAXAEBV_InputArray@1@0AEAV?$vector@VKeyPoint@cv@@V?$allocator@VKeyPoint@cv@@@std@@@std@@AEBV_OutputArray@1@_N@Z@4HA 000000018004eec1 f   mwsurf.obj
 0001:0004dedc       ?dtor$24@?0???RMWSURF@cv@@QEBAXAEBV_InputArray@1@0AEAV?$vector@VKeyPoint@cv@@V?$allocator@VKeyPoint@cv@@@std@@@std@@AEBV_OutputArray@1@_N@Z@4HA 000000018004eedc f   mwsurf.obj
 0001:0004def7       ?dtor$25@?0???RMWSURF@cv@@QEBAXAEBV_InputArray@1@0AEAV?$vector@VKeyPoint@cv@@V?$allocator@VKeyPoint@cv@@@std@@@std@@AEBV_OutputArray@1@_N@Z@4HA 000000018004eef7 f   mwsurf.obj
 0001:0004df12       ?dtor$0@?0??detectImpl@MWSURF@cv@@IEBAXAEBVMat@2@AEAV?$vector@VKeyPoint@cv@@V?$allocator@VKeyPoint@cv@@@std@@@std@@0@Z@4HA 000000018004ef12 f   mwsurf.obj
 0001:0004df2a       ?dtor$1@?0??detectImpl@MWSURF@cv@@IEBAXAEBVMat@2@AEAV?$vector@VKeyPoint@cv@@V?$allocator@VKeyPoint@cv@@@std@@@std@@0@Z@4HA 000000018004ef2a f   mwsurf.obj
 0001:0004df42       ?dtor$0@?0??computeImpl@MWSURF@cv@@IEBAXAEBVMat@2@AEAV?$vector@VKeyPoint@cv@@V?$allocator@VKeyPoint@cv@@@std@@@std@@AEAV32@@Z@4HA 000000018004ef42 f   mwsurf.obj
 0001:0004df5a       ?dtor$1@?0??computeImpl@MWSURF@cv@@IEBAXAEBVMat@2@AEAV?$vector@VKeyPoint@cv@@V?$allocator@VKeyPoint@cv@@@std@@@std@@AEAV32@@Z@4HA 000000018004ef5a f   mwsurf.obj
 0001:0004df75       ?dtor$2@?0??computeImpl@MWSURF@cv@@IEBAXAEBVMat@2@AEAV?$vector@VKeyPoint@cv@@V?$allocator@VKeyPoint@cv@@@std@@@std@@AEAV32@@Z@4HA 000000018004ef75 f   mwsurf.obj
 0001:0004df8d       ?dtor$3@?0??computeImpl@MWSURF@cv@@IEBAXAEBVMat@2@AEAV?$vector@VKeyPoint@cv@@V?$allocator@VKeyPoint@cv@@@std@@@std@@AEAV32@@Z@4HA 000000018004ef8d f   mwsurf.obj
 0001:0004dfa5       ?dtor$0@?0??findMaximaInLayer@MWSURFFindInvoker@cv@@SAXAEBVMat@2@0AEBV?$vector@VMat@cv@@V?$allocator@VMat@cv@@@std@@@std@@1AEBV?$vector@HV?$allocator@H@std@@@5@AEAV?$vector@VKeyPoint@cv@@V?$allocator@VKeyPoint@cv@@@std@@@5@HHMH@Z@4HA 000000018004efa5 f   mwsurf.obj
 0001:0004dfc0       ?dtor$0@?0??fastHessianDetector@cv@@YAXAEBVMat@1@0AEAV?$vector@VKeyPoint@cv@@V?$allocator@VKeyPoint@cv@@@std@@@std@@HHM@Z@4HA 000000018004efc0 f   mwsurf.obj
 0001:0004dfdb       ?dtor$1@?0??fastHessianDetector@cv@@YAXAEBVMat@1@0AEAV?$vector@VKeyPoint@cv@@V?$allocator@VKeyPoint@cv@@@std@@@std@@HHM@Z@4HA 000000018004efdb f   mwsurf.obj
 0001:0004dff6       ?dtor$2@?0??fastHessianDetector@cv@@YAXAEBVMat@1@0AEAV?$vector@VKeyPoint@cv@@V?$allocator@VKeyPoint@cv@@@std@@@std@@HHM@Z@4HA 000000018004eff6 f   mwsurf.obj
 0001:0004e011       ?dtor$3@?0??fastHessianDetector@cv@@YAXAEBVMat@1@0AEAV?$vector@VKeyPoint@cv@@V?$allocator@VKeyPoint@cv@@@std@@@std@@HHM@Z@4HA 000000018004f011 f   mwsurf.obj
 0001:0004e02c       ?dtor$4@?0??fastHessianDetector@cv@@YAXAEBVMat@1@0AEAV?$vector@VKeyPoint@cv@@V?$allocator@VKeyPoint@cv@@@std@@@std@@HHM@Z@4HA 000000018004f02c f   mwsurf.obj
 0001:0004e047       ?dtor$5@?0??fastHessianDetector@cv@@YAXAEBVMat@1@0AEAV?$vector@VKeyPoint@cv@@V?$allocator@VKeyPoint@cv@@@std@@@std@@HHM@Z@4HA 000000018004f047 f   mwsurf.obj
 0001:0004e062       ?dtor$6@?0??fastHessianDetector@cv@@YAXAEBVMat@1@0AEAV?$vector@VKeyPoint@cv@@V?$allocator@VKeyPoint@cv@@@std@@@std@@HHM@Z@4HA 000000018004f062 f   mwsurf.obj
 0001:0004e080       ?dtor$0@?0???$_Construct_n_copies_of_ty@U_Value_init_tag@std@@@?$vector@HV?$allocator@H@std@@@std@@AEAAX_KAEBU_Value_init_tag@1@@Z@4HA 000000018004f080 f   mwsurf.obj
 0001:0004e0a0       ?dtor$0@?0???$_Construct_n_copies_of_ty@U_Value_init_tag@std@@@?$vector@VMat@cv@@V?$allocator@VMat@cv@@@std@@@std@@AEAAX_KAEBU_Value_init_tag@1@@Z@4HA 000000018004f0a0 f   mwsurf.obj
 0001:0004e0c0       ?catch$0@?0???$_Resize_reallocate@U_Value_init_tag@std@@@?$vector@MV?$allocator@M@std@@@std@@AEAAX_KAEBU_Value_init_tag@1@@Z@4HA 000000018004f0c0 f   mwsurf.obj
 0001:0004e0cd       __catch$??$_Resize_reallocate@U_Value_init_tag@std@@@?$vector@MV?$allocator@M@std@@@std@@AEAAX_KAEBU_Value_init_tag@1@@Z$0 000000018004f0cd f   mwsurf.obj
 0001:0004e120       ?catch$0@?0???$_Resize_reallocate@U_Value_init_tag@std@@@?$vector@V?$Point_@H@cv@@V?$allocator@V?$Point_@H@cv@@@std@@@std@@AEAAX_KAEBU_Value_init_tag@1@@Z@4HA 000000018004f120 f   mwsurf.obj
 0001:0004e12d       __catch$??$_Resize_reallocate@U_Value_init_tag@std@@@?$vector@V?$Point_@H@cv@@V?$allocator@V?$Point_@H@cv@@@std@@@std@@AEAAX_KAEBU_Value_init_tag@1@@Z$0 000000018004f12d f   mwsurf.obj
 0001:0004e180       ?catch$0@?0???$_Resize_reallocate@U_Value_init_tag@std@@@?$vector@VKeyPoint@cv@@V?$allocator@VKeyPoint@cv@@@std@@@std@@AEAAX_KAEBU_Value_init_tag@1@@Z@4HA 000000018004f180 f   mwsurf.obj
 0001:0004e18d       __catch$??$_Resize_reallocate@U_Value_init_tag@std@@@?$vector@VKeyPoint@cv@@V?$allocator@VKeyPoint@cv@@@std@@@std@@AEAAX_KAEBU_Value_init_tag@1@@Z$0 000000018004f18d f   mwsurf.obj
 0001:0004e1e0       ?dtor$0@?0???$_Setpd@PEAUCvMat@@U?$DefaultDeleter@UCvMat@@@cv@@@?$shared_ptr@UCvMat@@@std@@AEAAXQEAUCvMat@@U?$DefaultDeleter@UCvMat@@@cv@@@Z@4HA 000000018004f1e0 f   mwsurf.obj
 0001:0004e200       ?dtor$1@?0???$_Setpd@PEAUCvMat@@U?$DefaultDeleter@UCvMat@@@cv@@@?$shared_ptr@UCvMat@@@std@@AEAAXQEAUCvMat@@U?$DefaultDeleter@UCvMat@@@cv@@@Z@4HA 000000018004f200 f   mwsurf.obj
 0001:0004e220       ?dtor$0@?0???$_Uninitialized_move@PEAV?$Point_@H@cv@@V?$allocator@V?$Point_@H@cv@@@std@@@std@@YAPEAV?$Point_@H@cv@@QEAV12@0PEAV12@AEAV?$allocator@V?$Point_@H@cv@@@0@@Z@4HA 000000018004f220 f   mwsurf.obj
 0001:0004e240       ?dtor$0@?0???$_Uninitialized_value_construct_n@V?$allocator@V?$Point_@H@cv@@@std@@@std@@YAPEAV?$Point_@H@cv@@PEAV12@_KAEAV?$allocator@V?$Point_@H@cv@@@0@@Z@4HA 000000018004f240 f   mwsurf.obj
 0001:0004e260       ?dtor$0@?0???$_Uninitialized_value_construct_n@V?$allocator@VKeyPoint@cv@@@std@@@std@@YAPEAVKeyPoint@cv@@PEAV12@_KAEAV?$allocator@VKeyPoint@cv@@@0@@Z@4HA 000000018004f260 f   mwsurf.obj
 0001:0004e280       ?dtor$0@?0???$_Uninitialized_value_construct_n@V?$allocator@VMat@cv@@@std@@@std@@YAPEAVMat@cv@@PEAV12@_KAEAV?$allocator@VMat@cv@@@0@@Z@4HA 000000018004f280 f   mwsurf.obj
 0001:0004e2a0       ?dtor$0@?0???0MWSURFInvoker@cv@@QEAA@AEBVMat@1@0AEAV?$vector@VKeyPoint@cv@@V?$allocator@VKeyPoint@cv@@@std@@@std@@AEAV21@_N3@Z@4HA 000000018004f2a0 f   mwsurf.obj
 0001:0004e2c0       ?dtor$1@?0???0MWSURFInvoker@cv@@QEAA@AEBVMat@1@0AEAV?$vector@VKeyPoint@cv@@V?$allocator@VKeyPoint@cv@@@std@@@std@@AEAV21@_N3@Z@4HA 000000018004f2c0 f   mwsurf.obj
 0001:0004e2e0       ?dtor$2@?0???0MWSURFInvoker@cv@@QEAA@AEBVMat@1@0AEAV?$vector@VKeyPoint@cv@@V?$allocator@VKeyPoint@cv@@@std@@@std@@AEAV21@_N3@Z@4HA 000000018004f2e0 f   mwsurf.obj
 0001:0004e300       ?dtor$3@?0???0MWSURFInvoker@cv@@QEAA@AEBVMat@1@0AEAV?$vector@VKeyPoint@cv@@V?$allocator@VKeyPoint@cv@@@std@@@std@@AEAV21@_N3@Z@4HA 000000018004f300 f   mwsurf.obj
 0001:0004e320       ?dtor$4@?0???0MWSURFInvoker@cv@@QEAA@AEBVMat@1@0AEAV?$vector@VKeyPoint@cv@@V?$allocator@VKeyPoint@cv@@@std@@@std@@AEAV21@_N3@Z@4HA 000000018004f320 f   mwsurf.obj
 0001:0004e340       ?dtor$5@?0???0MWSURFInvoker@cv@@QEAA@AEBVMat@1@0AEAV?$vector@VKeyPoint@cv@@V?$allocator@VKeyPoint@cv@@@std@@@std@@AEAV21@_N3@Z@4HA 000000018004f340 f   mwsurf.obj
 0001:0004e360       ?dtor$6@?0???0MWSURFInvoker@cv@@QEAA@AEBVMat@1@0AEAV?$vector@VKeyPoint@cv@@V?$allocator@VKeyPoint@cv@@@std@@@std@@AEAV21@_N3@Z@4HA 000000018004f360 f   mwsurf.obj
 0001:0004e380       ?dtor$0@?0???0_OutputArray@cv@@QEAA@AEAVMat@1@@Z@4HA 000000018004f380 f   mwsurf.obj
 0001:0004e3a0       ?dtor$0@?0???RMWSURFInvoker@cv@@UEBAXAEBVRange@1@@Z@4HA 000000018004f3a0 f   mwsurf.obj
 0001:0004e3c0       ?dtor$1@?0???RMWSURFInvoker@cv@@UEBAXAEBVRange@1@@Z@4HA 000000018004f3c0 f   mwsurf.obj
 0001:0004e3e0       ?dtor$2@?0???RMWSURFInvoker@cv@@UEBAXAEBVRange@1@@Z@4HA 000000018004f3e0 f   mwsurf.obj
 0001:0004e400       ?dtor$3@?0???RMWSURFInvoker@cv@@UEBAXAEBVRange@1@@Z@4HA 000000018004f400 f   mwsurf.obj
 0001:0004e420       ?dtor$4@?0???RMWSURFInvoker@cv@@UEBAXAEBVRange@1@@Z@4HA 000000018004f420 f   mwsurf.obj
 0001:0004e440       ?dtor$5@?0???RMWSURFInvoker@cv@@UEBAXAEBVRange@1@@Z@4HA 000000018004f440 f   mwsurf.obj
 0001:0004e460       fastHessianDetector_uint8$dtor$0 000000018004f460 f   fastHessianDetectorCore.obj
 0001:0004e47b       fastHessianDetector_uint8$dtor$1 000000018004f47b f   fastHessianDetectorCore.obj
 0001:0004e493       fastHessianDetector_uint8$dtor$2 000000018004f493 f   fastHessianDetectorCore.obj
 0001:0004e4ae       fastHessianDetector_uint8$dtor$4 000000018004f4ae f   fastHessianDetectorCore.obj
 0001:0004e4c9       ?dtor$0@?0??configureSURFDetectorCore@@YAXU?$Ptr@VMWSURF@cv@@@cv@@HHH_K1@Z@4HA 000000018004f4c9 f   fastHessianDetectorCore.obj
 0001:0004e4e1       __scrt_is_nonwritable_in_current_image$filt$0 000000018004f4e1 f   MSVCRT:utility.obj
 0001:0004e4f9       ?fin$0@?0??dllmain_crt_process_attach@@YAHQEAUHINSTANCE__@@QEAX@Z@4HA 000000018004f4f9 f   MSVCRT:dll_dllmain.obj
 0001:0004e510       ?fin$0@?0??dllmain_crt_process_detach@@YAH_N@Z@4HA 000000018004f510 f   MSVCRT:dll_dllmain.obj
 0001:0004e529       ?fin$1@?0??dllmain_crt_process_detach@@YAH_N@Z@4HA 000000018004f529 f   MSVCRT:dll_dllmain.obj
 0001:0004e53d       ?filt$0@?0??dllmain_dispatch@@YAHQEAUHINSTANCE__@@KQEAX@Z@4HA 000000018004f53d f   MSVCRT:dll_dllmain.obj
 0001:0004e580       ??__F?policy@?$SinglePolicy@H@anyimpl@cvflann@@0U?$small_any_policy@H@23@A@@YAXXZ 000000018004f580 f   extractSurfCore.obj
 0001:0004e5a0       ??__F?policy@?$SinglePolicy@I@anyimpl@cvflann@@0U?$small_any_policy@I@23@A@@YAXXZ 000000018004f5a0 f   extractSurfCore.obj
 0001:0004e5c0       ??__F?policy@?$SinglePolicy@M@anyimpl@cvflann@@0U?$small_any_policy@M@23@A@@YAXXZ 000000018004f5c0 f   extractSurfCore.obj
 0001:0004e5e0       ??__F?policy@?$SinglePolicy@PEBD@anyimpl@cvflann@@0U?$small_any_policy@PEBD@23@A@@YAXXZ 000000018004f5e0 f   extractSurfCore.obj
 0001:0004e600       ??__F?policy@?$SinglePolicy@Uempty_any@anyimpl@cvflann@@@anyimpl@cvflann@@0U?$big_any_policy@Uempty_any@anyimpl@cvflann@@@23@A@@YAXXZ 000000018004f600 f   extractSurfCore.obj
 0001:0004e620       ??__F?policy@?$SinglePolicy@V?$basic_string@DU?$char_traits@D@std@@V?$allocator@D@2@@std@@@anyimpl@cvflann@@0U?$big_any_policy@V?$basic_string@DU?$char_traits@D@std@@V?$allocator@D@2@@std@@@23@A@@YAXXZ 000000018004f620 f   extractSurfCore.obj
 0001:0004e640       ??__F?policy@?$SinglePolicy@W4flann_algorithm_t@cvflann@@@anyimpl@cvflann@@0U?$big_any_policy@W4flann_algorithm_t@cvflann@@@23@A@@YAXXZ 000000018004f640 f   extractSurfCore.obj
 0001:0004e660       ??__F?policy@?$SinglePolicy@W4flann_centers_init_t@cvflann@@@anyimpl@cvflann@@0U?$big_any_policy@W4flann_centers_init_t@cvflann@@@23@A@@YAXXZ 000000018004f660 f   extractSurfCore.obj
 0001:0004e680       ??__F?policy@?$SinglePolicy@_N@anyimpl@cvflann@@0U?$small_any_policy@_N@23@A@@YAXXZ 000000018004f680 f   extractSurfCore.obj
 0001:0004e6a0       ??__F?policy@?$SinglePolicy@H@anyimpl@cvflann@@0U?$small_any_policy@H@23@A@@YAXXZ 000000018004f6a0 f   cgCommon.obj
 0001:0004e6c0       ??__F?policy@?$SinglePolicy@I@anyimpl@cvflann@@0U?$small_any_policy@I@23@A@@YAXXZ 000000018004f6c0 f   cgCommon.obj
 0001:0004e6e0       ??__F?policy@?$SinglePolicy@M@anyimpl@cvflann@@0U?$small_any_policy@M@23@A@@YAXXZ 000000018004f6e0 f   cgCommon.obj
 0001:0004e700       ??__F?policy@?$SinglePolicy@PEBD@anyimpl@cvflann@@0U?$small_any_policy@PEBD@23@A@@YAXXZ 000000018004f700 f   cgCommon.obj
 0001:0004e720       ??__F?policy@?$SinglePolicy@Uempty_any@anyimpl@cvflann@@@anyimpl@cvflann@@0U?$big_any_policy@Uempty_any@anyimpl@cvflann@@@23@A@@YAXXZ 000000018004f720 f   cgCommon.obj
 0001:0004e740       ??__F?policy@?$SinglePolicy@V?$basic_string@DU?$char_traits@D@std@@V?$allocator@D@2@@std@@@anyimpl@cvflann@@0U?$big_any_policy@V?$basic_string@DU?$char_traits@D@std@@V?$allocator@D@2@@std@@@23@A@@YAXXZ 000000018004f740 f   cgCommon.obj
 0001:0004e760       ??__F?policy@?$SinglePolicy@W4flann_algorithm_t@cvflann@@@anyimpl@cvflann@@0U?$big_any_policy@W4flann_algorithm_t@cvflann@@@23@A@@YAXXZ 000000018004f760 f   cgCommon.obj
 0001:0004e780       ??__F?policy@?$SinglePolicy@W4flann_centers_init_t@cvflann@@@anyimpl@cvflann@@0U?$big_any_policy@W4flann_centers_init_t@cvflann@@@23@A@@YAXXZ 000000018004f780 f   cgCommon.obj
 0001:0004e7a0       ??__F?policy@?$SinglePolicy@_N@anyimpl@cvflann@@0U?$small_any_policy@_N@23@A@@YAXXZ 000000018004f7a0 f   cgCommon.obj
 0001:0004e7c0       ??__F?findMaximaInLayer_m@MWSURFFindInvoker@cv@@2Vrecursive_mutex@std@@A@@YAXXZ 000000018004f7c0 f   mwsurf.obj
 0001:0004e7e0       ??__F?policy@?$SinglePolicy@H@anyimpl@cvflann@@0U?$small_any_policy@H@23@A@@YAXXZ 000000018004f7e0 f   fastHessianDetectorCore.obj
 0001:0004e800       ??__F?policy@?$SinglePolicy@I@anyimpl@cvflann@@0U?$small_any_policy@I@23@A@@YAXXZ 000000018004f800 f   fastHessianDetectorCore.obj
 0001:0004e820       ??__F?policy@?$SinglePolicy@M@anyimpl@cvflann@@0U?$small_any_policy@M@23@A@@YAXXZ 000000018004f820 f   fastHessianDetectorCore.obj
 0001:0004e840       ??__F?policy@?$SinglePolicy@PEBD@anyimpl@cvflann@@0U?$small_any_policy@PEBD@23@A@@YAXXZ 000000018004f840 f   fastHessianDetectorCore.obj
 0001:0004e860       ??__F?policy@?$SinglePolicy@Uempty_any@anyimpl@cvflann@@@anyimpl@cvflann@@0U?$big_any_policy@Uempty_any@anyimpl@cvflann@@@23@A@@YAXXZ 000000018004f860 f   fastHessianDetectorCore.obj
 0001:0004e880       ??__F?policy@?$SinglePolicy@V?$basic_string@DU?$char_traits@D@std@@V?$allocator@D@2@@std@@@anyimpl@cvflann@@0U?$big_any_policy@V?$basic_string@DU?$char_traits@D@std@@V?$allocator@D@2@@std@@@23@A@@YAXXZ 000000018004f880 f   fastHessianDetectorCore.obj
 0001:0004e8a0       ??__F?policy@?$SinglePolicy@W4flann_algorithm_t@cvflann@@@anyimpl@cvflann@@0U?$big_any_policy@W4flann_algorithm_t@cvflann@@@23@A@@YAXXZ 000000018004f8a0 f   fastHessianDetectorCore.obj
 0001:0004e8c0       ??__F?policy@?$SinglePolicy@W4flann_centers_init_t@cvflann@@@anyimpl@cvflann@@0U?$big_any_policy@W4flann_centers_init_t@cvflann@@@23@A@@YAXXZ 000000018004f8c0 f   fastHessianDetectorCore.obj
 0001:0004e8e0       ??__F?policy@?$SinglePolicy@_N@anyimpl@cvflann@@0U?$small_any_policy@_N@23@A@@YAXXZ 000000018004f8e0 f   fastHessianDetectorCore.obj
 0002:00000818       ??policy$initializer$@?$SinglePolicy@Uempty_any@anyimpl@cvflann@@@anyimpl@cvflann@@0P6AXXZEA@@3P6AXXZEA 0000000180050818     extractSurfCore.obj
 0002:00000820       ??policy$initializer$@?$SinglePolicy@PEBD@anyimpl@cvflann@@0P6AXXZEA@@3P6AXXZEA 0000000180050820     extractSurfCore.obj
 0002:00000828       ??policy$initializer$@?$SinglePolicy@H@anyimpl@cvflann@@0P6AXXZEA@@3P6AXXZEA 0000000180050828     extractSurfCore.obj
 0002:00000830       ??policy$initializer$@?$SinglePolicy@M@anyimpl@cvflann@@0P6AXXZEA@@3P6AXXZEA 0000000180050830     extractSurfCore.obj
 0002:00000838       ??policy$initializer$@?$SinglePolicy@_N@anyimpl@cvflann@@0P6AXXZEA@@3P6AXXZEA 0000000180050838     extractSurfCore.obj
 0002:00000840       ??policy$initializer$@?$SinglePolicy@W4flann_algorithm_t@cvflann@@@anyimpl@cvflann@@0P6AXXZEA@@3P6AXXZEA 0000000180050840     extractSurfCore.obj
 0002:00000848       ??policy$initializer$@?$SinglePolicy@W4flann_centers_init_t@cvflann@@@anyimpl@cvflann@@0P6AXXZEA@@3P6AXXZEA 0000000180050848     extractSurfCore.obj
 0002:00000850       ??policy$initializer$@?$SinglePolicy@I@anyimpl@cvflann@@0P6AXXZEA@@3P6AXXZEA 0000000180050850     extractSurfCore.obj
 0002:00000858       ??policy$initializer$@?$SinglePolicy@V?$basic_string@DU?$char_traits@D@std@@V?$allocator@D@2@@std@@@anyimpl@cvflann@@0P6AXXZEA@@3P6AXXZEA 0000000180050858     extractSurfCore.obj
 0002:00000860       ??findMaximaInLayer_m$initializer$@MWSURFFindInvoker@cv@@2P6AXXZEA@@3P6AXXZEA 0000000180050860     mwsurf.obj
 0002:00000900       c4_cv                      0000000180050900     c4_flightControlSystem.obj
 0002:00000930       c4_cv1                     0000000180050930     c4_flightControlSystem.obj
 0002:00000958       c4_cv2                     0000000180050958     c4_flightControlSystem.obj
 0002:00000980       c4_cv3                     0000000180050980     c4_flightControlSystem.obj
 0002:00000990       c4_cv4                     0000000180050990     c4_flightControlSystem.obj
 0002:000009a0       c4_cv5                     00000001800509a0     c4_flightControlSystem.obj
 0002:000009d4       ?c4_decisionTxtEndIdx@?1??mdl_setup_runtime_resources_c4_flightControlSystem@@9@9 00000001800509d4     c4_flightControlSystem.obj
 0002:000009d8       c4_cv6                     00000001800509d8     c4_flightControlSystem.obj
 0002:00000a08       c4_cv7                     0000000180050a08     c4_flightControlSystem.obj
 0002:00000a3c       ?c4_decisionTxtStartIdx@?1??mdl_setup_runtime_resources_c4_flightControlSystem@@9@9 0000000180050a3c     c4_flightControlSystem.obj
 0002:00000a40       c4_cv8                     0000000180050a40     c4_flightControlSystem.obj
 0002:00000a70       c4_cv9                     0000000180050a70     c4_flightControlSystem.obj
 0002:00000aa0       c4_cv10                    0000000180050aa0     c4_flightControlSystem.obj
 0002:00000bd0       $SG163867                  0000000180050bd0     extractSurfCore.obj
 0002:00000c49       ?piecewise_construct@std@@3Upiecewise_construct_t@1@B 0000000180050c49     extractSurfCore.obj
 0002:00000c50       $SG163868                  0000000180050c50     extractSurfCore.obj
 0002:00000cb0       $SG163869                  0000000180050cb0     extractSurfCore.obj
 0002:00000d00       $SG164022                  0000000180050d00     extractSurfCore.obj
 0002:00000d80       $SG164023                  0000000180050d80     extractSurfCore.obj
 0002:00000de0       $SG164024                  0000000180050de0     extractSurfCore.obj
 0002:00000e30       $SG164208                  0000000180050e30     extractSurfCore.obj
 0002:00000eb0       $SG164209                  0000000180050eb0     extractSurfCore.obj
 0002:00000f08       $SG148548                  0000000180050f08     extractSurfCore.obj
 0002:00000f20       $SG164210                  0000000180050f20     extractSurfCore.obj
 0002:00000f70       $SG148547                  0000000180050f70     extractSurfCore.obj
 0002:00000fc4       $SG93251                   0000000180050fc4     extractSurfCore.obj
 0002:00000fc8       $SG148549                  0000000180050fc8     extractSurfCore.obj
 0002:00000ff0       $SG148588                  0000000180050ff0     extractSurfCore.obj
 0002:00001044       $SG86046                   0000000180051044     extractSurfCore.obj
 0002:00001048       $SG148589                  0000000180051048     extractSurfCore.obj
 0002:00001060       $SG148590                  0000000180051060     extractSurfCore.obj
 0002:00001088       $SG86062                   0000000180051088     extractSurfCore.obj
 0002:0000108c       $SG86063                   000000018005108c     extractSurfCore.obj
 0002:00001090       $SG86064                   0000000180051090     extractSurfCore.obj
 0002:000010a0       $SG162119                  00000001800510a0     extractSurfCore.obj
 0002:00001120       $SG162120                  0000000180051120     extractSurfCore.obj
 0002:00001170       $SG162121                  0000000180051170     extractSurfCore.obj
 0002:000011c0       $SG162286                  00000001800511c0     extractSurfCore.obj
 0002:00001240       $SG162287                  0000000180051240     extractSurfCore.obj
 0002:000012a0       $SG162288                  00000001800512a0     extractSurfCore.obj
 0002:000012f0       $SG162441                  00000001800512f0     extractSurfCore.obj
 0002:00001370       $SG162442                  0000000180051370     extractSurfCore.obj
 0002:000013d0       $SG162443                  00000001800513d0     extractSurfCore.obj
 0002:00001420       $SG162627                  0000000180051420     extractSurfCore.obj
 0002:000014a0       $SG162628                  00000001800514a0     extractSurfCore.obj
 0002:00001500       $SG162629                  0000000180051500     extractSurfCore.obj
 0002:00001550       $SG162782                  0000000180051550     extractSurfCore.obj
 0002:000015d0       $SG162783                  00000001800515d0     extractSurfCore.obj
 0002:00001630       $SG162784                  0000000180051630     extractSurfCore.obj
 0002:00001680       $SG162937                  0000000180051680     extractSurfCore.obj
 0002:00001700       $SG162938                  0000000180051700     extractSurfCore.obj
 0002:00001760       $SG162939                  0000000180051760     extractSurfCore.obj
 0002:000017b0       $SG163092                  00000001800517b0     extractSurfCore.obj
 0002:00001830       $SG163093                  0000000180051830     extractSurfCore.obj
 0002:000018a0       $SG163094                  00000001800518a0     extractSurfCore.obj
 0002:000018f0       $SG163247                  00000001800518f0     extractSurfCore.obj
 0002:00001970       $SG163248                  0000000180051970     extractSurfCore.obj
 0002:000019d0       $SG163249                  00000001800519d0     extractSurfCore.obj
 0002:00001a20       $SG163402                  0000000180051a20     extractSurfCore.obj
 0002:00001aa0       $SG163403                  0000000180051aa0     extractSurfCore.obj
 0002:00001b00       $SG163404                  0000000180051b00     extractSurfCore.obj
 0002:00001b50       $SG163557                  0000000180051b50     extractSurfCore.obj
 0002:00001bd0       $SG163558                  0000000180051bd0     extractSurfCore.obj
 0002:00001c30       $SG163559                  0000000180051c30     extractSurfCore.obj
 0002:00001c80       $SG163712                  0000000180051c80     extractSurfCore.obj
 0002:00001d00       $SG163713                  0000000180051d00     extractSurfCore.obj
 0002:00001d60       $SG163714                  0000000180051d60     extractSurfCore.obj
 0002:000022f0       $SG93252                   00000001800522f0     surfCommon.obj
 0002:000022f4       $SG86047                   00000001800522f4     surfCommon.obj
 0002:000022f8       $SG86063                   00000001800522f8     surfCommon.obj
 0002:000022fc       $SG86064                   00000001800522fc     surfCommon.obj
 0002:00002300       $SG86065                   0000000180052300     surfCommon.obj
 0002:00002308       $SG103828                  0000000180052308     surfCommon.obj
 0002:00002330       $SG103786                  0000000180052330     surfCommon.obj
 0002:00002400       $SG103787                  0000000180052400     surfCommon.obj
 0002:00002450       $SG103823                  0000000180052450     surfCommon.obj
 0002:00002520       $SG103824                  0000000180052520     surfCommon.obj
 0002:000025b8       $SG103856                  00000001800525b8     surfCommon.obj
 0002:000025e0       $SG103827                  00000001800525e0     surfCommon.obj
 0002:000026b0       $SG103851                  00000001800526b0     surfCommon.obj
 0002:00002780       $SG103852                  0000000180052780     surfCommon.obj
 0002:00002818       $SG105533                  0000000180052818     surfCommon.obj
 0002:00002840       $SG103855                  0000000180052840     surfCommon.obj
 0002:00002910       $SG105532                  0000000180052910     surfCommon.obj
 0002:000029e0       $SG106115                  00000001800529e0     surfCommon.obj
 0002:00002a38       $SG106116                  0000000180052a38     surfCommon.obj
 0002:00002a48       $SG106117                  0000000180052a48     surfCommon.obj
 0002:00002a80       ?piecewise_construct@std@@3Upiecewise_construct_t@1@B 0000000180052a80     cgCommon.obj
 0002:00002a84       $SG93453                   0000000180052a84     cgCommon.obj
 0002:00002a88       $SG86248                   0000000180052a88     cgCommon.obj
 0002:00002a8c       $SG86264                   0000000180052a8c     cgCommon.obj
 0002:00002a90       $SG86265                   0000000180052a90     cgCommon.obj
 0002:00002a94       $SG86266                   0000000180052a94     cgCommon.obj
 0002:00002aa0       $SG161508                  0000000180052aa0     cgCommon.obj
 0002:00002b20       $SG161509                  0000000180052b20     cgCommon.obj
 0002:00002b70       $SG161510                  0000000180052b70     cgCommon.obj
 0002:00002bc0       $SG161675                  0000000180052bc0     cgCommon.obj
 0002:00002c40       $SG161676                  0000000180052c40     cgCommon.obj
 0002:00002ca0       $SG161677                  0000000180052ca0     cgCommon.obj
 0002:00002cf0       $SG161830                  0000000180052cf0     cgCommon.obj
 0002:00002d70       $SG161831                  0000000180052d70     cgCommon.obj
 0002:00002dd0       $SG161832                  0000000180052dd0     cgCommon.obj
 0002:00002e20       $SG162016                  0000000180052e20     cgCommon.obj
 0002:00002ea0       $SG162017                  0000000180052ea0     cgCommon.obj
 0002:00002f00       $SG162018                  0000000180052f00     cgCommon.obj
 0002:00002f50       $SG162171                  0000000180052f50     cgCommon.obj
 0002:00002fd0       $SG162172                  0000000180052fd0     cgCommon.obj
 0002:00003030       $SG162173                  0000000180053030     cgCommon.obj
 0002:00003080       $SG162326                  0000000180053080     cgCommon.obj
 0002:00003100       $SG162327                  0000000180053100     cgCommon.obj
 0002:00003160       $SG162328                  0000000180053160     cgCommon.obj
 0002:000031b0       $SG162481                  00000001800531b0     cgCommon.obj
 0002:00003230       $SG162482                  0000000180053230     cgCommon.obj
 0002:000032a0       $SG162483                  00000001800532a0     cgCommon.obj
 0002:000032f0       $SG162636                  00000001800532f0     cgCommon.obj
 0002:00003370       $SG162637                  0000000180053370     cgCommon.obj
 0002:000033d0       $SG162638                  00000001800533d0     cgCommon.obj
 0002:00003420       $SG162791                  0000000180053420     cgCommon.obj
 0002:000034a0       $SG162792                  00000001800534a0     cgCommon.obj
 0002:00003500       $SG162793                  0000000180053500     cgCommon.obj
 0002:00003550       $SG162946                  0000000180053550     cgCommon.obj
 0002:000035d0       $SG162947                  00000001800535d0     cgCommon.obj
 0002:00003630       $SG162948                  0000000180053630     cgCommon.obj
 0002:00003680       $SG163101                  0000000180053680     cgCommon.obj
 0002:00003700       $SG163102                  0000000180053700     cgCommon.obj
 0002:00003760       $SG163103                  0000000180053760     cgCommon.obj
 0002:000037b0       $SG163256                  00000001800537b0     cgCommon.obj
 0002:00003830       $SG163257                  0000000180053830     cgCommon.obj
 0002:00003890       $SG163258                  0000000180053890     cgCommon.obj
 0002:000038e0       $SG163411                  00000001800538e0     cgCommon.obj
 0002:00003960       $SG163412                  0000000180053960     cgCommon.obj
 0002:000039c0       $SG163413                  00000001800539c0     cgCommon.obj
 0002:00003a10       $SG163597                  0000000180053a10     cgCommon.obj
 0002:00003a90       $SG163598                  0000000180053a90     cgCommon.obj
 0002:00003af0       $SG163599                  0000000180053af0     cgCommon.obj
 0002:00003b40       $SG109148                  0000000180053b40     mwsurf.obj
 0002:00003b90       $SG109149                  0000000180053b90     mwsurf.obj
 0002:00003ba8       $SG109150                  0000000180053ba8     mwsurf.obj
 0002:00003bd0       $SG109155                  0000000180053bd0     mwsurf.obj
 0002:00003c1c       $SG93252                   0000000180053c1c     mwsurf.obj
 0002:00003c20       $SG109156                  0000000180053c20     mwsurf.obj
 0002:00003c38       $SG109161                  0000000180053c38     mwsurf.obj
 0002:00003c50       $SG109157                  0000000180053c50     mwsurf.obj
 0002:00003c94       $SG86047                   0000000180053c94     mwsurf.obj
 0002:00003c98       $SG109162                  0000000180053c98     mwsurf.obj
 0002:00003cb0       $SG109160                  0000000180053cb0     mwsurf.obj
 0002:00003d00       $SG109165                  0000000180053d00     mwsurf.obj
 0002:00003d4c       $SG86063                   0000000180053d4c     mwsurf.obj
 0002:00003d50       $SG109166                  0000000180053d50     mwsurf.obj
 0002:00003d68       $SG109167                  0000000180053d68     mwsurf.obj
 0002:00003d78       $SG109171                  0000000180053d78     mwsurf.obj
 0002:00003d90       $SG109170                  0000000180053d90     mwsurf.obj
 0002:00003ddc       $SG86064                   0000000180053ddc     mwsurf.obj
 0002:00003de0       $SG109172                  0000000180053de0     mwsurf.obj
 0002:00003df4       $SG86065                   0000000180053df4     mwsurf.obj
 0002:00003df8       $SG103828                  0000000180053df8     mwsurf.obj
 0002:00003e20       $SG103786                  0000000180053e20     mwsurf.obj
 0002:00003ef0       $SG103787                  0000000180053ef0     mwsurf.obj
 0002:00003f40       $SG103823                  0000000180053f40     mwsurf.obj
 0002:00004010       $SG103824                  0000000180054010     mwsurf.obj
 0002:000040a8       $SG103856                  00000001800540a8     mwsurf.obj
 0002:000040d0       $SG103827                  00000001800540d0     mwsurf.obj
 0002:000041a0       $SG103851                  00000001800541a0     mwsurf.obj
 0002:00004270       $SG103852                  0000000180054270     mwsurf.obj
 0002:00004308       $SG105533                  0000000180054308     mwsurf.obj
 0002:00004330       $SG103855                  0000000180054330     mwsurf.obj
 0002:00004400       $SG105532                  0000000180054400     mwsurf.obj
 0002:000044d0       $SG106115                  00000001800544d0     mwsurf.obj
 0002:00004528       $SG106116                  0000000180054528     mwsurf.obj
 0002:00004538       $SG106117                  0000000180054538     mwsurf.obj
 0002:00004850       $SG163940                  0000000180054850     fastHessianDetectorCore.obj
 0002:000048c9       ?piecewise_construct@std@@3Upiecewise_construct_t@1@B 00000001800548c9     fastHessianDetectorCore.obj
 0002:000048d0       $SG163941                  00000001800548d0     fastHessianDetectorCore.obj
 0002:00004928       $SG148380                  0000000180054928     fastHessianDetectorCore.obj
 0002:00004950       $SG163942                  0000000180054950     fastHessianDetectorCore.obj
 0002:000049a0       $SG148378                  00000001800549a0     fastHessianDetectorCore.obj
 0002:000049fc       $SG93251                   00000001800549fc     fastHessianDetectorCore.obj
 0002:00004a00       $SG148379                  0000000180054a00     fastHessianDetectorCore.obj
 0002:00004a1c       $SG86046                   0000000180054a1c     fastHessianDetectorCore.obj
 0002:00004a20       $SG86062                   0000000180054a20     fastHessianDetectorCore.obj
 0002:00004a24       $SG86063                   0000000180054a24     fastHessianDetectorCore.obj
 0002:00004a28       $SG86064                   0000000180054a28     fastHessianDetectorCore.obj
 0002:00004a30       $SG161851                  0000000180054a30     fastHessianDetectorCore.obj
 0002:00004ab0       $SG161852                  0000000180054ab0     fastHessianDetectorCore.obj
 0002:00004b00       $SG161853                  0000000180054b00     fastHessianDetectorCore.obj
 0002:00004b50       $SG162018                  0000000180054b50     fastHessianDetectorCore.obj
 0002:00004bd0       $SG162019                  0000000180054bd0     fastHessianDetectorCore.obj
 0002:00004c30       $SG162020                  0000000180054c30     fastHessianDetectorCore.obj
 0002:00004c80       $SG162173                  0000000180054c80     fastHessianDetectorCore.obj
 0002:00004d00       $SG162174                  0000000180054d00     fastHessianDetectorCore.obj
 0002:00004d60       $SG162175                  0000000180054d60     fastHessianDetectorCore.obj
 0002:00004db0       $SG162359                  0000000180054db0     fastHessianDetectorCore.obj
 0002:00004e30       $SG162360                  0000000180054e30     fastHessianDetectorCore.obj
 0002:00004e90       $SG162361                  0000000180054e90     fastHessianDetectorCore.obj
 0002:00004ee0       $SG162514                  0000000180054ee0     fastHessianDetectorCore.obj
 0002:00004f60       $SG162515                  0000000180054f60     fastHessianDetectorCore.obj
 0002:00004fc0       $SG162516                  0000000180054fc0     fastHessianDetectorCore.obj
 0002:00005010       $SG162669                  0000000180055010     fastHessianDetectorCore.obj
 0002:00005090       $SG162670                  0000000180055090     fastHessianDetectorCore.obj
 0002:000050f0       $SG162671                  00000001800550f0     fastHessianDetectorCore.obj
 0002:00005140       $SG162824                  0000000180055140     fastHessianDetectorCore.obj
 0002:000051c0       $SG162825                  00000001800551c0     fastHessianDetectorCore.obj
 0002:00005230       $SG162826                  0000000180055230     fastHessianDetectorCore.obj
 0002:00005280       $SG162979                  0000000180055280     fastHessianDetectorCore.obj
 0002:00005300       $SG162980                  0000000180055300     fastHessianDetectorCore.obj
 0002:00005360       $SG162981                  0000000180055360     fastHessianDetectorCore.obj
 0002:000053b0       $SG163134                  00000001800553b0     fastHessianDetectorCore.obj
 0002:00005430       $SG163135                  0000000180055430     fastHessianDetectorCore.obj
 0002:00005490       $SG163136                  0000000180055490     fastHessianDetectorCore.obj
 0002:000054e0       $SG163289                  00000001800554e0     fastHessianDetectorCore.obj
 0002:00005560       $SG163290                  0000000180055560     fastHessianDetectorCore.obj
 0002:000055c0       $SG163291                  00000001800555c0     fastHessianDetectorCore.obj
 0002:00005610       $SG163444                  0000000180055610     fastHessianDetectorCore.obj
 0002:00005690       $SG163445                  0000000180055690     fastHessianDetectorCore.obj
 0002:000056f0       $SG163446                  00000001800556f0     fastHessianDetectorCore.obj
 0002:00005740       $SG163599                  0000000180055740     fastHessianDetectorCore.obj
 0002:000057c0       $SG163600                  00000001800557c0     fastHessianDetectorCore.obj
 0002:00005820       $SG163601                  0000000180055820     fastHessianDetectorCore.obj
 0002:00005870       $SG163754                  0000000180055870     fastHessianDetectorCore.obj
 0002:000058f0       $SG163755                  00000001800558f0     fastHessianDetectorCore.obj
 0002:00005950       $SG163756                  0000000180055950     fastHessianDetectorCore.obj
 0002:000059a8       GS_ExceptionPointers       00000001800559a8     MSVCRT:gs_report.obj
 0002:00006e00       $unwind$load_flightControlSystem_optimization_info 0000000180056e00     flightControlSystem_sfun.obj
 0002:00006e08       $unwind$unload_flightControlSystem_optimization_info 0000000180056e08     flightControlSystem_sfun.obj
 0002:00006e10       $unwind$sf_flightControlSystem_method_dispatcher 0000000180056e10     flightControlSystem_sfun.obj
 0002:00006e18       $unwind$sf_flightControlSystem_process_check_sum_call 0000000180056e18     flightControlSystem_sfun.obj
 0002:00006e28       $unwind$sf_flightControlSystem_get_eml_resolved_functions_info 0000000180056e28     flightControlSystem_sfun.obj
 0002:00006e38       $unwind$sf_flightControlSystem_third_party_uses_info 0000000180056e38     flightControlSystem_sfun.obj
 0002:00006e48       $unwind$sf_flightControlSystem_jit_fallback_info 0000000180056e48     flightControlSystem_sfun.obj
 0002:00006e58       $unwind$sf_flightControlSystem_get_post_codegen_info 0000000180056e58     flightControlSystem_sfun.obj
 0002:00006e68       $unwind$sf_flightControlSystem_updateBuildInfo_args_info 0000000180056e68     flightControlSystem_sfun.obj
 0002:00006e78       $unwind$frexpf             0000000180056e78     c4_flightControlSystem.obj
 0002:00006e80       $unwind$sf_c4_flightControlSystem_get_eml_resolved_functions_info 0000000180056e80     c4_flightControlSystem.obj
 0002:00006e88       $unwind$sf_c4_flightControlSystem_get_check_sum 0000000180056e88     c4_flightControlSystem.obj
 0002:00006e90       $unwind$c4_flightControlSystem_method_dispatcher 0000000180056e90     c4_flightControlSystem.obj
 0002:00006e98       $unwind$initialize_c4_flightControlSystem 0000000180056e98     c4_flightControlSystem.obj
 0002:00006ea0       $unwind$enable_c4_flightControlSystem 0000000180056ea0     c4_flightControlSystem.obj
 0002:00006ea8       $unwind$disable_c4_flightControlSystem 0000000180056ea8     c4_flightControlSystem.obj
 0002:00006eb0       $unwind$c4_do_animation_call_c4_flightControlSystem 0000000180056eb0     c4_flightControlSystem.obj
 0002:00006eb8       $unwind$get_sim_state_c4_flightControlSystem 0000000180056eb8     c4_flightControlSystem.obj
 0002:00006ec0       $unwind$set_sim_state_c4_flightControlSystem 0000000180056ec0     c4_flightControlSystem.obj
 0002:00006ec8       $unwind$sf_gateway_c4_flightControlSystem 0000000180056ec8     c4_flightControlSystem.obj
 0002:00006edc       $unwind$mdl_setup_runtime_resources_c4_flightControlSystem 0000000180056edc     c4_flightControlSystem.obj
 0002:00006ee4       $unwind$mdl_cleanup_runtime_resources_c4_flightControlSystem 0000000180056ee4     c4_flightControlSystem.obj
 0002:00006eec       $unwind$c4_imread          0000000180056eec     c4_flightControlSystem.obj
 0002:00006efc       $unwind$c4_warning         0000000180056efc     c4_flightControlSystem.obj
 0002:00006f04       $unwind$c4_detectSURFFeatures 0000000180056f04     c4_flightControlSystem.obj
 0002:00006f18       $unwind$c4_SURFPoints_SURFPoints 0000000180056f18     c4_flightControlSystem.obj
 0002:00006f20       $unwind$c4_FeaturePointsImpl_checkLocation 0000000180056f20     c4_flightControlSystem.obj
 0002:00006f28       $unwind$c4_inputMeetsSizeRequirement 0000000180056f28     c4_flightControlSystem.obj
 0002:00006f30       $unwind$c4_FeaturePointsImpl_checkMetric 0000000180056f30     c4_flightControlSystem.obj
 0002:00006f38       $unwind$c4_all             0000000180056f38     c4_flightControlSystem.obj
 0002:00006f40       $unwind$c4_SURFPointsImpl_checkScale 0000000180056f40     c4_flightControlSystem.obj
 0002:00006f48       $unwind$c4_b_all           0000000180056f48     c4_flightControlSystem.obj
 0002:00006f50       $unwind$c4_check_forloop_overflow_error 0000000180056f50     c4_flightControlSystem.obj
 0002:00006f58       $unwind$c4_repmat          0000000180056f58     c4_flightControlSystem.obj
 0002:00006f60       $unwind$c4_assertValidSizeArg 0000000180056f60     c4_flightControlSystem.obj
 0002:00006f68       $unwind$c4_SURFPointsImpl_selectStrongest 0000000180056f68     c4_flightControlSystem.obj
 0002:00006f7c       $unwind$c4_indexShapeCheck 0000000180056f7c     c4_flightControlSystem.obj
 0002:00006f84       $unwind$c4_SURFPoints_getIndexedObj 0000000180056f84     c4_flightControlSystem.obj
 0002:00006f94       $unwind$c4_b_SURFPoints_SURFPoints 0000000180056f94     c4_flightControlSystem.obj
 0002:00006fa0       $unwind$c4_SURFPointsImpl_validate 0000000180056fa0     c4_flightControlSystem.obj
 0002:00006fa8       $unwind$c4_extractFeatures 0000000180056fa8     c4_flightControlSystem.obj
 0002:00006fbc       $unwind$c4_extractSURFFeatures 0000000180056fbc     c4_flightControlSystem.obj
 0002:00006fd0       $unwind$c4_parseSURFInputs 0000000180056fd0     c4_flightControlSystem.obj
 0002:00006fe0       $unwind$c4_c_SURFPoints_SURFPoints 0000000180056fe0     c4_flightControlSystem.obj
 0002:00006fec       $unwind$c4_b_detectSURFFeatures 0000000180056fec     c4_flightControlSystem.obj
 0002:00007000       $unwind$c4_b_extractFeatures 0000000180057000     c4_flightControlSystem.obj
 0002:00007014       $unwind$c4_b_extractSURFFeatures 0000000180057014     c4_flightControlSystem.obj
 0002:00007028       $unwind$c4_b_parseSURFInputs 0000000180057028     c4_flightControlSystem.obj
 0002:00007038       $unwind$c4_matchFeatures   0000000180057038     c4_flightControlSystem.obj
 0002:00007040       $unwind$c4_sumColumnB      0000000180057040     c4_flightControlSystem.obj
 0002:00007048       $unwind$c4_findNearestNeighbors 0000000180057048     c4_flightControlSystem.obj
 0002:00007050       $unwind$c4_allinrange      0000000180057050     c4_flightControlSystem.obj
 0002:00007058       $unwind$c4_emlrt_marshallIn 0000000180057058     c4_flightControlSystem.obj
 0002:00007060       $unwind$c4_b_emlrt_marshallIn 0000000180057060     c4_flightControlSystem.obj
 0002:00007068       $unwind$c4_c_emlrt_marshallIn 0000000180057068     c4_flightControlSystem.obj
 0002:00007070       $unwind$c4_d_emlrt_marshallIn 0000000180057070     c4_flightControlSystem.obj
 0002:00007078       $unwind$c4_chart_data_browse_helper 0000000180057078     c4_flightControlSystem.obj
 0002:00007080       $unwind$c4_feval           0000000180057080     c4_flightControlSystem.obj
 0002:00007088       $unwind$c4_b_feval         0000000180057088     c4_flightControlSystem.obj
 0002:00007090       $unwind$c4_c_sort          0000000180057090     c4_flightControlSystem.obj
 0002:00007098       $unwind$c4_c_sortIdx       0000000180057098     c4_flightControlSystem.obj
 0002:000070a8       $unwind$c4_c_merge_pow2_block 00000001800570a8     c4_flightControlSystem.obj
 0002:000070b8       $unwind$c4_c_merge_block   00000001800570b8     c4_flightControlSystem.obj
 0002:000070c0       $unwind$c4_c_merge         00000001800570c0     c4_flightControlSystem.obj
 0002:000070c8       $unwind$c4_b_SURFPointsImpl_configure 00000001800570c8     c4_flightControlSystem.obj
 0002:000070d0       $unwind$c4_b_normalizeFeature 00000001800570d0     c4_flightControlSystem.obj
 0002:000070e0       $unwind$c4_d_sort          00000001800570e0     c4_flightControlSystem.obj
 0002:000070e8       $unwind$c4_d_sortIdx       00000001800570e8     c4_flightControlSystem.obj
 0002:000070f8       $unwind$c4_d_merge_pow2_block 00000001800570f8     c4_flightControlSystem.obj
 0002:00007108       $unwind$c4_d_merge_block   0000000180057108     c4_flightControlSystem.obj
 0002:00007110       $unwind$c4_d_merge         0000000180057110     c4_flightControlSystem.obj
 0002:00007118       $unwind$c4_b_removeAmbiguousMatches 0000000180057118     c4_flightControlSystem.obj
 0002:00007120       $unwind$c4_emxInitStruct_SURFPoints 0000000180057120     c4_flightControlSystem.obj
 0002:00007128       $unwind$c4_emxInit_real32_T 0000000180057128     c4_flightControlSystem.obj
 0002:00007130       $unwind$c4_emxInit_real32_T1 0000000180057130     c4_flightControlSystem.obj
 0002:00007138       $unwind$c4_emxInit_int8_T  0000000180057138     c4_flightControlSystem.obj
 0002:00007140       $unwind$c4_emxInit_uint32_T 0000000180057140     c4_flightControlSystem.obj
 0002:00007148       $unwind$c4_emxFree_real32_T 0000000180057148     c4_flightControlSystem.obj
 0002:00007150       $unwind$c4_emxFreeStruct_SURFPoints 0000000180057150     c4_flightControlSystem.obj
 0002:00007158       $unwind$c4_emxFree_int8_T  0000000180057158     c4_flightControlSystem.obj
 0002:00007160       $unwind$c4_emxFree_uint32_T 0000000180057160     c4_flightControlSystem.obj
 0002:00007168       $unwind$c4_emxEnsureCapacity_real32_T 0000000180057168     c4_flightControlSystem.obj
 0002:00007170       $unwind$c4_emxEnsureCapacity_real32_T1 0000000180057170     c4_flightControlSystem.obj
 0002:00007178       $unwind$c4_emxEnsureCapacity_int8_T 0000000180057178     c4_flightControlSystem.obj
 0002:00007180       $unwind$c4_emxCopyStruct_s_j4PQEGdN8dC5rck 0000000180057180     c4_flightControlSystem.obj
 0002:00007188       $unwind$c4_emxCopy_real32_T 0000000180057188     c4_flightControlSystem.obj
 0002:00007190       $unwind$c4_emxCopy_real32_T1 0000000180057190     c4_flightControlSystem.obj
 0002:00007198       $unwind$c4_emxCopy_int8_T  0000000180057198     c4_flightControlSystem.obj
 0002:000071a0       $unwind$c4_emxInitStruct_s_j4PQEGdN8dC5rck 00000001800571a0     c4_flightControlSystem.obj
 0002:000071a8       $unwind$c4_emxFreeStruct_s_j4PQEGdN8dC5rck 00000001800571a8     c4_flightControlSystem.obj
 0002:000071b0       $unwind$c4_emxEnsureCapacity_boolean_T 00000001800571b0     c4_flightControlSystem.obj
 0002:000071b8       $unwind$c4_emxInitStruct_s_LBK2BPCTsGNRgPb 00000001800571b8     c4_flightControlSystem.obj
 0002:000071c0       $unwind$c4_emxInit_boolean_T 00000001800571c0     c4_flightControlSystem.obj
 0002:000071c8       $unwind$c4_emxFreeStruct_s_LBK2BPCTsGNRgPb 00000001800571c8     c4_flightControlSystem.obj
 0002:000071d0       $unwind$c4_emxFree_boolean_T 00000001800571d0     c4_flightControlSystem.obj
 0002:000071d8       $unwind$c4_emxEnsureCapacity_real_T 00000001800571d8     c4_flightControlSystem.obj
 0002:000071e0       $unwind$c4_emxEnsureCapacity_int32_T 00000001800571e0     c4_flightControlSystem.obj
 0002:000071e8       $unwind$c4_emxCopyStruct_SURFPoints 00000001800571e8     c4_flightControlSystem.obj
 0002:000071f0       $unwind$c4_emxInit_real_T  00000001800571f0     c4_flightControlSystem.obj
 0002:000071f8       $unwind$c4_emxInit_int32_T 00000001800571f8     c4_flightControlSystem.obj
 0002:00007200       $unwind$c4_emxFree_real_T  0000000180057200     c4_flightControlSystem.obj
 0002:00007208       $unwind$c4_emxFree_int32_T 0000000180057208     c4_flightControlSystem.obj
 0002:00007210       $unwind$c4_emxCopyStruct_s_SnCseetuPvRBpOW 0000000180057210     c4_flightControlSystem.obj
 0002:00007218       $unwind$c4_emxInitStruct_s_SnCseetuPvRBpOW 0000000180057218     c4_flightControlSystem.obj
 0002:00007220       $unwind$c4_emxFreeStruct_s_SnCseetuPvRBpOW 0000000180057220     c4_flightControlSystem.obj
 0002:00007228       $unwind$c4_emxCopyStruct_s_dAlD7xno2U8WY2c 0000000180057228     c4_flightControlSystem.obj
 0002:00007230       $unwind$c4_emxInitStruct_s_dAlD7xno2U8WY2c 0000000180057230     c4_flightControlSystem.obj
 0002:00007238       $unwind$c4_emxFreeStruct_s_dAlD7xno2U8WY2c 0000000180057238     c4_flightControlSystem.obj
 0002:00007240       $unwind$c4_emxEnsureCapacity_boolean_T1 0000000180057240     c4_flightControlSystem.obj
 0002:00007248       $unwind$c4_emxEnsureCapacity_int32_T1 0000000180057248     c4_flightControlSystem.obj
 0002:00007250       $unwind$c4_emxEnsureCapacity_uint32_T 0000000180057250     c4_flightControlSystem.obj
 0002:00007258       $unwind$c4_emxInit_int32_T1 0000000180057258     c4_flightControlSystem.obj
 0002:00007260       $unwind$c4_emxInit_boolean_T1 0000000180057260     c4_flightControlSystem.obj
 0002:00007268       $unwind$c4_emxEnsureCapacity_real_T1 0000000180057268     c4_flightControlSystem.obj
 0002:00007270       $unwind$c4_emxInitMatrix_cell_wrap_31 0000000180057270     c4_flightControlSystem.obj
 0002:00007278       $unwind$c4_emxInitStruct_cell_wrap_31 0000000180057278     c4_flightControlSystem.obj
 0002:00007280       $unwind$c4_emxInit_real_T1 0000000180057280     c4_flightControlSystem.obj
 0002:00007288       $unwind$c4_emxFreeMatrix_cell_wrap_31 0000000180057288     c4_flightControlSystem.obj
 0002:00007290       $unwind$c4_emxFreeStruct_cell_wrap_31 0000000180057290     c4_flightControlSystem.obj
 0002:00007298       $unwind$init_simulink_io_address 0000000180057298     c4_flightControlSystem.obj
 0002:000072a0       $unwind$sf_c4_flightControlSystem_third_party_uses_info 00000001800572a0     c4_flightControlSystem.obj
 0002:000072a8       $unwind$sf_c4_flightControlSystem_jit_fallback_info 00000001800572a8     c4_flightControlSystem.obj
 0002:000072b8       $unwind$sf_c4_flightControlSystem_updateBuildInfo_args_info 00000001800572b8     c4_flightControlSystem.obj
 0002:000072c0       $unwind$sf_get_sim_state_info_c4_flightControlSystem 00000001800572c0     c4_flightControlSystem.obj
 0002:000072c8       $unwind$sf_opaque_initialize_c4_flightControlSystem 00000001800572c8     c4_flightControlSystem.obj
 0002:000072d0       $unwind$sf_opaque_enable_c4_flightControlSystem 00000001800572d0     c4_flightControlSystem.obj
 0002:000072d8       $unwind$sf_opaque_disable_c4_flightControlSystem 00000001800572d8     c4_flightControlSystem.obj
 0002:000072e0       $unwind$sf_opaque_gateway_c4_flightControlSystem 00000001800572e0     c4_flightControlSystem.obj
 0002:000072e8       $unwind$sf_opaque_get_sim_state_c4_flightControlSystem 00000001800572e8     c4_flightControlSystem.obj
 0002:000072f0       $unwind$sf_opaque_set_sim_state_c4_flightControlSystem 00000001800572f0     c4_flightControlSystem.obj
 0002:000072f8       $unwind$sf_opaque_cleanup_runtime_resources_c4_flightControlSystem 00000001800572f8     c4_flightControlSystem.obj
 0002:00007300       $unwind$sf_opaque_mdl_start_c4_flightControlSystem 0000000180057300     c4_flightControlSystem.obj
 0002:00007308       $unwind$sf_opaque_mdl_terminate_c4_flightControlSystem 0000000180057308     c4_flightControlSystem.obj
 0002:00007310       $unwind$mdlProcessParameters_c4_flightControlSystem 0000000180057310     c4_flightControlSystem.obj
 0002:00007318       $unwind$sf_c4_flightControlSystem_get_post_codegen_info 0000000180057318     c4_flightControlSystem.obj
 0002:00007328       $unwind$mdlSetWorkWidths_c4_flightControlSystem 0000000180057328     c4_flightControlSystem.obj
 0002:00007330       $unwind$mdlRTW_c4_flightControlSystem 0000000180057330     c4_flightControlSystem.obj
 0002:00007338       $unwind$mdlSetupRuntimeResources_c4_flightControlSystem 0000000180057338     c4_flightControlSystem.obj
 0002:00007340       $unwind$_vsnprintf_l       0000000180057340     flightControlSystem_sfun_registry.obj
 0002:00007348       $unwind$_vsprintf_l        0000000180057348     flightControlSystem_sfun_registry.obj
 0002:00007350       $unwind$sprintf            0000000180057350     flightControlSystem_sfun_registry.obj
 0002:00007358       $unwind$mexFunction        0000000180057358     flightControlSystem_sfun_registry.obj
 0002:00007368       $unwind$_ssSetInputPortDirectFeedThroughFcn 0000000180057368     flightControlSystem_sfun_registry.obj
 0002:00007378       $unwind$_ssSetRWorkValueFcn 0000000180057378     flightControlSystem_sfun_registry.obj
 0002:00007380       $unwind$_ssGetRWorkValueFcn 0000000180057380     flightControlSystem_sfun_registry.obj
 0002:00007388       $unwind$_ssSetIWorkValueFcn 0000000180057388     flightControlSystem_sfun_registry.obj
 0002:00007390       $unwind$_ssGetIWorkValueFcn 0000000180057390     flightControlSystem_sfun_registry.obj
 0002:00007398       $unwind$_ssSetPWorkValueFcn 0000000180057398     flightControlSystem_sfun_registry.obj
 0002:000073a0       $unwind$_ssGetPWorkValueFcn 00000001800573a0     flightControlSystem_sfun_registry.obj
 0002:000073a8       $unwind$_ssGetInputPortSignalFcn 00000001800573a8     flightControlSystem_sfun_registry.obj
 0002:000073b8       $unwind$_ssGetInputPortBufferDstPortFcn 00000001800573b8     flightControlSystem_sfun_registry.obj
 0002:000073c0       $unwind$_ssGetInputPortSignalPtrsFcn 00000001800573c0     flightControlSystem_sfun_registry.obj
 0002:000073d0       $unwind$ssGetParameterTuningCompliance 00000001800573d0     flightControlSystem_sfun_registry.obj
 0002:000073d8       $unwind$ssGetDTypeIdFromMxArray 00000001800573d8     flightControlSystem_sfun_registry.obj
 0002:000073e0       $unwind$ssWriteRTWMx2dMatParam 00000001800573e0     flightControlSystem_sfun_registry.obj
 0002:000073e8       $unwind$ssWriteRTWMxVectParam 00000001800573e8     flightControlSystem_sfun_registry.obj
 0002:000073f0       $unwind$ssWriteRTWParameters 00000001800573f0     flightControlSystem_sfun_registry.obj
 0002:000073f8       $unwind$ssWriteRTWParamSettings 00000001800573f8     flightControlSystem_sfun_registry.obj
 0002:00007400       $unwind$ssWriteRTWStr      0000000180057400     flightControlSystem_sfun_registry.obj
 0002:00007408       $unwind$ssWriteRTWWorkVect 0000000180057408     flightControlSystem_sfun_registry.obj
 0002:0000741c       $unwind$ssWarning          000000018005741c     flightControlSystem_sfun_registry.obj
 0002:00007430       $unwind$ssWriteRTWNameValuePair 0000000180057430     flightControlSystem_sfun_registry.obj
 0002:00007438       $unwind$_ssSetInputPortMatrixDimensions 0000000180057438     flightControlSystem_sfun_registry.obj
 0002:00007444       $unwind$_ssSetOutputPortMatrixDimensions 0000000180057444     flightControlSystem_sfun_registry.obj
 0002:00007450       $unwind$_ssSetInputPortVectorDimension 0000000180057450     flightControlSystem_sfun_registry.obj
 0002:0000745c       $unwind$_ssSetOutputPortVectorDimension 000000018005745c     flightControlSystem_sfun_registry.obj
 0002:00007468       $unwind$ssIsRunTimeParamTunable 0000000180057468     flightControlSystem_sfun_registry.obj
 0002:00007470       $unwind$ssGetSFuncBlockHandle 0000000180057470     flightControlSystem_sfun_registry.obj
 0002:00007478       $unwind$_ssGetCurrentInputPortWidth 0000000180057478     flightControlSystem_sfun_registry.obj
 0002:00007480       $unwind$_ssGetCurrentOutputPortWidth 0000000180057480     flightControlSystem_sfun_registry.obj
 0002:00007488       $unwind$_ssGetCallSystemNumFcnCallDestinations 0000000180057488     flightControlSystem_sfun_registry.obj
 0002:00007490       $unwind$ssGetIsZeroCrossControlDisabled 0000000180057490     flightControlSystem_sfun_registry.obj
 0002:00007498       $unwind$ssSetIsInputPortUsedForContZcSignal 0000000180057498     flightControlSystem_sfun_registry.obj
 0002:000074a0       $unwind$ssSetZcSignalIsZcElementDisc 00000001800574a0     flightControlSystem_sfun_registry.obj
 0002:000074b0       $unwind$ssSetZcSignalName  00000001800574b0     flightControlSystem_sfun_registry.obj
 0002:000074b8       $unwind$ssSetZcSignalWidth 00000001800574b8     flightControlSystem_sfun_registry.obj
 0002:000074c0       $unwind$ssSetZcSignalZcEventType 00000001800574c0     flightControlSystem_sfun_registry.obj
 0002:000074c8       $unwind$ssSetZcSignalType  00000001800574c8     flightControlSystem_sfun_registry.obj
 0002:000074d0       $unwind$ssSetZcSignalZcTol 00000001800574d0     flightControlSystem_sfun_registry.obj
 0002:000074d8       $unwind$ssSetZcSignalNeedsEventNotification 00000001800574d8     flightControlSystem_sfun_registry.obj
 0002:000074e0       $unwind$ssCreateAndAddZcSignalInfo 00000001800574e0     flightControlSystem_sfun_registry.obj
 0002:000074e8       $unwind$ssCloneAndAddZcSignalInfo 00000001800574e8     flightControlSystem_sfun_registry.obj
 0002:000074f0       $unwind$ssGetNumZcSignals  00000001800574f0     flightControlSystem_sfun_registry.obj
 0002:000074f8       $unwind$ssGetZcSignalVector 00000001800574f8     flightControlSystem_sfun_registry.obj
 0002:00007500       $unwind$ssGetZcSignalName  0000000180057500     flightControlSystem_sfun_registry.obj
 0002:00007508       $unwind$ssGetZcSignalWidth 0000000180057508     flightControlSystem_sfun_registry.obj
 0002:00007510       $unwind$ssGetZcSignalZcEventType 0000000180057510     flightControlSystem_sfun_registry.obj
 0002:00007518       $unwind$ssGetZcSignalZcEvents 0000000180057518     flightControlSystem_sfun_registry.obj
 0002:00007520       $unwind$ssGetZcSignalType  0000000180057520     flightControlSystem_sfun_registry.obj
 0002:00007528       $unwind$ssGetZcSignalZcTol 0000000180057528     flightControlSystem_sfun_registry.obj
 0002:00007530       $unwind$ssGetZcSignalNeedsEventNotification 0000000180057530     flightControlSystem_sfun_registry.obj
 0002:00007538       $unwind$ssGetZcSignalIsZcElementDisc 0000000180057538     flightControlSystem_sfun_registry.obj
 0002:00007548       $unwind$ssGetIsInputPortElementContinuous 0000000180057548     flightControlSystem_sfun_registry.obj
 0002:00007558       $unwind$_ssGetAbsTol       0000000180057558     flightControlSystem_sfun_registry.obj
 0002:00007560       $unwind$_ssSetInputPortReusableFcn 0000000180057560     flightControlSystem_sfun_registry.obj
 0002:00007568       $unwind$_ssSetOutputPortReusableFcn 0000000180057568     flightControlSystem_sfun_registry.obj
 0002:00007570       $unwind$_ssSetSymbolicDimsSupport 0000000180057570     flightControlSystem_sfun_registry.obj
 0002:00007578       $unwind$_ssRegisterSymbolicDimsExpr 0000000180057578     flightControlSystem_sfun_registry.obj
 0002:00007580       $unwind$_ssRegisterSymbolicDims 0000000180057580     flightControlSystem_sfun_registry.obj
 0002:00007588       $unwind$_ssRegisterSymbolicDimsString 0000000180057588     flightControlSystem_sfun_registry.obj
 0002:00007590       $unwind$_ssRegisterSymbolicDimsIntValue 0000000180057590     flightControlSystem_sfun_registry.obj
 0002:00007598       $unwind$_ssRegisterSymbolicDimsPlus 0000000180057598     flightControlSystem_sfun_registry.obj
 0002:000075a0       $unwind$_ssRegisterSymbolicDimsMinus 00000001800575a0     flightControlSystem_sfun_registry.obj
 0002:000075a8       $unwind$_ssRegisterSymbolicDimsMultiply 00000001800575a8     flightControlSystem_sfun_registry.obj
 0002:000075b0       $unwind$_ssRegisterSymbolicDimsDivide 00000001800575b0     flightControlSystem_sfun_registry.obj
 0002:000075b8       $unwind$_ssGetNumSymbolicDims 00000001800575b8     flightControlSystem_sfun_registry.obj
 0002:000075c0       $unwind$_ssGetSymbolicDim  00000001800575c0     flightControlSystem_sfun_registry.obj
 0002:000075c8       $unwind$_ssSetInputPortSymbolicDimsId 00000001800575c8     flightControlSystem_sfun_registry.obj
 0002:000075d0       $unwind$_ssGetCompInputPortSymbolicDimsId 00000001800575d0     flightControlSystem_sfun_registry.obj
 0002:000075d8       $unwind$_ssSetCompInputPortSymbolicDimsId 00000001800575d8     flightControlSystem_sfun_registry.obj
 0002:000075e0       $unwind$_ssSetOutputPortSymbolicDimsId 00000001800575e0     flightControlSystem_sfun_registry.obj
 0002:000075e8       $unwind$_ssGetCompOutputPortSymbolicDimsId 00000001800575e8     flightControlSystem_sfun_registry.obj
 0002:000075f0       $unwind$_ssSetCompOutputPortSymbolicDimsId 00000001800575f0     flightControlSystem_sfun_registry.obj
 0002:000075f8       $unwind$_ssSetCompDWorkSymbolicDimsId 00000001800575f8     flightControlSystem_sfun_registry.obj
 0002:00007600       $unwind$sf_process_check_sum_call 0000000180057600     flightControlSystem_sfun_registry.obj
 0002:00007608       $unwind$sf_process_get_third_party_uses_info_call 0000000180057608     flightControlSystem_sfun_registry.obj
 0002:00007618       $unwind$sf_process_get_jit_fallback_info_call 0000000180057618     flightControlSystem_sfun_registry.obj
 0002:00007628       $unwind$sf_process_get_post_codegen_info_call 0000000180057628     flightControlSystem_sfun_registry.obj
 0002:00007638       $unwind$sf_process_get_updateBuildInfo_args_info_call 0000000180057638     flightControlSystem_sfun_registry.obj
 0002:00007648       $unwind$sf_process_get_eml_resolved_functions_info_call 0000000180057648     flightControlSystem_sfun_registry.obj
 0002:00007658       $unwind$sf_mex_unlock_call 0000000180057658     flightControlSystem_sfun_registry.obj
 0002:00007668       $unwind$ProcessMexSfunctionCmdLineCall 0000000180057668     flightControlSystem_sfun_registry.obj
 0002:00007670       $unwind$sf_machine_global_initializer_called 0000000180057670     flightControlSystem_sfun_registry.obj
 0002:00007678       $unwind$sf_machine_global_method_dispatcher 0000000180057678     flightControlSystem_sfun_registry.obj
 0002:00007680       $unwind$sf_machine_global_terminator 0000000180057680     flightControlSystem_sfun_registry.obj
 0002:00007688       $unwind$sf_register_machine_exported_symbols 0000000180057688     flightControlSystem_sfun_registry.obj
 0002:00007690       $unwind$sf_machine_global_initializer 0000000180057690     flightControlSystem_sfun_registry.obj
 0002:00007698       $unwind$mdlGetSimState     0000000180057698     flightControlSystem_sfun_registry.obj
 0002:000076a0       $unwind$mdlSetSimState     00000001800576a0     flightControlSystem_sfun_registry.obj
 0002:000076a8       $unwind$mdlSetWorkWidths   00000001800576a8     flightControlSystem_sfun_registry.obj
 0002:000076b0       $unwind$mdlProcessParameters 00000001800576b0     flightControlSystem_sfun_registry.obj
 0002:000076b8       $unwind$mdl_setup_runtime_resources_processing 00000001800576b8     flightControlSystem_sfun_registry.obj
 0002:000076c0       $unwind$mdlSetupRuntimeResources 00000001800576c0     flightControlSystem_sfun_registry.obj
 0002:000076c8       $unwind$mdl_cleanup_runtime_resources_processing 00000001800576c8     flightControlSystem_sfun_registry.obj
 0002:000076d0       $unwind$mdlCleanupRuntimeResources 00000001800576d0     flightControlSystem_sfun_registry.obj
 0002:000076d8       $unwind$mdl_start_processing 00000001800576d8     flightControlSystem_sfun_registry.obj
 0002:000076e0       $unwind$mdlStart           00000001800576e0     flightControlSystem_sfun_registry.obj
 0002:000076e8       $unwind$mdl_terminate_processing 00000001800576e8     flightControlSystem_sfun_registry.obj
 0002:000076f0       $unwind$mdlTerminate       00000001800576f0     flightControlSystem_sfun_registry.obj
 0002:000076f8       $unwind$mdlInitializeSizes 00000001800576f8     flightControlSystem_sfun_registry.obj
 0002:00007700       $unwind$mdlInitializeSampleTimes 0000000180057700     flightControlSystem_sfun_registry.obj
 0002:00007708       $unwind$mdl_outputs_continuous_legacy 0000000180057708     flightControlSystem_sfun_registry.obj
 0002:00007710       $unwind$mdl_outputs_processing 0000000180057710     flightControlSystem_sfun_registry.obj
 0002:00007718       $unwind$mdl_zeroCrossings_processing 0000000180057718     flightControlSystem_sfun_registry.obj
 0002:00007720       $unwind$mdlZeroCrossings   0000000180057720     flightControlSystem_sfun_registry.obj
 0002:00007728       $unwind$mdl_derivatives_processing 0000000180057728     flightControlSystem_sfun_registry.obj
 0002:00007730       $unwind$mdlDerivatives     0000000180057730     flightControlSystem_sfun_registry.obj
 0002:00007738       $unwind$mdl_initialize_conditions_processing 0000000180057738     flightControlSystem_sfun_registry.obj
 0002:00007740       $unwind$mdlInitializeConditions 0000000180057740     flightControlSystem_sfun_registry.obj
 0002:00007748       $unwind$mdl_ext_mode_exec_processing 0000000180057748     flightControlSystem_sfun_registry.obj
 0002:00007750       $unwind$mdlExtModeExec     0000000180057750     flightControlSystem_sfun_registry.obj
 0002:00007758       $unwind$mdlRTW             0000000180057758     flightControlSystem_sfun_registry.obj
 0002:00007760       $unwind$mdl_enable_processing 0000000180057760     flightControlSystem_sfun_registry.obj
 0002:00007768       $unwind$mdlEnable          0000000180057768     flightControlSystem_sfun_registry.obj
 0002:00007770       $unwind$mdl_disable_processing 0000000180057770     flightControlSystem_sfun_registry.obj
 0002:00007778       $unwind$mdlDisable         0000000180057778     flightControlSystem_sfun_registry.obj
 0002:00007780       $unwind$mdlOutputs         0000000180057780     flightControlSystem_sfun_registry.obj
 0002:00007788       $unwind$mdl_update_processing 0000000180057788     flightControlSystem_sfun_registry.obj
 0002:00007790       $unwind$mdlUpdate          0000000180057790     flightControlSystem_sfun_registry.obj
 0002:00007798       $unwind$ProcessMexSfunctionEveryCall 0000000180057798     flightControlSystem_sfun_registry.obj
 0002:000077a0       $unwind$_RegNumInputPortsCB 00000001800577a0     flightControlSystem_sfun_registry.obj
 0002:000077a8       $unwind$_RegNumOutputPortsCB 00000001800577a8     flightControlSystem_sfun_registry.obj
 0002:000077b0       $unwind$_CreateSimStruct   00000001800577b0     flightControlSystem_sfun_registry.obj
 0002:000077b8       $unwind$_ProcessMexSfunctionCmdLineCall 00000001800577b8     flightControlSystem_sfun_registry.obj
 0002:000077c8       $unwind$ReportIndexOutOfBoundsError 00000001800577c8     flightControlSystem_sfun_registry.obj
 0002:000077d8       $unwind$wmemcpy            00000001800577d8     extractSurfCore.obj
 0002:000077e0       $unwind$??0exception@std@@QEAA@QEBDH@Z 00000001800577e0     extractSurfCore.obj
 0002:000077e8       $unwind$??0exception@std@@QEAA@AEBV01@@Z 00000001800577e8     extractSurfCore.obj
 0002:000077f8       $cppxdata$??0exception@std@@QEAA@AEBV01@@Z 00000001800577f8     extractSurfCore.obj
 0002:000077fd       $ip2state$??0exception@std@@QEAA@AEBV01@@Z 00000001800577fd     extractSurfCore.obj
 0002:00007800       $unwind$??1exception@std@@UEAA@XZ 0000000180057800     extractSurfCore.obj
 0002:00007810       $cppxdata$??1exception@std@@UEAA@XZ 0000000180057810     extractSurfCore.obj
 0002:00007815       $ip2state$??1exception@std@@UEAA@XZ 0000000180057815     extractSurfCore.obj
 0002:00007818       $unwind$?what@exception@std@@UEBAPEBDXZ 0000000180057818     extractSurfCore.obj
 0002:00007820       $unwind$??_Gexception@std@@UEAAPEAXI@Z 0000000180057820     extractSurfCore.obj
 0002:00007828       $unwind$??0bad_alloc@std@@AEAA@QEBD@Z 0000000180057828     extractSurfCore.obj
 0002:00007830       $unwind$??1bad_alloc@std@@UEAA@XZ 0000000180057830     extractSurfCore.obj
 0002:00007838       $unwind$??0bad_alloc@std@@QEAA@AEBV01@@Z 0000000180057838     extractSurfCore.obj
 0002:00007840       $unwind$??_Gbad_alloc@std@@UEAAPEAXI@Z 0000000180057840     extractSurfCore.obj
 0002:00007848       $unwind$??0bad_array_new_length@std@@QEAA@XZ 0000000180057848     extractSurfCore.obj
 0002:00007850       $unwind$??1bad_array_new_length@std@@UEAA@XZ 0000000180057850     extractSurfCore.obj
 0002:00007858       $unwind$??0bad_array_new_length@std@@QEAA@AEBV01@@Z 0000000180057858     extractSurfCore.obj
 0002:00007860       $unwind$??_Gbad_array_new_length@std@@UEAAPEAXI@Z 0000000180057860     extractSurfCore.obj
 0002:00007868       $unwind$?_Throw_bad_array_new_length@std@@YAXXZ 0000000180057868     extractSurfCore.obj
 0002:00007870       $unwind$?_Allocate@_Default_allocate_traits@std@@SAPEAX_K@Z 0000000180057870     extractSurfCore.obj
 0002:00007878       $unwind$?_Adjust_manually_vector_aligned@std@@YAXAEAPEAXAEA_K@Z 0000000180057878     extractSurfCore.obj
 0002:00007880       $unwind$?copy@?$_Char_traits@DH@std@@SAPEADQEADQEBD_K@Z 0000000180057880     extractSurfCore.obj
 0002:00007890       $cppxdata$?copy@?$_Char_traits@DH@std@@SAPEADQEADQEBD_K@Z 0000000180057890     extractSurfCore.obj
 0002:00007895       $ip2state$?copy@?$_Char_traits@DH@std@@SAPEADQEADQEBD_K@Z 0000000180057895     extractSurfCore.obj
 0002:00007898       $unwind$?move@?$_Char_traits@DH@std@@SAPEADQEADQEBD_K@Z 0000000180057898     extractSurfCore.obj
 0002:000078a8       $cppxdata$?move@?$_Char_traits@DH@std@@SAPEADQEADQEBD_K@Z 00000001800578a8     extractSurfCore.obj
 0002:000078ad       $ip2state$?move@?$_Char_traits@DH@std@@SAPEADQEADQEBD_K@Z 00000001800578ad     extractSurfCore.obj
 0002:000078b0       $unwind$?length@?$_Narrow_char_traits@DH@std@@SA_KQEBD@Z 00000001800578b0     extractSurfCore.obj
 0002:000078c0       $cppxdata$?length@?$_Narrow_char_traits@DH@std@@SA_KQEBD@Z 00000001800578c0     extractSurfCore.obj
 0002:000078c5       $ip2state$?length@?$_Narrow_char_traits@DH@std@@SA_KQEBD@Z 00000001800578c5     extractSurfCore.obj
 0002:000078c8       $unwind$?eq_int_type@?$_Narrow_char_traits@DH@std@@SA_NAEBH0@Z 00000001800578c8     extractSurfCore.obj
 0002:000078d0       $unwind$?_Xlen_string@std@@YAXXZ 00000001800578d0     extractSurfCore.obj
 0002:000078d8       $unwind$?deallocate@?$allocator@D@std@@QEAAXQEAD_K@Z 00000001800578d8     extractSurfCore.obj
 0002:000078e0       $unwind$?allocate@?$allocator@D@std@@QEAAPEAD_K@Z 00000001800578e0     extractSurfCore.obj
 0002:000078e8       $unwind$??0?$_String_val@U?$_Simple_types@D@std@@@std@@QEAA@XZ 00000001800578e8     extractSurfCore.obj
 0002:000078f0       $unwind$?_Myptr@?$_String_val@U?$_Simple_types@D@std@@@std@@QEAAPEADXZ 00000001800578f0     extractSurfCore.obj
 0002:000078f8       $unwind$?_Myptr@?$_String_val@U?$_Simple_types@D@std@@@std@@QEBAPEBDXZ 00000001800578f8     extractSurfCore.obj
 0002:00007900       $unwind$?_Large_string_engaged@?$_String_val@U?$_Simple_types@D@std@@@std@@QEBA_NXZ 0000000180057900     extractSurfCore.obj
 0002:00007908       $unwind$??1?$_String_val@U?$_Simple_types@D@std@@@std@@QEAA@XZ 0000000180057908     extractSurfCore.obj
 0002:00007910       $unwind$??0?$basic_string@DU?$char_traits@D@std@@V?$allocator@D@2@@std@@QEAA@AEBV01@@Z 0000000180057910     extractSurfCore.obj
 0002:00007920       $cppxdata$??0?$basic_string@DU?$char_traits@D@std@@V?$allocator@D@2@@std@@QEAA@AEBV01@@Z 0000000180057920     extractSurfCore.obj
 0002:00007929       $stateUnwindMap$??0?$basic_string@DU?$char_traits@D@std@@V?$allocator@D@2@@std@@QEAA@AEBV01@@Z 0000000180057929     extractSurfCore.obj
 0002:0000792f       $ip2state$??0?$basic_string@DU?$char_traits@D@std@@V?$allocator@D@2@@std@@QEAA@AEBV01@@Z 000000018005792f     extractSurfCore.obj
 0002:00007938       $unwind$?dtor$0@?0???0?$basic_string@DU?$char_traits@D@std@@V?$allocator@D@2@@std@@QEAA@AEBV01@@Z@4HA 0000000180057938     extractSurfCore.obj
 0002:00007940       $unwind$??0?$basic_string@DU?$char_traits@D@std@@V?$allocator@D@2@@std@@QEAA@QEBD@Z 0000000180057940     extractSurfCore.obj
 0002:00007950       $cppxdata$??0?$basic_string@DU?$char_traits@D@std@@V?$allocator@D@2@@std@@QEAA@QEBD@Z 0000000180057950     extractSurfCore.obj
 0002:00007959       $stateUnwindMap$??0?$basic_string@DU?$char_traits@D@std@@V?$allocator@D@2@@std@@QEAA@QEBD@Z 0000000180057959     extractSurfCore.obj
 0002:0000795f       $ip2state$??0?$basic_string@DU?$char_traits@D@std@@V?$allocator@D@2@@std@@QEAA@QEBD@Z 000000018005795f     extractSurfCore.obj
 0002:00007968       $unwind$?dtor$0@?0???0?$basic_string@DU?$char_traits@D@std@@V?$allocator@D@2@@std@@QEAA@QEBD@Z@4HA 0000000180057968     extractSurfCore.obj
 0002:00007970       $unwind$?_Construct_lv_contents@?$basic_string@DU?$char_traits@D@std@@V?$allocator@D@2@@std@@AEAAXAEBV12@@Z 0000000180057970     extractSurfCore.obj
 0002:00007978       $unwind$??1?$basic_string@DU?$char_traits@D@std@@V?$allocator@D@2@@std@@QEAA@XZ 0000000180057978     extractSurfCore.obj
 0002:00007980       $unwind$?_Copy_assign@?$basic_string@DU?$char_traits@D@std@@V?$allocator@D@2@@std@@AEAAXAEBV12@U?$integral_constant@_N$0A@@2@@Z 0000000180057980     extractSurfCore.obj
 0002:00007988       $unwind$??4?$basic_string@DU?$char_traits@D@std@@V?$allocator@D@2@@std@@QEAAAEAV01@AEBV01@@Z 0000000180057988     extractSurfCore.obj
 0002:00007990       $unwind$?assign@?$basic_string@DU?$char_traits@D@std@@V?$allocator@D@2@@std@@QEAAAEAV12@QEBD_K@Z 0000000180057990     extractSurfCore.obj
 0002:00007998       $unwind$?assign@?$basic_string@DU?$char_traits@D@std@@V?$allocator@D@2@@std@@QEAAAEAV12@QEBD@Z 0000000180057998     extractSurfCore.obj
 0002:000079a0       $unwind$?c_str@?$basic_string@DU?$char_traits@D@std@@V?$allocator@D@2@@std@@QEBAPEBDXZ 00000001800579a0     extractSurfCore.obj
 0002:000079a8       $unwind$?max_size@?$basic_string@DU?$char_traits@D@std@@V?$allocator@D@2@@std@@QEBA_KXZ 00000001800579a8     extractSurfCore.obj
 0002:000079b0       $unwind$?_Calculate_growth@?$basic_string@DU?$char_traits@D@std@@V?$allocator@D@2@@std@@CA_K_K00@Z 00000001800579b0     extractSurfCore.obj
 0002:000079b8       $unwind$?_Calculate_growth@?$basic_string@DU?$char_traits@D@std@@V?$allocator@D@2@@std@@AEBA_K_K@Z 00000001800579b8     extractSurfCore.obj
 0002:000079c0       $unwind$?_Tidy_init@?$basic_string@DU?$char_traits@D@std@@V?$allocator@D@2@@std@@AEAAXXZ 00000001800579c0     extractSurfCore.obj
 0002:000079c8       $unwind$?_Tidy_deallocate@?$basic_string@DU?$char_traits@D@std@@V?$allocator@D@2@@std@@AEAAXXZ 00000001800579c8     extractSurfCore.obj
 0002:000079d8       $cppxdata$?_Tidy_deallocate@?$basic_string@DU?$char_traits@D@std@@V?$allocator@D@2@@std@@AEAAXXZ 00000001800579d8     extractSurfCore.obj
 0002:000079dd       $ip2state$?_Tidy_deallocate@?$basic_string@DU?$char_traits@D@std@@V?$allocator@D@2@@std@@AEAAXXZ 00000001800579dd     extractSurfCore.obj
 0002:000079e0       $unwind$?_Getal@?$basic_string@DU?$char_traits@D@std@@V?$allocator@D@2@@std@@AEAAAEAV?$allocator@D@2@XZ 00000001800579e0     extractSurfCore.obj
 0002:000079e8       $unwind$?_Getal@?$basic_string@DU?$char_traits@D@std@@V?$allocator@D@2@@std@@AEBAAEBV?$allocator@D@2@XZ 00000001800579e8     extractSurfCore.obj
 0002:000079f0       $unwind$??1?$_Compressed_pair@V?$allocator@D@std@@V?$_String_val@U?$_Simple_types@D@std@@@2@$00@std@@QEAA@XZ 00000001800579f0     extractSurfCore.obj
 0002:000079f8       $unwind$??_G?$basic_string@DU?$char_traits@D@std@@V?$allocator@D@2@@std@@QEAAPEAXI@Z 00000001800579f8     extractSurfCore.obj
 0002:00007a00       $unwind$?_Decref@_Ref_count_base@std@@QEAAXXZ 0000000180057a00     extractSurfCore.obj
 0002:00007a08       $unwind$?_Decwref@_Ref_count_base@std@@QEAAXXZ 0000000180057a08     extractSurfCore.obj
 0002:00007a10       $unwind$?cvRound@@YAHM@Z   0000000180057a10     extractSurfCore.obj
 0002:00007a18       $unwind$extractSurf_assignOutput 0000000180057a18     extractSurfCore.obj
 0002:00007a2c       $cppxdata$extractSurf_assignOutput 0000000180057a2c     extractSurfCore.obj
 0002:00007a35       $stateUnwindMap$extractSurf_assignOutput 0000000180057a35     extractSurfCore.obj
 0002:00007a40       $ip2state$extractSurf_assignOutput 0000000180057a40     extractSurfCore.obj
 0002:00007a4c       $unwind$extractSurf_assignOutput$dtor$0 0000000180057a4c     extractSurfCore.obj
 0002:00007a54       $unwind$extractSurf_assignOutput$dtor$1 0000000180057a54     extractSurfCore.obj
 0002:00007a5c       $unwind$extractSurf_assignOutputRM 0000000180057a5c     extractSurfCore.obj
 0002:00007a70       $cppxdata$extractSurf_assignOutputRM 0000000180057a70     extractSurfCore.obj
 0002:00007a79       $stateUnwindMap$extractSurf_assignOutputRM 0000000180057a79     extractSurfCore.obj
 0002:00007a84       $ip2state$extractSurf_assignOutputRM 0000000180057a84     extractSurfCore.obj
 0002:00007a90       $unwind$extractSurf_assignOutputRM$dtor$0 0000000180057a90     extractSurfCore.obj
 0002:00007a98       $unwind$extractSurf_assignOutputRM$dtor$1 0000000180057a98     extractSurfCore.obj
 0002:00007aa0       $unwind$extractSurf_compute 0000000180057aa0     extractSurfCore.obj
 0002:00007ab4       $cppxdata$extractSurf_compute 0000000180057ab4     extractSurfCore.obj
 0002:00007abd       $stateUnwindMap$extractSurf_compute 0000000180057abd     extractSurfCore.obj
 0002:00007ad2       $ip2state$extractSurf_compute 0000000180057ad2     extractSurfCore.obj
 0002:00007ae6       $cppxdata$extractSurf_computeRM 0000000180057ae6     extractSurfCore.obj
 0002:00007aef       $stateUnwindMap$extractSurf_computeRM 0000000180057aef     extractSurfCore.obj
 0002:00007b04       $unwind$extractSurf_compute$dtor$0 0000000180057b04     extractSurfCore.obj
 0002:00007b0c       $unwind$extractSurf_compute$dtor$1 0000000180057b0c     extractSurfCore.obj
 0002:00007b14       $unwind$extractSurf_compute$dtor$2 0000000180057b14     extractSurfCore.obj
 0002:00007b1c       $unwind$extractSurf_compute$dtor$3 0000000180057b1c     extractSurfCore.obj
 0002:00007b24       $unwind$extractSurf_computeRM 0000000180057b24     extractSurfCore.obj
 0002:00007b38       $ip2state$extractSurf_computeRM 0000000180057b38     extractSurfCore.obj
 0002:00007b4c       $unwind$extractSurf_computeRM$dtor$0 0000000180057b4c     extractSurfCore.obj
 0002:00007b54       $unwind$extractSurf_computeRM$dtor$1 0000000180057b54     extractSurfCore.obj
 0002:00007b5c       $unwind$extractSurf_computeRM$dtor$2 0000000180057b5c     extractSurfCore.obj
 0002:00007b64       $unwind$extractSurf_computeRM$dtor$3 0000000180057b64     extractSurfCore.obj
 0002:00007b6c       $unwind$?keyPoints2Fields@@YAXAEAV?$vector@VKeyPoint@cv@@V?$allocator@VKeyPoint@cv@@@std@@@std@@_NPEAM22PEAC2@Z 0000000180057b6c     extractSurfCore.obj
 0002:00007b74       $unwind$?keyPoints2FieldsRM@@YAXAEAV?$vector@VKeyPoint@cv@@V?$allocator@VKeyPoint@cv@@@std@@@std@@_NPEAM22PEAC2@Z 0000000180057b74     extractSurfCore.obj
 0002:00007b7c       $unwind$?struct2KeyPoints@@YAXPEAM00PEACAEAV?$vector@VKeyPoint@cv@@V?$allocator@VKeyPoint@cv@@@std@@@std@@H@Z 0000000180057b7c     extractSurfCore.obj
 0002:00007b84       $unwind$?struct2KeyPointsRM@@YAXPEAM00PEACAEAV?$vector@VKeyPoint@cv@@V?$allocator@VKeyPoint@cv@@@std@@@std@@H@Z 0000000180057b84     extractSurfCore.obj
 0002:00007b8c       $unwind$??$makePtr@VMWSURF@cv@@$$V@cv@@YA?AU?$Ptr@VMWSURF@cv@@@0@XZ 0000000180057b8c     extractSurfCore.obj
 0002:00007b94       $unwind$??$min@_K@std@@YAAEB_KAEB_K0@Z 0000000180057b94     extractSurfCore.obj
 0002:00007b9c       $unwind$??0?$Point_@M@cv@@QEAA@$$QEAV01@@Z 0000000180057b9c     extractSurfCore.obj
 0002:00007ba4       $unwind$??0KeyPoint@cv@@QEAA@MMMMMHH@Z 0000000180057ba4     extractSurfCore.obj
 0002:00007bac       $unwind$??0KeyPoint@cv@@QEAA@AEBV01@@Z 0000000180057bac     extractSurfCore.obj
 0002:00007bb4       $unwind$??0KeyPoint@cv@@QEAA@$$QEAV01@@Z 0000000180057bb4     extractSurfCore.obj
 0002:00007bbc       $unwind$??RMatSize@cv@@QEBA?AV?$Size_@H@1@XZ 0000000180057bbc     extractSurfCore.obj
 0002:00007bc4       $unwind$??0Mat@cv@@QEAA@XZ 0000000180057bc4     extractSurfCore.obj
 0002:00007bcc       $unwind$??0Mat@cv@@QEAA@AEBV01@@Z 0000000180057bcc     extractSurfCore.obj
 0002:00007bd4       $unwind$??0Mat@cv@@QEAA@HHHPEAX_K@Z 0000000180057bd4     extractSurfCore.obj
 0002:00007be8       $cppxdata$??0Mat@cv@@QEAA@HHHPEAX_K@Z 0000000180057be8     extractSurfCore.obj
 0002:00007bf1       $stateUnwindMap$??0Mat@cv@@QEAA@HHHPEAX_K@Z 0000000180057bf1     extractSurfCore.obj
 0002:00007bfc       $ip2state$??0Mat@cv@@QEAA@HHHPEAX_K@Z 0000000180057bfc     extractSurfCore.obj
 0002:00007c0c       $unwind$?dtor$0@?0???0Mat@cv@@QEAA@HHHPEAX_K@Z@4HA 0000000180057c0c     extractSurfCore.obj
 0002:00007c14       $unwind$?dtor$1@?0???0Mat@cv@@QEAA@HHHPEAX_K@Z@4HA 0000000180057c14     extractSurfCore.obj
 0002:00007c1c       $unwind$??1Mat@cv@@QEAA@XZ 0000000180057c1c     extractSurfCore.obj
 0002:00007c2c       $cppxdata$??1Mat@cv@@QEAA@XZ 0000000180057c2c     extractSurfCore.obj
 0002:00007c31       $ip2state$??1Mat@cv@@QEAA@XZ 0000000180057c31     extractSurfCore.obj
 0002:00007c34       $unwind$?release@Mat@cv@@QEAAXXZ 0000000180057c34     extractSurfCore.obj
 0002:00007c3c       $unwind$?total@Mat@cv@@QEBA_KXZ 0000000180057c3c     extractSurfCore.obj
 0002:00007c44       $unwind$??_GMat@cv@@QEAAPEAXI@Z 0000000180057c44     extractSurfCore.obj
 0002:00007c4c       $unwind$?deallocate@?$allocator@VKeyPoint@cv@@@std@@QEAAXQEAVKeyPoint@cv@@_K@Z 0000000180057c4c     extractSurfCore.obj
 0002:00007c54       $unwind$?allocate@?$allocator@VKeyPoint@cv@@@std@@QEAAPEAVKeyPoint@cv@@_K@Z 0000000180057c54     extractSurfCore.obj
 0002:00007c5c       $unwind$??0?$vector@VKeyPoint@cv@@V?$allocator@VKeyPoint@cv@@@std@@@std@@QEAA@XZ 0000000180057c5c     extractSurfCore.obj
 0002:00007c64       $unwind$??0?$vector@VKeyPoint@cv@@V?$allocator@VKeyPoint@cv@@@std@@@std@@QEAA@AEBV01@@Z 0000000180057c64     extractSurfCore.obj
 0002:00007c74       $cppxdata$??0?$vector@VKeyPoint@cv@@V?$allocator@VKeyPoint@cv@@@std@@@std@@QEAA@AEBV01@@Z 0000000180057c74     extractSurfCore.obj
 0002:00007c7d       $stateUnwindMap$??0?$vector@VKeyPoint@cv@@V?$allocator@VKeyPoint@cv@@@std@@@std@@QEAA@AEBV01@@Z 0000000180057c7d     extractSurfCore.obj
 0002:00007c83       $ip2state$??0?$vector@VKeyPoint@cv@@V?$allocator@VKeyPoint@cv@@@std@@@std@@QEAA@AEBV01@@Z 0000000180057c83     extractSurfCore.obj
 0002:00007c8c       $unwind$?dtor$0@?0???0?$vector@VKeyPoint@cv@@V?$allocator@VKeyPoint@cv@@@std@@@std@@QEAA@AEBV01@@Z@4HA 0000000180057c8c     extractSurfCore.obj
 0002:00007c94       $unwind$??1?$vector@VKeyPoint@cv@@V?$allocator@VKeyPoint@cv@@@std@@@std@@QEAA@XZ 0000000180057c94     extractSurfCore.obj
 0002:00007c9c       $unwind$?push_back@?$vector@VKeyPoint@cv@@V?$allocator@VKeyPoint@cv@@@std@@@std@@QEAAXAEBVKeyPoint@cv@@@Z 0000000180057c9c     extractSurfCore.obj
 0002:00007ca4       $unwind$?size@?$vector@VKeyPoint@cv@@V?$allocator@VKeyPoint@cv@@@std@@@std@@QEBA_KXZ 0000000180057ca4     extractSurfCore.obj
 0002:00007cac       $unwind$?max_size@?$vector@VKeyPoint@cv@@V?$allocator@VKeyPoint@cv@@@std@@@std@@QEBA_KXZ 0000000180057cac     extractSurfCore.obj
 0002:00007cb4       $unwind$?capacity@?$vector@VKeyPoint@cv@@V?$allocator@VKeyPoint@cv@@@std@@@std@@QEBA_KXZ 0000000180057cb4     extractSurfCore.obj
 0002:00007cbc       $unwind$??A?$vector@VKeyPoint@cv@@V?$allocator@VKeyPoint@cv@@@std@@@std@@QEAAAEAVKeyPoint@cv@@_K@Z 0000000180057cbc     extractSurfCore.obj
 0002:00007cc4       $unwind$?_Umove@?$vector@VKeyPoint@cv@@V?$allocator@VKeyPoint@cv@@@std@@@std@@AEAAPEAVKeyPoint@cv@@PEAV34@00@Z 0000000180057cc4     extractSurfCore.obj
 0002:00007ccc       $unwind$?_Umove_if_noexcept1@?$vector@VKeyPoint@cv@@V?$allocator@VKeyPoint@cv@@@std@@@std@@AEAAXPEAVKeyPoint@cv@@00U?$integral_constant@_N$00@2@@Z 0000000180057ccc     extractSurfCore.obj
 0002:00007cd4       $unwind$?_Umove_if_noexcept@?$vector@VKeyPoint@cv@@V?$allocator@VKeyPoint@cv@@@std@@@std@@AEAAXPEAVKeyPoint@cv@@00@Z 0000000180057cd4     extractSurfCore.obj
 0002:00007cdc       $unwind$?_Destroy@?$vector@VKeyPoint@cv@@V?$allocator@VKeyPoint@cv@@@std@@@std@@AEAAXPEAVKeyPoint@cv@@0@Z 0000000180057cdc     extractSurfCore.obj
 0002:00007ce4       $unwind$?_Calculate_growth@?$vector@VKeyPoint@cv@@V?$allocator@VKeyPoint@cv@@@std@@@std@@AEBA_K_K@Z 0000000180057ce4     extractSurfCore.obj
 0002:00007cec       $unwind$?_Buy_raw@?$vector@VKeyPoint@cv@@V?$allocator@VKeyPoint@cv@@@std@@@std@@AEAAX_K@Z 0000000180057cec     extractSurfCore.obj
 0002:00007cf4       $unwind$?_Change_array@?$vector@VKeyPoint@cv@@V?$allocator@VKeyPoint@cv@@@std@@@std@@AEAAXQEAVKeyPoint@cv@@_K1@Z 0000000180057cf4     extractSurfCore.obj
 0002:00007cfc       $unwind$?_Tidy@?$vector@VKeyPoint@cv@@V?$allocator@VKeyPoint@cv@@@std@@@std@@AEAAXXZ 0000000180057cfc     extractSurfCore.obj
 0002:00007d0c       $cppxdata$?_Tidy@?$vector@VKeyPoint@cv@@V?$allocator@VKeyPoint@cv@@@std@@@std@@AEAAXXZ 0000000180057d0c     extractSurfCore.obj
 0002:00007d11       $ip2state$?_Tidy@?$vector@VKeyPoint@cv@@V?$allocator@VKeyPoint@cv@@@std@@@std@@AEAAXXZ 0000000180057d11     extractSurfCore.obj
 0002:00007d14       $unwind$?_Xlength@?$vector@VKeyPoint@cv@@V?$allocator@VKeyPoint@cv@@@std@@@std@@CAXXZ 0000000180057d14     extractSurfCore.obj
 0002:00007d1c       $unwind$?_Getal@?$vector@VKeyPoint@cv@@V?$allocator@VKeyPoint@cv@@@std@@@std@@AEAAAEAV?$allocator@VKeyPoint@cv@@@2@XZ 0000000180057d1c     extractSurfCore.obj
 0002:00007d24       $unwind$?_Getal@?$vector@VKeyPoint@cv@@V?$allocator@VKeyPoint@cv@@@std@@@std@@AEBAAEBV?$allocator@VKeyPoint@cv@@@2@XZ 0000000180057d24     extractSurfCore.obj
 0002:00007d2c       $unwind$??_G?$vector@VKeyPoint@cv@@V?$allocator@VKeyPoint@cv@@@std@@@std@@QEAAPEAXI@Z 0000000180057d2c     extractSurfCore.obj
 0002:00007d34       $unwind$??$_Maklocstr@_W@std@@YAPEA_WPEBDPEA_WAEBU_Cvtvec@@@Z 0000000180057d34     extractSurfCore.obj
 0002:00007d3c       $unwind$?_Maklocwcs@std@@YAPEA_WPEB_W@Z 0000000180057d3c     extractSurfCore.obj
 0002:00007d44       $unwind$??$?6U?$char_traits@D@std@@@std@@YAAEAV?$basic_ostream@DU?$char_traits@D@std@@@0@AEAV10@PEBD@Z 0000000180057d44     extractSurfCore.obj
 0002:00007d54       $cppxdata$??$?6U?$char_traits@D@std@@@std@@YAAEAV?$basic_ostream@DU?$char_traits@D@std@@@0@AEAV10@PEBD@Z 0000000180057d54     extractSurfCore.obj
 0002:00007d61       $stateUnwindMap$??$?6U?$char_traits@D@std@@@std@@YAAEAV?$basic_ostream@DU?$char_traits@D@std@@@0@AEAV10@PEBD@Z 0000000180057d61     extractSurfCore.obj
 0002:00007d69       $tryMap$??$?6U?$char_traits@D@std@@@std@@YAAEAV?$basic_ostream@DU?$char_traits@D@std@@@0@AEAV10@PEBD@Z 0000000180057d69     extractSurfCore.obj
 0002:00007d71       $handlerMap$??$?6U?$char_traits@D@std@@@std@@YAAEAV?$basic_ostream@DU?$char_traits@D@std@@@0@AEAV10@PEBD@Z 0000000180057d71     extractSurfCore.obj
 0002:00007d78       $ip2state$??$?6U?$char_traits@D@std@@@std@@YAAEAV?$basic_ostream@DU?$char_traits@D@std@@@0@AEAV10@PEBD@Z 0000000180057d78     extractSurfCore.obj
 0002:00007d88       $unwind$?dtor$0@?0???$?6U?$char_traits@D@std@@@std@@YAAEAV?$basic_ostream@DU?$char_traits@D@std@@@0@AEAV10@PEBD@Z@4HA 0000000180057d88     extractSurfCore.obj
 0002:00007d90       $unwind$?catch$1@?0???$?6U?$char_traits@D@std@@@std@@YAAEAV?$basic_ostream@DU?$char_traits@D@std@@@0@AEAV10@PEBD@Z@4HA 0000000180057d90     extractSurfCore.obj
 0002:00007d98       $unwind$??6anyimpl@cvflann@@YAAEAV?$basic_ostream@DU?$char_traits@D@std@@@std@@AEAV23@AEBUempty_any@01@@Z 0000000180057d98     extractSurfCore.obj
 0002:00007da0       $unwind$??_Gbase_any_policy@anyimpl@cvflann@@UEAAPEAXI@Z 0000000180057da0     extractSurfCore.obj
 0002:00007da8       $unwind$??1?$typed_base_any_policy@W4flann_centers_init_t@cvflann@@@anyimpl@cvflann@@UEAA@XZ 0000000180057da8     extractSurfCore.obj
 0002:00007db0       $unwind$?static_delete@?$big_any_policy@W4flann_centers_init_t@cvflann@@@anyimpl@cvflann@@UEAAXPEAPEAX@Z 0000000180057db0     extractSurfCore.obj
 0002:00007db8       $unwind$?copy_from_value@?$big_any_policy@W4flann_centers_init_t@cvflann@@@anyimpl@cvflann@@UEAAXPEBXPEAPEAX@Z 0000000180057db8     extractSurfCore.obj
 0002:00007dc0       $unwind$?clone@?$big_any_policy@W4flann_centers_init_t@cvflann@@@anyimpl@cvflann@@UEAAXPEBQEAXPEAPEAX@Z 0000000180057dc0     extractSurfCore.obj
 0002:00007dc8       $unwind$?print@?$big_any_policy@W4flann_centers_init_t@cvflann@@@anyimpl@cvflann@@UEAAXAEAV?$basic_ostream@DU?$char_traits@D@std@@@std@@PEBQEAX@Z 0000000180057dc8     extractSurfCore.obj
 0002:00007dd0       $unwind$??1?$big_any_policy@W4flann_centers_init_t@cvflann@@@anyimpl@cvflann@@UEAA@XZ 0000000180057dd0     extractSurfCore.obj
 0002:00007dd8       $unwind$??_G?$big_any_policy@W4flann_centers_init_t@cvflann@@@anyimpl@cvflann@@UEAAPEAXI@Z 0000000180057dd8     extractSurfCore.obj
 0002:00007de0       $unwind$??1?$typed_base_any_policy@W4flann_algorithm_t@cvflann@@@anyimpl@cvflann@@UEAA@XZ 0000000180057de0     extractSurfCore.obj
 0002:00007de8       $unwind$?static_delete@?$big_any_policy@W4flann_algorithm_t@cvflann@@@anyimpl@cvflann@@UEAAXPEAPEAX@Z 0000000180057de8     extractSurfCore.obj
 0002:00007df0       $unwind$?copy_from_value@?$big_any_policy@W4flann_algorithm_t@cvflann@@@anyimpl@cvflann@@UEAAXPEBXPEAPEAX@Z 0000000180057df0     extractSurfCore.obj
 0002:00007df8       $unwind$?clone@?$big_any_policy@W4flann_algorithm_t@cvflann@@@anyimpl@cvflann@@UEAAXPEBQEAXPEAPEAX@Z 0000000180057df8     extractSurfCore.obj
 0002:00007e00       $unwind$?print@?$big_any_policy@W4flann_algorithm_t@cvflann@@@anyimpl@cvflann@@UEAAXAEAV?$basic_ostream@DU?$char_traits@D@std@@@std@@PEBQEAX@Z 0000000180057e00     extractSurfCore.obj
 0002:00007e08       $unwind$??1?$big_any_policy@W4flann_algorithm_t@cvflann@@@anyimpl@cvflann@@UEAA@XZ 0000000180057e08     extractSurfCore.obj
 0002:00007e10       $unwind$??_G?$big_any_policy@W4flann_algorithm_t@cvflann@@@anyimpl@cvflann@@UEAAPEAXI@Z 0000000180057e10     extractSurfCore.obj
 0002:00007e18       $unwind$??1?$typed_base_any_policy@V?$basic_string@DU?$char_traits@D@std@@V?$allocator@D@2@@std@@@anyimpl@cvflann@@UEAA@XZ 0000000180057e18     extractSurfCore.obj
 0002:00007e20       $unwind$?static_delete@?$big_any_policy@V?$basic_string@DU?$char_traits@D@std@@V?$allocator@D@2@@std@@@anyimpl@cvflann@@UEAAXPEAPEAX@Z 0000000180057e20     extractSurfCore.obj
 0002:00007e28       $unwind$?copy_from_value@?$big_any_policy@V?$basic_string@DU?$char_traits@D@std@@V?$allocator@D@2@@std@@@anyimpl@cvflann@@UEAAXPEBXPEAPEAX@Z 0000000180057e28     extractSurfCore.obj
 0002:00007e38       $cppxdata$?copy_from_value@?$big_any_policy@V?$basic_string@DU?$char_traits@D@std@@V?$allocator@D@2@@std@@@anyimpl@cvflann@@UEAAXPEBXPEAPEAX@Z 0000000180057e38     extractSurfCore.obj
 0002:00007e41       $stateUnwindMap$?copy_from_value@?$big_any_policy@V?$basic_string@DU?$char_traits@D@std@@V?$allocator@D@2@@std@@@anyimpl@cvflann@@UEAAXPEBXPEAPEAX@Z 0000000180057e41     extractSurfCore.obj
 0002:00007e47       $ip2state$?copy_from_value@?$big_any_policy@V?$basic_string@DU?$char_traits@D@std@@V?$allocator@D@2@@std@@@anyimpl@cvflann@@UEAAXPEBXPEAPEAX@Z 0000000180057e47     extractSurfCore.obj
 0002:00007e50       $unwind$?dtor$0@?0??copy_from_value@?$big_any_policy@V?$basic_string@DU?$char_traits@D@std@@V?$allocator@D@2@@std@@@anyimpl@cvflann@@UEAAXPEBXPEAPEAX@Z@4HA 0000000180057e50     extractSurfCore.obj
 0002:00007e58       $unwind$?clone@?$big_any_policy@V?$basic_string@DU?$char_traits@D@std@@V?$allocator@D@2@@std@@@anyimpl@cvflann@@UEAAXPEBQEAXPEAPEAX@Z 0000000180057e58     extractSurfCore.obj
 0002:00007e68       $cppxdata$?clone@?$big_any_policy@V?$basic_string@DU?$char_traits@D@std@@V?$allocator@D@2@@std@@@anyimpl@cvflann@@UEAAXPEBQEAXPEAPEAX@Z 0000000180057e68     extractSurfCore.obj
 0002:00007e71       $stateUnwindMap$?clone@?$big_any_policy@V?$basic_string@DU?$char_traits@D@std@@V?$allocator@D@2@@std@@@anyimpl@cvflann@@UEAAXPEBQEAXPEAPEAX@Z 0000000180057e71     extractSurfCore.obj
 0002:00007e77       $ip2state$?clone@?$big_any_policy@V?$basic_string@DU?$char_traits@D@std@@V?$allocator@D@2@@std@@@anyimpl@cvflann@@UEAAXPEBQEAXPEAPEAX@Z 0000000180057e77     extractSurfCore.obj
 0002:00007e80       $unwind$?dtor$0@?0??clone@?$big_any_policy@V?$basic_string@DU?$char_traits@D@std@@V?$allocator@D@2@@std@@@anyimpl@cvflann@@UEAAXPEBQEAXPEAPEAX@Z@4HA 0000000180057e80     extractSurfCore.obj
 0002:00007e88       $unwind$?move@?$big_any_policy@V?$basic_string@DU?$char_traits@D@std@@V?$allocator@D@2@@std@@@anyimpl@cvflann@@UEAAXPEBQEAXPEAPEAX@Z 0000000180057e88     extractSurfCore.obj
 0002:00007e90       $unwind$?print@?$big_any_policy@V?$basic_string@DU?$char_traits@D@std@@V?$allocator@D@2@@std@@@anyimpl@cvflann@@UEAAXAEAV?$basic_ostream@DU?$char_traits@D@std@@@std@@PEBQEAX@Z 0000000180057e90     extractSurfCore.obj
 0002:00007e98       $unwind$??1?$big_any_policy@V?$basic_string@DU?$char_traits@D@std@@V?$allocator@D@2@@std@@@anyimpl@cvflann@@UEAA@XZ 0000000180057e98     extractSurfCore.obj
 0002:00007ea0       $unwind$??_G?$big_any_policy@V?$basic_string@DU?$char_traits@D@std@@V?$allocator@D@2@@std@@@anyimpl@cvflann@@UEAAPEAXI@Z 0000000180057ea0     extractSurfCore.obj
 0002:00007ea8       $unwind$??$_Getvals@_W@?$time_get@DV?$istreambuf_iterator@DU?$char_traits@D@std@@@std@@@std@@IEAAX_WAEBV_Locinfo@1@@Z 0000000180057ea8     extractSurfCore.obj
 0002:00007ebc       $unwind$??$_Getvals@_W@?$time_get@_WV?$istreambuf_iterator@_WU?$char_traits@_W@std@@@std@@@std@@IEAAX_WAEBV_Locinfo@1@@Z 0000000180057ebc     extractSurfCore.obj
 0002:00007ed0       $unwind$?_Decref@?$_Ptr_base@VMWSURF@cv@@@std@@IEAAXXZ 0000000180057ed0     extractSurfCore.obj
 0002:00007ed8       $unwind$??0?$shared_ptr@VMWSURF@cv@@@std@@QEAA@XZ 0000000180057ed8     extractSurfCore.obj
 0002:00007ee0       $unwind$??0?$shared_ptr@VMWSURF@cv@@@std@@QEAA@$$QEAV01@@Z 0000000180057ee0     extractSurfCore.obj
 0002:00007ee8       $unwind$??1?$shared_ptr@VMWSURF@cv@@@std@@QEAA@XZ 0000000180057ee8     extractSurfCore.obj
 0002:00007ef0       $unwind$??0?$Ptr@VMWSURF@cv@@@cv@@QEAA@$$QEAV?$shared_ptr@VMWSURF@cv@@@std@@@Z 0000000180057ef0     extractSurfCore.obj
 0002:00007ef8       $unwind$??C?$Ptr@VMWSURF@cv@@@cv@@QEBAPEAVMWSURF@1@XZ 0000000180057ef8     extractSurfCore.obj
 0002:00007f00       $unwind$?empty@?$Ptr@VMWSURF@cv@@@cv@@QEBA_NXZ 0000000180057f00     extractSurfCore.obj
 0002:00007f08       $unwind$??1?$Ptr@VMWSURF@cv@@@cv@@QEAA@XZ 0000000180057f08     extractSurfCore.obj
 0002:00007f10       $unwind$??$cArrayFromMat@M@@YAXPEAMAEBVMat@cv@@@Z 0000000180057f10     extractSurfCore.obj
 0002:00007f20       $unwind$??$cArrayFromMat_RowMaj@M@@YAXPEAMAEBVMat@cv@@@Z 0000000180057f20     extractSurfCore.obj
 0002:00007f30       $unwind$??0_Sentry_base@?$basic_ostream@DU?$char_traits@D@std@@@std@@QEAA@AEAV12@@Z 0000000180057f30     extractSurfCore.obj
 0002:00007f38       $unwind$??1_Sentry_base@?$basic_ostream@DU?$char_traits@D@std@@@std@@QEAA@XZ 0000000180057f38     extractSurfCore.obj
 0002:00007f48       $cppxdata$??1_Sentry_base@?$basic_ostream@DU?$char_traits@D@std@@@std@@QEAA@XZ 0000000180057f48     extractSurfCore.obj
 0002:00007f4d       $ip2state$??1_Sentry_base@?$basic_ostream@DU?$char_traits@D@std@@@std@@QEAA@XZ 0000000180057f4d     extractSurfCore.obj
 0002:00007f50       $unwind$??0sentry@?$basic_ostream@DU?$char_traits@D@std@@@std@@QEAA@AEAV12@@Z 0000000180057f50     extractSurfCore.obj
 0002:00007f60       $cppxdata$??0sentry@?$basic_ostream@DU?$char_traits@D@std@@@std@@QEAA@AEAV12@@Z 0000000180057f60     extractSurfCore.obj
 0002:00007f69       $stateUnwindMap$??0sentry@?$basic_ostream@DU?$char_traits@D@std@@@std@@QEAA@AEAV12@@Z 0000000180057f69     extractSurfCore.obj
 0002:00007f6f       $ip2state$??0sentry@?$basic_ostream@DU?$char_traits@D@std@@@std@@QEAA@AEAV12@@Z 0000000180057f6f     extractSurfCore.obj
 0002:00007f78       $unwind$?dtor$0@?0???0sentry@?$basic_ostream@DU?$char_traits@D@std@@@std@@QEAA@AEAV12@@Z@4HA 0000000180057f78     extractSurfCore.obj
 0002:00007f80       $unwind$??1sentry@?$basic_ostream@DU?$char_traits@D@std@@@std@@QEAA@XZ 0000000180057f80     extractSurfCore.obj
 0002:00007f90       $cppxdata$??1sentry@?$basic_ostream@DU?$char_traits@D@std@@@std@@QEAA@XZ 0000000180057f90     extractSurfCore.obj
 0002:00007f95       $ip2state$??1sentry@?$basic_ostream@DU?$char_traits@D@std@@@std@@QEAA@XZ 0000000180057f95     extractSurfCore.obj
 0002:00007f98       $unwind$??$emplace_back@AEBVKeyPoint@cv@@@?$vector@VKeyPoint@cv@@V?$allocator@VKeyPoint@cv@@@std@@@std@@QEAAXAEBVKeyPoint@cv@@@Z 0000000180057f98     extractSurfCore.obj
 0002:00007fa0       $unwind$??$_Emplace_back_with_unused_capacity@AEBVKeyPoint@cv@@@?$vector@VKeyPoint@cv@@V?$allocator@VKeyPoint@cv@@@std@@@std@@AEAAXAEBVKeyPoint@cv@@@Z 0000000180057fa0     extractSurfCore.obj
 0002:00007fa8       $unwind$??$construct@VKeyPoint@cv@@AEBV12@@?$_Default_allocator_traits@V?$allocator@VKeyPoint@cv@@@std@@@std@@SAXAEAV?$allocator@VKeyPoint@cv@@@1@QEAVKeyPoint@cv@@AEBV34@@Z 0000000180057fa8     extractSurfCore.obj
 0002:00007fb0       $unwind$??$_Emplace_reallocate@AEBVKeyPoint@cv@@@?$vector@VKeyPoint@cv@@V?$allocator@VKeyPoint@cv@@@std@@@std@@QEAAPEAVKeyPoint@cv@@QEAV23@AEBV23@@Z 0000000180057fb0     extractSurfCore.obj
 0002:00007fc0       $cppxdata$??$_Emplace_reallocate@AEBVKeyPoint@cv@@@?$vector@VKeyPoint@cv@@V?$allocator@VKeyPoint@cv@@@std@@@std@@QEAAPEAVKeyPoint@cv@@QEAV23@AEBV23@@Z 0000000180057fc0     extractSurfCore.obj
 0002:00007fcd       $stateUnwindMap$??$_Emplace_reallocate@AEBVKeyPoint@cv@@@?$vector@VKeyPoint@cv@@V?$allocator@VKeyPoint@cv@@@std@@@std@@QEAAPEAVKeyPoint@cv@@QEAV23@AEBV23@@Z 0000000180057fcd     extractSurfCore.obj
 0002:00007fd0       $tryMap$??$_Emplace_reallocate@AEBVKeyPoint@cv@@@?$vector@VKeyPoint@cv@@V?$allocator@VKeyPoint@cv@@@std@@@std@@QEAAPEAVKeyPoint@cv@@QEAV23@AEBV23@@Z 0000000180057fd0     extractSurfCore.obj
 0002:00007fd8       $handlerMap$??$_Emplace_reallocate@AEBVKeyPoint@cv@@@?$vector@VKeyPoint@cv@@V?$allocator@VKeyPoint@cv@@@std@@@std@@QEAAPEAVKeyPoint@cv@@QEAV23@AEBV23@@Z 0000000180057fd8     extractSurfCore.obj
 0002:00007fdf       $ip2state$??$_Emplace_reallocate@AEBVKeyPoint@cv@@@?$vector@VKeyPoint@cv@@V?$allocator@VKeyPoint@cv@@@std@@@std@@QEAAPEAVKeyPoint@cv@@QEAV23@AEBV23@@Z 0000000180057fdf     extractSurfCore.obj
 0002:00007fe8       $unwind$?catch$0@?0???$_Emplace_reallocate@AEBVKeyPoint@cv@@@?$vector@VKeyPoint@cv@@V?$allocator@VKeyPoint@cv@@@std@@@std@@QEAAPEAVKeyPoint@cv@@QEAV23@AEBV23@@Z@4HA 0000000180057fe8     extractSurfCore.obj
 0002:00007ff0       $unwind$??$?0V?$allocator@VKeyPoint@cv@@@std@@$$V@?$_Compressed_pair@V?$allocator@VKeyPoint@cv@@@std@@V?$_Vector_val@U?$_Simple_types@VKeyPoint@cv@@@std@@@2@$00@std@@QEAA@U_One_then_variadic_args_t@1@$$QEAV?$allocator@VKeyPoint@cv@@@1@@Z 0000000180057ff0     extractSurfCore.obj
 0002:00007ff8       $unwind$??1?$_Tidy_guard@V?$vector@VKeyPoint@cv@@V?$allocator@VKeyPoint@cv@@@std@@@std@@@std@@QEAA@XZ 0000000180057ff8     extractSurfCore.obj
 0002:00008000       $unwind$??$_Ucopy@PEAVKeyPoint@cv@@@?$vector@VKeyPoint@cv@@V?$allocator@VKeyPoint@cv@@@std@@@std@@AEAAPEAVKeyPoint@cv@@PEAV23@00@Z 0000000180058000     extractSurfCore.obj
 0002:00008008       $unwind$??$?0$$V@?$_Compressed_pair@V?$allocator@VKeyPoint@cv@@@std@@V?$_Vector_val@U?$_Simple_types@VKeyPoint@cv@@@std@@@2@$00@std@@QEAA@U_Zero_then_variadic_args_t@1@@Z 0000000180058008     extractSurfCore.obj
 0002:00008010       $unwind$??$?0V?$allocator@D@std@@$$V@?$_Compressed_pair@V?$allocator@D@std@@V?$_String_val@U?$_Simple_types@D@std@@@2@$00@std@@QEAA@U_One_then_variadic_args_t@1@$$QEAV?$allocator@D@1@@Z 0000000180058010     extractSurfCore.obj
 0002:00008018       $unwind$??$?0$$V@?$_Compressed_pair@V?$allocator@D@std@@V?$_String_val@U?$_Simple_types@D@std@@@2@$00@std@@QEAA@U_Zero_then_variadic_args_t@1@@Z 0000000180058018     extractSurfCore.obj
 0002:00008020       $unwind$??R<lambda_66f57f934f28d61049862f64df852ff0>@@QEBAXQEAD_KQEBD@Z 0000000180058020     extractSurfCore.obj
 0002:00008028       $unwind$??$_Reallocate_for@V<lambda_66f57f934f28d61049862f64df852ff0>@@PEBD@?$basic_string@DU?$char_traits@D@std@@V?$allocator@D@2@@std@@AEAAAEAV01@_KV<lambda_66f57f934f28d61049862f64df852ff0>@@PEBD@Z 0000000180058028     extractSurfCore.obj
 0002:00008030       $unwind$??$_Construct_in_place@PEADAEBQEAD@std@@YAXAEAPEADAEBQEAD@Z 0000000180058030     extractSurfCore.obj
 0002:00008038       $unwind$??$max@_K@std@@YAAEB_KAEB_K0@Z 0000000180058038     extractSurfCore.obj
 0002:00008040       $unwind$??$_Allocate@$0BA@U_Default_allocate_traits@std@@$0A@@std@@YAPEAX_K@Z 0000000180058040     extractSurfCore.obj
 0002:00008048       $unwind$??$_Deallocate@$0BA@$0A@@std@@YAXPEAX_K@Z 0000000180058048     extractSurfCore.obj
 0002:00008058       $cppxdata$??$_Deallocate@$0BA@$0A@@std@@YAXPEAX_K@Z 0000000180058058     extractSurfCore.obj
 0002:0000805d       $ip2state$??$_Deallocate@$0BA@$0A@@std@@YAXPEAX_K@Z 000000018005805d     extractSurfCore.obj
 0002:00008060       $unwind$??$_Get_size_of_n@$0BM@@std@@YA_K_K@Z 0000000180058060     extractSurfCore.obj
 0002:00008068       $unwind$??$_Get_size_of_n@$00@std@@YA_K_K@Z 0000000180058068     extractSurfCore.obj
 0002:00008070       $unwind$??1?$typed_base_any_policy@Uempty_any@anyimpl@cvflann@@@anyimpl@cvflann@@UEAA@XZ 0000000180058070     extractSurfCore.obj
 0002:00008078       $unwind$?static_delete@?$big_any_policy@Uempty_any@anyimpl@cvflann@@@anyimpl@cvflann@@UEAAXPEAPEAX@Z 0000000180058078     extractSurfCore.obj
 0002:00008080       $unwind$?copy_from_value@?$big_any_policy@Uempty_any@anyimpl@cvflann@@@anyimpl@cvflann@@UEAAXPEBXPEAPEAX@Z 0000000180058080     extractSurfCore.obj
 0002:00008088       $unwind$?clone@?$big_any_policy@Uempty_any@anyimpl@cvflann@@@anyimpl@cvflann@@UEAAXPEBQEAXPEAPEAX@Z 0000000180058088     extractSurfCore.obj
 0002:00008090       $unwind$?print@?$big_any_policy@Uempty_any@anyimpl@cvflann@@@anyimpl@cvflann@@UEAAXAEAV?$basic_ostream@DU?$char_traits@D@std@@@std@@PEBQEAX@Z 0000000180058090     extractSurfCore.obj
 0002:00008098       $unwind$??1?$big_any_policy@Uempty_any@anyimpl@cvflann@@@anyimpl@cvflann@@UEAA@XZ 0000000180058098     extractSurfCore.obj
 0002:000080a0       $unwind$??_G?$big_any_policy@Uempty_any@anyimpl@cvflann@@@anyimpl@cvflann@@UEAAPEAXI@Z 00000001800580a0     extractSurfCore.obj
 0002:000080a8       $unwind$??$_Maklocstr@D@std@@YAPEADPEBDPEADAEBU_Cvtvec@@@Z 00000001800580a8     extractSurfCore.obj
 0002:000080b0       $unwind$??$make_shared@VMWSURF@cv@@$$V@std@@YA?AV?$shared_ptr@VMWSURF@cv@@@0@XZ 00000001800580b0     extractSurfCore.obj
 0002:000080c0       $cppxdata$??$make_shared@VMWSURF@cv@@$$V@std@@YA?AV?$shared_ptr@VMWSURF@cv@@@0@XZ 00000001800580c0     extractSurfCore.obj
 0002:000080c9       $stateUnwindMap$??$make_shared@VMWSURF@cv@@$$V@std@@YA?AV?$shared_ptr@VMWSURF@cv@@@0@XZ 00000001800580c9     extractSurfCore.obj
 0002:000080cf       $ip2state$??$make_shared@VMWSURF@cv@@$$V@std@@YA?AV?$shared_ptr@VMWSURF@cv@@@0@XZ 00000001800580cf     extractSurfCore.obj
 0002:000080d8       $unwind$?dtor$0@?0???$make_shared@VMWSURF@cv@@$$V@std@@YA?AV?$shared_ptr@VMWSURF@cv@@@0@XZ@4HA 00000001800580d8     extractSurfCore.obj
 0002:000080e0       $unwind$??$copyToArray_RowMaj@M@@YAXPEAM0HH@Z 00000001800580e0     extractSurfCore.obj
 0002:000080e8       $unwind$??$copyToArrayBGR_RowMaj@M@@YAXPEAM0HHH@Z 00000001800580e8     extractSurfCore.obj
 0002:000080f0       $unwind$??$_Uninitialized_copy@PEAVKeyPoint@cv@@V?$allocator@VKeyPoint@cv@@@std@@@std@@YAPEAVKeyPoint@cv@@QEAV12@0PEAV12@AEAV?$allocator@VKeyPoint@cv@@@0@@Z 00000001800580f0     extractSurfCore.obj
 0002:00008100       $cppxdata$??$_Uninitialized_copy@PEAVKeyPoint@cv@@V?$allocator@VKeyPoint@cv@@@std@@@std@@YAPEAVKeyPoint@cv@@QEAV12@0PEAV12@AEAV?$allocator@VKeyPoint@cv@@@0@@Z 0000000180058100     extractSurfCore.obj
 0002:00008109       $stateUnwindMap$??$_Uninitialized_copy@PEAVKeyPoint@cv@@V?$allocator@VKeyPoint@cv@@@std@@@std@@YAPEAVKeyPoint@cv@@QEAV12@0PEAV12@AEAV?$allocator@VKeyPoint@cv@@@0@@Z 0000000180058109     extractSurfCore.obj
 0002:0000810f       $ip2state$??$_Uninitialized_copy@PEAVKeyPoint@cv@@V?$allocator@VKeyPoint@cv@@@std@@@std@@YAPEAVKeyPoint@cv@@QEAV12@0PEAV12@AEAV?$allocator@VKeyPoint@cv@@@0@@Z 000000018005810f     extractSurfCore.obj
 0002:00008118       $unwind$?dtor$0@?0???$_Uninitialized_copy@PEAVKeyPoint@cv@@V?$allocator@VKeyPoint@cv@@@std@@@std@@YAPEAVKeyPoint@cv@@QEAV12@0PEAV12@AEAV?$allocator@VKeyPoint@cv@@@0@@Z@4HA 0000000180058118     extractSurfCore.obj
 0002:00008120       $unwind$??$_Allocate_manually_vector_aligned@U_Default_allocate_traits@std@@@std@@YAPEAX_K@Z 0000000180058120     extractSurfCore.obj
 0002:00008128       $unwind$??$_Uninitialized_move@PEAVKeyPoint@cv@@V?$allocator@VKeyPoint@cv@@@std@@@std@@YAPEAVKeyPoint@cv@@QEAV12@0PEAV12@AEAV?$allocator@VKeyPoint@cv@@@0@@Z 0000000180058128     extractSurfCore.obj
 0002:00008138       $cppxdata$??$_Uninitialized_move@PEAVKeyPoint@cv@@V?$allocator@VKeyPoint@cv@@@std@@@std@@YAPEAVKeyPoint@cv@@QEAV12@0PEAV12@AEAV?$allocator@VKeyPoint@cv@@@0@@Z 0000000180058138     extractSurfCore.obj
 0002:00008141       $stateUnwindMap$??$_Uninitialized_move@PEAVKeyPoint@cv@@V?$allocator@VKeyPoint@cv@@@std@@@std@@YAPEAVKeyPoint@cv@@QEAV12@0PEAV12@AEAV?$allocator@VKeyPoint@cv@@@0@@Z 0000000180058141     extractSurfCore.obj
 0002:00008147       $ip2state$??$_Uninitialized_move@PEAVKeyPoint@cv@@V?$allocator@VKeyPoint@cv@@@std@@@std@@YAPEAVKeyPoint@cv@@QEAV12@0PEAV12@AEAV?$allocator@VKeyPoint@cv@@@0@@Z 0000000180058147     extractSurfCore.obj
 0002:00008150       $unwind$?dtor$0@?0???$_Uninitialized_move@PEAVKeyPoint@cv@@V?$allocator@VKeyPoint@cv@@@std@@@std@@YAPEAVKeyPoint@cv@@QEAV12@0PEAV12@AEAV?$allocator@VKeyPoint@cv@@@0@@Z@4HA 0000000180058150     extractSurfCore.obj
 0002:00008158       $unwind$??__F?policy@?$SinglePolicy@Uempty_any@anyimpl@cvflann@@@anyimpl@cvflann@@0U?$big_any_policy@Uempty_any@anyimpl@cvflann@@@23@A@@YAXXZ 0000000180058158     extractSurfCore.obj
 0002:00008160       $unwind$??__F?policy@?$SinglePolicy@Uempty_any@anyimpl@cvflann@@@anyimpl@cvflann@@0U?$big_any_policy@Uempty_any@anyimpl@cvflann@@@23@A@@YAXXZ 0000000180058160     extractSurfCore.obj
 0002:00008168       $unwind$??1?$typed_base_any_policy@PEBD@anyimpl@cvflann@@UEAA@XZ 0000000180058168     extractSurfCore.obj
 0002:00008170       $unwind$?copy_from_value@?$small_any_policy@PEBD@anyimpl@cvflann@@UEAAXPEBXPEAPEAX@Z 0000000180058170     extractSurfCore.obj
 0002:00008178       $unwind$?print@?$small_any_policy@PEBD@anyimpl@cvflann@@UEAAXAEAV?$basic_ostream@DU?$char_traits@D@std@@@std@@PEBQEAX@Z 0000000180058178     extractSurfCore.obj
 0002:00008180       $unwind$??1?$small_any_policy@PEBD@anyimpl@cvflann@@UEAA@XZ 0000000180058180     extractSurfCore.obj
 0002:00008188       $unwind$??_G?$small_any_policy@PEBD@anyimpl@cvflann@@UEAAPEAXI@Z 0000000180058188     extractSurfCore.obj
 0002:00008190       $unwind$??1?$_Ref_count_obj2@VMWSURF@cv@@@std@@UEAA@XZ 0000000180058190     extractSurfCore.obj
 0002:00008198       $unwind$?_Destroy@?$_Ref_count_obj2@VMWSURF@cv@@@std@@EEAAXXZ 0000000180058198     extractSurfCore.obj
 0002:000081a0       $unwind$?_Delete_this@?$_Ref_count_obj2@VMWSURF@cv@@@std@@EEAAXXZ 00000001800581a0     extractSurfCore.obj
 0002:000081a8       $unwind$??_G?$_Ref_count_obj2@VMWSURF@cv@@@std@@UEAAPEAXI@Z 00000001800581a8     extractSurfCore.obj
 0002:000081b0       $unwind$??$?0$$V@?$_Ref_count_obj2@VMWSURF@cv@@@std@@QEAA@XZ 00000001800581b0     extractSurfCore.obj
 0002:000081c0       $cppxdata$??$?0$$V@?$_Ref_count_obj2@VMWSURF@cv@@@std@@QEAA@XZ 00000001800581c0     extractSurfCore.obj
 0002:000081c9       $stateUnwindMap$??$?0$$V@?$_Ref_count_obj2@VMWSURF@cv@@@std@@QEAA@XZ 00000001800581c9     extractSurfCore.obj
 0002:000081cf       $ip2state$??$?0$$V@?$_Ref_count_obj2@VMWSURF@cv@@@std@@QEAA@XZ 00000001800581cf     extractSurfCore.obj
 0002:000081d8       $unwind$?dtor$0@?0???$?0$$V@?$_Ref_count_obj2@VMWSURF@cv@@@std@@QEAA@XZ@4HA 00000001800581d8     extractSurfCore.obj
 0002:000081e0       $unwind$??1?$_Uninitialized_backout_al@V?$allocator@VKeyPoint@cv@@@std@@@std@@QEAA@XZ 00000001800581e0     extractSurfCore.obj
 0002:000081e8       $unwind$??$_Emplace_back@AEAVKeyPoint@cv@@@?$_Uninitialized_backout_al@V?$allocator@VKeyPoint@cv@@@std@@@std@@QEAAXAEAVKeyPoint@cv@@@Z 00000001800581e8     extractSurfCore.obj
 0002:000081f0       $unwind$??$_Emplace_back@VKeyPoint@cv@@@?$_Uninitialized_backout_al@V?$allocator@VKeyPoint@cv@@@std@@@std@@QEAAX$$QEAVKeyPoint@cv@@@Z 00000001800581f0     extractSurfCore.obj
 0002:000081f8       $unwind$??$_Destroy_in_place@VMWSURF@cv@@@std@@YAXAEAVMWSURF@cv@@@Z 00000001800581f8     extractSurfCore.obj
 0002:00008200       $unwind$??__F?policy@?$SinglePolicy@PEBD@anyimpl@cvflann@@0U?$small_any_policy@PEBD@23@A@@YAXXZ 0000000180058200     extractSurfCore.obj
 0002:00008208       $unwind$??__F?policy@?$SinglePolicy@PEBD@anyimpl@cvflann@@0U?$small_any_policy@PEBD@23@A@@YAXXZ 0000000180058208     extractSurfCore.obj
 0002:00008210       $unwind$??1?$typed_base_any_policy@H@anyimpl@cvflann@@UEAA@XZ 0000000180058210     extractSurfCore.obj
 0002:00008218       $unwind$?copy_from_value@?$small_any_policy@H@anyimpl@cvflann@@UEAAXPEBXPEAPEAX@Z 0000000180058218     extractSurfCore.obj
 0002:00008220       $unwind$?print@?$small_any_policy@H@anyimpl@cvflann@@UEAAXAEAV?$basic_ostream@DU?$char_traits@D@std@@@std@@PEBQEAX@Z 0000000180058220     extractSurfCore.obj
 0002:00008228       $unwind$??1?$small_any_policy@H@anyimpl@cvflann@@UEAA@XZ 0000000180058228     extractSurfCore.obj
 0002:00008230       $unwind$??_G?$small_any_policy@H@anyimpl@cvflann@@UEAAPEAXI@Z 0000000180058230     extractSurfCore.obj
 0002:00008238       $unwind$??1?$typed_base_any_policy@M@anyimpl@cvflann@@UEAA@XZ 0000000180058238     extractSurfCore.obj
 0002:00008240       $unwind$?copy_from_value@?$small_any_policy@M@anyimpl@cvflann@@UEAAXPEBXPEAPEAX@Z 0000000180058240     extractSurfCore.obj
 0002:00008248       $unwind$?print@?$small_any_policy@M@anyimpl@cvflann@@UEAAXAEAV?$basic_ostream@DU?$char_traits@D@std@@@std@@PEBQEAX@Z 0000000180058248     extractSurfCore.obj
 0002:00008250       $unwind$??1?$small_any_policy@M@anyimpl@cvflann@@UEAA@XZ 0000000180058250     extractSurfCore.obj
 0002:00008258       $unwind$??_G?$small_any_policy@M@anyimpl@cvflann@@UEAAPEAXI@Z 0000000180058258     extractSurfCore.obj
 0002:00008260       $unwind$??1?$typed_base_any_policy@_N@anyimpl@cvflann@@UEAA@XZ 0000000180058260     extractSurfCore.obj
 0002:00008268       $unwind$?copy_from_value@?$small_any_policy@_N@anyimpl@cvflann@@UEAAXPEBXPEAPEAX@Z 0000000180058268     extractSurfCore.obj
 0002:00008270       $unwind$?print@?$small_any_policy@_N@anyimpl@cvflann@@UEAAXAEAV?$basic_ostream@DU?$char_traits@D@std@@@std@@PEBQEAX@Z 0000000180058270     extractSurfCore.obj
 0002:00008278       $unwind$??1?$small_any_policy@_N@anyimpl@cvflann@@UEAA@XZ 0000000180058278     extractSurfCore.obj
 0002:00008280       $unwind$??_G?$small_any_policy@_N@anyimpl@cvflann@@UEAAPEAXI@Z 0000000180058280     extractSurfCore.obj
 0002:00008288       $unwind$??1?$typed_base_any_policy@I@anyimpl@cvflann@@UEAA@XZ 0000000180058288     extractSurfCore.obj
 0002:00008290       $unwind$?copy_from_value@?$small_any_policy@I@anyimpl@cvflann@@UEAAXPEBXPEAPEAX@Z 0000000180058290     extractSurfCore.obj
 0002:00008298       $unwind$?print@?$small_any_policy@I@anyimpl@cvflann@@UEAAXAEAV?$basic_ostream@DU?$char_traits@D@std@@@std@@PEBQEAX@Z 0000000180058298     extractSurfCore.obj
 0002:000082a0       $unwind$??1?$small_any_policy@I@anyimpl@cvflann@@UEAA@XZ 00000001800582a0     extractSurfCore.obj
 0002:000082a8       $unwind$??_G?$small_any_policy@I@anyimpl@cvflann@@UEAAPEAXI@Z 00000001800582a8     extractSurfCore.obj
 0002:000082b0       $unwind$??$_Construct_in_place@VMWSURF@cv@@$$V@std@@YAXAEAVMWSURF@cv@@@Z 00000001800582b0     extractSurfCore.obj
 0002:000082b8       $unwind$??$construct@VKeyPoint@cv@@AEAV12@@?$_Default_allocator_traits@V?$allocator@VKeyPoint@cv@@@std@@@std@@SAXAEAV?$allocator@VKeyPoint@cv@@@1@QEAVKeyPoint@cv@@AEAV34@@Z 00000001800582b8     extractSurfCore.obj
 0002:000082c0       $unwind$??$construct@VKeyPoint@cv@@V12@@?$_Default_allocator_traits@V?$allocator@VKeyPoint@cv@@@std@@@std@@SAXAEAV?$allocator@VKeyPoint@cv@@@1@QEAVKeyPoint@cv@@$$QEAV34@@Z 00000001800582c0     extractSurfCore.obj
 0002:000082c8       $unwind$??__F?policy@?$SinglePolicy@H@anyimpl@cvflann@@0U?$small_any_policy@H@23@A@@YAXXZ 00000001800582c8     extractSurfCore.obj
 0002:000082d0       $unwind$??__F?policy@?$SinglePolicy@H@anyimpl@cvflann@@0U?$small_any_policy@H@23@A@@YAXXZ 00000001800582d0     extractSurfCore.obj
 0002:000082d8       $unwind$??__F?policy@?$SinglePolicy@M@anyimpl@cvflann@@0U?$small_any_policy@M@23@A@@YAXXZ 00000001800582d8     extractSurfCore.obj
 0002:000082e0       $unwind$??__F?policy@?$SinglePolicy@M@anyimpl@cvflann@@0U?$small_any_policy@M@23@A@@YAXXZ 00000001800582e0     extractSurfCore.obj
 0002:000082e8       $unwind$??__F?policy@?$SinglePolicy@_N@anyimpl@cvflann@@0U?$small_any_policy@_N@23@A@@YAXXZ 00000001800582e8     extractSurfCore.obj
 0002:000082f0       $unwind$??__F?policy@?$SinglePolicy@_N@anyimpl@cvflann@@0U?$small_any_policy@_N@23@A@@YAXXZ 00000001800582f0     extractSurfCore.obj
 0002:000082f8       $unwind$??__F?policy@?$SinglePolicy@W4flann_algorithm_t@cvflann@@@anyimpl@cvflann@@0U?$big_any_policy@W4flann_algorithm_t@cvflann@@@23@A@@YAXXZ 00000001800582f8     extractSurfCore.obj
 0002:00008300       $unwind$??__F?policy@?$SinglePolicy@W4flann_algorithm_t@cvflann@@@anyimpl@cvflann@@0U?$big_any_policy@W4flann_algorithm_t@cvflann@@@23@A@@YAXXZ 0000000180058300     extractSurfCore.obj
 0002:00008308       $unwind$??__F?policy@?$SinglePolicy@W4flann_centers_init_t@cvflann@@@anyimpl@cvflann@@0U?$big_any_policy@W4flann_centers_init_t@cvflann@@@23@A@@YAXXZ 0000000180058308     extractSurfCore.obj
 0002:00008310       $unwind$??__F?policy@?$SinglePolicy@W4flann_centers_init_t@cvflann@@@anyimpl@cvflann@@0U?$big_any_policy@W4flann_centers_init_t@cvflann@@@23@A@@YAXXZ 0000000180058310     extractSurfCore.obj
 0002:00008318       $unwind$??__F?policy@?$SinglePolicy@I@anyimpl@cvflann@@0U?$small_any_policy@I@23@A@@YAXXZ 0000000180058318     extractSurfCore.obj
 0002:00008320       $unwind$??__F?policy@?$SinglePolicy@I@anyimpl@cvflann@@0U?$small_any_policy@I@23@A@@YAXXZ 0000000180058320     extractSurfCore.obj
 0002:00008328       $unwind$??__F?policy@?$SinglePolicy@V?$basic_string@DU?$char_traits@D@std@@V?$allocator@D@2@@std@@@anyimpl@cvflann@@0U?$big_any_policy@V?$basic_string@DU?$char_traits@D@std@@V?$allocator@D@2@@std@@@23@A@@YAXXZ 0000000180058328     extractSurfCore.obj
 0002:00008330       $unwind$??__F?policy@?$SinglePolicy@V?$basic_string@DU?$char_traits@D@std@@V?$allocator@D@2@@std@@@anyimpl@cvflann@@0U?$big_any_policy@V?$basic_string@DU?$char_traits@D@std@@V?$allocator@D@2@@std@@@23@A@@YAXXZ 0000000180058330     extractSurfCore.obj
 0002:00008338       $unwind$?begin@?$vector@V?$Rect_@H@cv@@V?$allocator@V?$Rect_@H@cv@@@std@@@std@@QEBA?AV?$_Vector_const_iterator@V?$_Vector_val@U?$_Simple_types@V?$Rect_@H@cv@@@std@@@std@@@2@XZ 0000000180058338     cgCommon.obj
 0002:00008340       $unwind$?end@?$vector@V?$Rect_@H@cv@@V?$allocator@V?$Rect_@H@cv@@@std@@@std@@QEBA?AV?$_Vector_const_iterator@V?$_Vector_val@U?$_Simple_types@V?$Rect_@H@cv@@@std@@@std@@@2@XZ 0000000180058340     cgCommon.obj
 0002:00008348       $unwind$?size@?$vector@V?$Rect_@H@cv@@V?$allocator@V?$Rect_@H@cv@@@std@@@std@@QEBA_KXZ 0000000180058348     cgCommon.obj
 0002:00008350       $unwind$cvRectToBoundingBox 0000000180058350     cgCommon.obj
 0002:00008358       $unwind$cvRectToBoundingBoxRowMajor 0000000180058358     cgCommon.obj
 0002:00008360       $unwind$??0?$_Vector_const_iterator@V?$_Vector_val@U?$_Simple_types@V?$Rect_@H@cv@@@std@@@std@@@std@@QEAA@PEAV?$Rect_@H@cv@@PEBU_Container_base0@1@@Z 0000000180058360     cgCommon.obj
 0002:00008368       $unwind$??8?$_Vector_const_iterator@V?$_Vector_val@U?$_Simple_types@V?$Rect_@H@cv@@@std@@@std@@@std@@QEBA_NAEBV01@@Z 0000000180058368     cgCommon.obj
 0002:00008370       $unwind$??9?$_Vector_const_iterator@V?$_Vector_val@U?$_Simple_types@V?$Rect_@H@cv@@@std@@@std@@@std@@QEBA_NAEBV01@@Z 0000000180058370     cgCommon.obj
 0002:00008378       $unwind$??__F?policy@?$SinglePolicy@Uempty_any@anyimpl@cvflann@@@anyimpl@cvflann@@0U?$big_any_policy@Uempty_any@anyimpl@cvflann@@@23@A@@YAXXZ 0000000180058378     cgCommon.obj
 0002:00008380       $unwind$??__F?policy@?$SinglePolicy@Uempty_any@anyimpl@cvflann@@@anyimpl@cvflann@@0U?$big_any_policy@Uempty_any@anyimpl@cvflann@@@23@A@@YAXXZ 0000000180058380     cgCommon.obj
 0002:00008388       $unwind$??__F?policy@?$SinglePolicy@PEBD@anyimpl@cvflann@@0U?$small_any_policy@PEBD@23@A@@YAXXZ 0000000180058388     cgCommon.obj
 0002:00008390       $unwind$??__F?policy@?$SinglePolicy@PEBD@anyimpl@cvflann@@0U?$small_any_policy@PEBD@23@A@@YAXXZ 0000000180058390     cgCommon.obj
 0002:00008398       $unwind$??__F?policy@?$SinglePolicy@H@anyimpl@cvflann@@0U?$small_any_policy@H@23@A@@YAXXZ 0000000180058398     cgCommon.obj
 0002:000083a0       $unwind$??__F?policy@?$SinglePolicy@H@anyimpl@cvflann@@0U?$small_any_policy@H@23@A@@YAXXZ 00000001800583a0     cgCommon.obj
 0002:000083a8       $unwind$??__F?policy@?$SinglePolicy@M@anyimpl@cvflann@@0U?$small_any_policy@M@23@A@@YAXXZ 00000001800583a8     cgCommon.obj
 0002:000083b0       $unwind$??__F?policy@?$SinglePolicy@M@anyimpl@cvflann@@0U?$small_any_policy@M@23@A@@YAXXZ 00000001800583b0     cgCommon.obj
 0002:000083b8       $unwind$??__F?policy@?$SinglePolicy@_N@anyimpl@cvflann@@0U?$small_any_policy@_N@23@A@@YAXXZ 00000001800583b8     cgCommon.obj
 0002:000083c0       $unwind$??__F?policy@?$SinglePolicy@_N@anyimpl@cvflann@@0U?$small_any_policy@_N@23@A@@YAXXZ 00000001800583c0     cgCommon.obj
 0002:000083c8       $unwind$??__F?policy@?$SinglePolicy@W4flann_algorithm_t@cvflann@@@anyimpl@cvflann@@0U?$big_any_policy@W4flann_algorithm_t@cvflann@@@23@A@@YAXXZ 00000001800583c8     cgCommon.obj
 0002:000083d0       $unwind$??__F?policy@?$SinglePolicy@W4flann_algorithm_t@cvflann@@@anyimpl@cvflann@@0U?$big_any_policy@W4flann_algorithm_t@cvflann@@@23@A@@YAXXZ 00000001800583d0     cgCommon.obj
 0002:000083d8       $unwind$??__F?policy@?$SinglePolicy@W4flann_centers_init_t@cvflann@@@anyimpl@cvflann@@0U?$big_any_policy@W4flann_centers_init_t@cvflann@@@23@A@@YAXXZ 00000001800583d8     cgCommon.obj
 0002:000083e0       $unwind$??__F?policy@?$SinglePolicy@W4flann_centers_init_t@cvflann@@@anyimpl@cvflann@@0U?$big_any_policy@W4flann_centers_init_t@cvflann@@@23@A@@YAXXZ 00000001800583e0     cgCommon.obj
 0002:000083e8       $unwind$??__F?policy@?$SinglePolicy@I@anyimpl@cvflann@@0U?$small_any_policy@I@23@A@@YAXXZ 00000001800583e8     cgCommon.obj
 0002:000083f0       $unwind$??__F?policy@?$SinglePolicy@I@anyimpl@cvflann@@0U?$small_any_policy@I@23@A@@YAXXZ 00000001800583f0     cgCommon.obj
 0002:000083f8       $unwind$??__F?policy@?$SinglePolicy@V?$basic_string@DU?$char_traits@D@std@@V?$allocator@D@2@@std@@@anyimpl@cvflann@@0U?$big_any_policy@V?$basic_string@DU?$char_traits@D@std@@V?$allocator@D@2@@std@@@23@A@@YAXXZ 00000001800583f8     cgCommon.obj
 0002:00008400       $unwind$??__F?policy@?$SinglePolicy@V?$basic_string@DU?$char_traits@D@std@@V?$allocator@D@2@@std@@@anyimpl@cvflann@@0U?$big_any_policy@V?$basic_string@DU?$char_traits@D@std@@V?$allocator@D@2@@std@@@23@A@@YAXXZ 0000000180058400     cgCommon.obj
 0002:00008408       $unwind$??_H@YAXPEAX_K1P6APEAX0@Z@Z 0000000180058408     mwsurf.obj
 0002:00008410       $unwind$fabsf              0000000180058410     mwsurf.obj
 0002:00008418       $unwind$?abs@@YAMM@Z       0000000180058418     mwsurf.obj
 0002:00008428       $cppxdata$?abs@@YAMM@Z     0000000180058428     mwsurf.obj
 0002:0000842d       $ip2state$?abs@@YAMM@Z     000000018005842d     mwsurf.obj
 0002:00008430       $unwind$?cos@@YAMM@Z       0000000180058430     mwsurf.obj
 0002:00008440       $cppxdata$?cos@@YAMM@Z     0000000180058440     mwsurf.obj
 0002:00008445       $ip2state$?cos@@YAMM@Z     0000000180058445     mwsurf.obj
 0002:00008448       $unwind$?fabs@@YAMM@Z      0000000180058448     mwsurf.obj
 0002:00008458       $cppxdata$?fabs@@YAMM@Z    0000000180058458     mwsurf.obj
 0002:0000845d       $ip2state$?fabs@@YAMM@Z    000000018005845d     mwsurf.obj
 0002:00008460       $unwind$?sin@@YAMM@Z       0000000180058460     mwsurf.obj
 0002:00008470       $cppxdata$?sin@@YAMM@Z     0000000180058470     mwsurf.obj
 0002:00008475       $ip2state$?sin@@YAMM@Z     0000000180058475     mwsurf.obj
 0002:00008478       $unwind$??8type_info@@QEBA_NAEBV0@@Z 0000000180058478     mwsurf.obj
 0002:00008488       $cppxdata$??8type_info@@QEBA_NAEBV0@@Z 0000000180058488     mwsurf.obj
 0002:0000848d       $ip2state$??8type_info@@QEBA_NAEBV0@@Z 000000018005848d     mwsurf.obj
 0002:00008490       $unwind$?cvRound@@YAHM@Z   0000000180058490     mwsurf.obj
 0002:00008498       $unwind$?cvCeil@@YAHM@Z    0000000180058498     mwsurf.obj
 0002:000084a0       $unwind$?cvMat@@YA?AUCvMat@@HHHPEAX@Z 00000001800584a0     mwsurf.obj
 0002:000084ac       $unwind$?cvPoint@@YA?AUCvPoint@@HH@Z 00000001800584ac     mwsurf.obj
 0002:000084b4       $unwind$??0MWSURF@cv@@QEAA@XZ 00000001800584b4     mwsurf.obj
 0002:000084c4       $cppxdata$??0MWSURF@cv@@QEAA@XZ 00000001800584c4     mwsurf.obj
 0002:000084cd       $stateUnwindMap$??0MWSURF@cv@@QEAA@XZ 00000001800584cd     mwsurf.obj
 0002:000084d3       $ip2state$??0MWSURF@cv@@QEAA@XZ 00000001800584d3     mwsurf.obj
 0002:000084db       $cppxdata$??0MWSURF@cv@@QEAA@NHH_N0@Z 00000001800584db     mwsurf.obj
 0002:000084e4       $unwind$?dtor$0@?0???0MWSURF@cv@@QEAA@XZ@4HA 00000001800584e4     mwsurf.obj
 0002:000084ec       $unwind$??0MWSURF@cv@@QEAA@NHH_N0@Z 00000001800584ec     mwsurf.obj
 0002:000084fc       $stateUnwindMap$??0MWSURF@cv@@QEAA@NHH_N0@Z 00000001800584fc     mwsurf.obj
 0002:00008502       $ip2state$??0MWSURF@cv@@QEAA@NHH_N0@Z 0000000180058502     mwsurf.obj
 0002:0000850a       $cppxdata$??RMWSURF@cv@@QEBAXAEBV_InputArray@1@0AEAV?$vector@VKeyPoint@cv@@V?$allocator@VKeyPoint@cv@@@std@@@std@@AEBV_OutputArray@1@_N@Z 000000018005850a     mwsurf.obj
 0002:00008513       $cppxdata$?detectImpl@MWSURF@cv@@IEBAXAEBVMat@2@AEAV?$vector@VKeyPoint@cv@@V?$allocator@VKeyPoint@cv@@@std@@@std@@0@Z 0000000180058513     mwsurf.obj
 0002:0000851c       $unwind$?dtor$0@?0???0MWSURF@cv@@QEAA@NHH_N0@Z@4HA 000000018005851c     mwsurf.obj
 0002:00008524       $unwind$?descriptorSize@MWSURF@cv@@UEBAHXZ 0000000180058524     mwsurf.obj
 0002:0000852c       $unwind$??RMWSURF@cv@@QEBAXAEBV_InputArray@1@0AEAV?$vector@VKeyPoint@cv@@V?$allocator@VKeyPoint@cv@@@std@@@std@@@Z 000000018005852c     mwsurf.obj
 0002:00008534       $unwind$??RMWSURF@cv@@QEBAXAEBV_InputArray@1@0AEAV?$vector@VKeyPoint@cv@@V?$allocator@VKeyPoint@cv@@@std@@@std@@AEBV_OutputArray@1@_N@Z 0000000180058534     mwsurf.obj
 0002:00008548       $stateUnwindMap$??RMWSURF@cv@@QEBAXAEBV_InputArray@1@0AEAV?$vector@VKeyPoint@cv@@V?$allocator@VKeyPoint@cv@@@std@@@std@@AEBV_OutputArray@1@_N@Z 0000000180058548     mwsurf.obj
 0002:000085d0       $ip2state$??RMWSURF@cv@@QEBAXAEBV_InputArray@1@0AEAV?$vector@VKeyPoint@cv@@V?$allocator@VKeyPoint@cv@@@std@@@std@@AEBV_OutputArray@1@_N@Z 00000001800585d0     mwsurf.obj
 0002:0000864b       $cppxdata$?computeImpl@MWSURF@cv@@IEBAXAEBVMat@2@AEAV?$vector@VKeyPoint@cv@@V?$allocator@VKeyPoint@cv@@@std@@@std@@AEAV32@@Z 000000018005864b     mwsurf.obj
 0002:00008654       $unwind$?dtor$0@?0???RMWSURF@cv@@QEBAXAEBV_InputArray@1@0AEAV?$vector@VKeyPoint@cv@@V?$allocator@VKeyPoint@cv@@@std@@@std@@AEBV_OutputArray@1@_N@Z@4HA 0000000180058654     mwsurf.obj
 0002:0000865c       $unwind$?dtor$1@?0???RMWSURF@cv@@QEBAXAEBV_InputArray@1@0AEAV?$vector@VKeyPoint@cv@@V?$allocator@VKeyPoint@cv@@@std@@@std@@AEBV_OutputArray@1@_N@Z@4HA 000000018005865c     mwsurf.obj
 0002:00008664       $unwind$?dtor$2@?0???RMWSURF@cv@@QEBAXAEBV_InputArray@1@0AEAV?$vector@VKeyPoint@cv@@V?$allocator@VKeyPoint@cv@@@std@@@std@@AEBV_OutputArray@1@_N@Z@4HA 0000000180058664     mwsurf.obj
 0002:0000866c       $unwind$?dtor$3@?0???RMWSURF@cv@@QEBAXAEBV_InputArray@1@0AEAV?$vector@VKeyPoint@cv@@V?$allocator@VKeyPoint@cv@@@std@@@std@@AEBV_OutputArray@1@_N@Z@4HA 000000018005866c     mwsurf.obj
 0002:00008674       $unwind$?dtor$4@?0???RMWSURF@cv@@QEBAXAEBV_InputArray@1@0AEAV?$vector@VKeyPoint@cv@@V?$allocator@VKeyPoint@cv@@@std@@@std@@AEBV_OutputArray@1@_N@Z@4HA 0000000180058674     mwsurf.obj
 0002:0000867c       $unwind$?dtor$5@?0???RMWSURF@cv@@QEBAXAEBV_InputArray@1@0AEAV?$vector@VKeyPoint@cv@@V?$allocator@VKeyPoint@cv@@@std@@@std@@AEBV_OutputArray@1@_N@Z@4HA 000000018005867c     mwsurf.obj
 0002:00008684       $unwind$?dtor$6@?0???RMWSURF@cv@@QEBAXAEBV_InputArray@1@0AEAV?$vector@VKeyPoint@cv@@V?$allocator@VKeyPoint@cv@@@std@@@std@@AEBV_OutputArray@1@_N@Z@4HA 0000000180058684     mwsurf.obj
 0002:0000868c       $unwind$?dtor$7@?0???RMWSURF@cv@@QEBAXAEBV_InputArray@1@0AEAV?$vector@VKeyPoint@cv@@V?$allocator@VKeyPoint@cv@@@std@@@std@@AEBV_OutputArray@1@_N@Z@4HA 000000018005868c     mwsurf.obj
 0002:00008694       $unwind$?dtor$8@?0???RMWSURF@cv@@QEBAXAEBV_InputArray@1@0AEAV?$vector@VKeyPoint@cv@@V?$allocator@VKeyPoint@cv@@@std@@@std@@AEBV_OutputArray@1@_N@Z@4HA 0000000180058694     mwsurf.obj
 0002:0000869c       $unwind$?dtor$9@?0???RMWSURF@cv@@QEBAXAEBV_InputArray@1@0AEAV?$vector@VKeyPoint@cv@@V?$allocator@VKeyPoint@cv@@@std@@@std@@AEBV_OutputArray@1@_N@Z@4HA 000000018005869c     mwsurf.obj
 0002:000086a4       $unwind$?dtor$10@?0???RMWSURF@cv@@QEBAXAEBV_InputArray@1@0AEAV?$vector@VKeyPoint@cv@@V?$allocator@VKeyPoint@cv@@@std@@@std@@AEBV_OutputArray@1@_N@Z@4HA 00000001800586a4     mwsurf.obj
 0002:000086ac       $unwind$?dtor$11@?0???RMWSURF@cv@@QEBAXAEBV_InputArray@1@0AEAV?$vector@VKeyPoint@cv@@V?$allocator@VKeyPoint@cv@@@std@@@std@@AEBV_OutputArray@1@_N@Z@4HA 00000001800586ac     mwsurf.obj
 0002:000086b4       $unwind$?dtor$12@?0???RMWSURF@cv@@QEBAXAEBV_InputArray@1@0AEAV?$vector@VKeyPoint@cv@@V?$allocator@VKeyPoint@cv@@@std@@@std@@AEBV_OutputArray@1@_N@Z@4HA 00000001800586b4     mwsurf.obj
 0002:000086bc       $unwind$?dtor$13@?0???RMWSURF@cv@@QEBAXAEBV_InputArray@1@0AEAV?$vector@VKeyPoint@cv@@V?$allocator@VKeyPoint@cv@@@std@@@std@@AEBV_OutputArray@1@_N@Z@4HA 00000001800586bc     mwsurf.obj
 0002:000086c4       $unwind$?dtor$14@?0???RMWSURF@cv@@QEBAXAEBV_InputArray@1@0AEAV?$vector@VKeyPoint@cv@@V?$allocator@VKeyPoint@cv@@@std@@@std@@AEBV_OutputArray@1@_N@Z@4HA 00000001800586c4     mwsurf.obj
 0002:000086cc       $unwind$?dtor$15@?0???RMWSURF@cv@@QEBAXAEBV_InputArray@1@0AEAV?$vector@VKeyPoint@cv@@V?$allocator@VKeyPoint@cv@@@std@@@std@@AEBV_OutputArray@1@_N@Z@4HA 00000001800586cc     mwsurf.obj
 0002:000086d4       $unwind$?dtor$16@?0???RMWSURF@cv@@QEBAXAEBV_InputArray@1@0AEAV?$vector@VKeyPoint@cv@@V?$allocator@VKeyPoint@cv@@@std@@@std@@AEBV_OutputArray@1@_N@Z@4HA 00000001800586d4     mwsurf.obj
 0002:000086dc       $unwind$?dtor$17@?0???RMWSURF@cv@@QEBAXAEBV_InputArray@1@0AEAV?$vector@VKeyPoint@cv@@V?$allocator@VKeyPoint@cv@@@std@@@std@@AEBV_OutputArray@1@_N@Z@4HA 00000001800586dc     mwsurf.obj
 0002:000086e4       $unwind$?dtor$18@?0???RMWSURF@cv@@QEBAXAEBV_InputArray@1@0AEAV?$vector@VKeyPoint@cv@@V?$allocator@VKeyPoint@cv@@@std@@@std@@AEBV_OutputArray@1@_N@Z@4HA 00000001800586e4     mwsurf.obj
 0002:000086ec       $unwind$?dtor$19@?0???RMWSURF@cv@@QEBAXAEBV_InputArray@1@0AEAV?$vector@VKeyPoint@cv@@V?$allocator@VKeyPoint@cv@@@std@@@std@@AEBV_OutputArray@1@_N@Z@4HA 00000001800586ec     mwsurf.obj
 0002:000086f4       $unwind$?dtor$20@?0???RMWSURF@cv@@QEBAXAEBV_InputArray@1@0AEAV?$vector@VKeyPoint@cv@@V?$allocator@VKeyPoint@cv@@@std@@@std@@AEBV_OutputArray@1@_N@Z@4HA 00000001800586f4     mwsurf.obj
 0002:000086fc       $unwind$?dtor$21@?0???RMWSURF@cv@@QEBAXAEBV_InputArray@1@0AEAV?$vector@VKeyPoint@cv@@V?$allocator@VKeyPoint@cv@@@std@@@std@@AEBV_OutputArray@1@_N@Z@4HA 00000001800586fc     mwsurf.obj
 0002:00008704       $unwind$?dtor$22@?0???RMWSURF@cv@@QEBAXAEBV_InputArray@1@0AEAV?$vector@VKeyPoint@cv@@V?$allocator@VKeyPoint@cv@@@std@@@std@@AEBV_OutputArray@1@_N@Z@4HA 0000000180058704     mwsurf.obj
 0002:0000870c       $unwind$?dtor$23@?0???RMWSURF@cv@@QEBAXAEBV_InputArray@1@0AEAV?$vector@VKeyPoint@cv@@V?$allocator@VKeyPoint@cv@@@std@@@std@@AEBV_OutputArray@1@_N@Z@4HA 000000018005870c     mwsurf.obj
 0002:00008714       $unwind$?dtor$24@?0???RMWSURF@cv@@QEBAXAEBV_InputArray@1@0AEAV?$vector@VKeyPoint@cv@@V?$allocator@VKeyPoint@cv@@@std@@@std@@AEBV_OutputArray@1@_N@Z@4HA 0000000180058714     mwsurf.obj
 0002:0000871c       $unwind$?dtor$25@?0???RMWSURF@cv@@QEBAXAEBV_InputArray@1@0AEAV?$vector@VKeyPoint@cv@@V?$allocator@VKeyPoint@cv@@@std@@@std@@AEBV_OutputArray@1@_N@Z@4HA 000000018005871c     mwsurf.obj
 0002:00008724       $unwind$?detect@MWSURF@cv@@QEBAXAEBVMat@2@AEAV?$vector@VKeyPoint@cv@@V?$allocator@VKeyPoint@cv@@@std@@@std@@0@Z 0000000180058724     mwsurf.obj
 0002:0000872c       $unwind$?compute@MWSURF@cv@@QEBAXAEBVMat@2@AEAV?$vector@VKeyPoint@cv@@V?$allocator@VKeyPoint@cv@@@std@@@std@@AEAV32@@Z 000000018005872c     mwsurf.obj
 0002:00008734       $unwind$?detectImpl@MWSURF@cv@@IEBAXAEBVMat@2@AEAV?$vector@VKeyPoint@cv@@V?$allocator@VKeyPoint@cv@@@std@@@std@@0@Z 0000000180058734     mwsurf.obj
 0002:00008744       $stateUnwindMap$?detectImpl@MWSURF@cv@@IEBAXAEBVMat@2@AEAV?$vector@VKeyPoint@cv@@V?$allocator@VKeyPoint@cv@@@std@@@std@@0@Z 0000000180058744     mwsurf.obj
 0002:0000874f       $ip2state$?detectImpl@MWSURF@cv@@IEBAXAEBVMat@2@AEAV?$vector@VKeyPoint@cv@@V?$allocator@VKeyPoint@cv@@@std@@@std@@0@Z 000000018005874f     mwsurf.obj
 0002:0000875a       $stateUnwindMap$?computeImpl@MWSURF@cv@@IEBAXAEBVMat@2@AEAV?$vector@VKeyPoint@cv@@V?$allocator@VKeyPoint@cv@@@std@@@std@@AEAV32@@Z 000000018005875a     mwsurf.obj
 0002:0000876f       $cppxdata$?findMaximaInLayer@MWSURFFindInvoker@cv@@SAXAEBVMat@2@0AEBV?$vector@VMat@cv@@V?$allocator@VMat@cv@@@std@@@std@@1AEBV?$vector@HV?$allocator@H@std@@@5@AEAV?$vector@VKeyPoint@cv@@V?$allocator@VKeyPoint@cv@@@std@@@5@HHMH@Z 000000018005876f     mwsurf.obj
 0002:00008778       $unwind$?dtor$0@?0??detectImpl@MWSURF@cv@@IEBAXAEBVMat@2@AEAV?$vector@VKeyPoint@cv@@V?$allocator@VKeyPoint@cv@@@std@@@std@@0@Z@4HA 0000000180058778     mwsurf.obj
 0002:00008780       $unwind$?dtor$1@?0??detectImpl@MWSURF@cv@@IEBAXAEBVMat@2@AEAV?$vector@VKeyPoint@cv@@V?$allocator@VKeyPoint@cv@@@std@@@std@@0@Z@4HA 0000000180058780     mwsurf.obj
 0002:00008788       $unwind$?computeImpl@MWSURF@cv@@IEBAXAEBVMat@2@AEAV?$vector@VKeyPoint@cv@@V?$allocator@VKeyPoint@cv@@@std@@@std@@AEAV32@@Z 0000000180058788     mwsurf.obj
 0002:0000879c       $ip2state$?computeImpl@MWSURF@cv@@IEBAXAEBVMat@2@AEAV?$vector@VKeyPoint@cv@@V?$allocator@VKeyPoint@cv@@@std@@@std@@AEAV32@@Z 000000018005879c     mwsurf.obj
 0002:000087af       $cppxdata$?fastHessianDetector@cv@@YAXAEBVMat@1@0AEAV?$vector@VKeyPoint@cv@@V?$allocator@VKeyPoint@cv@@@std@@@std@@HHM@Z 00000001800587af     mwsurf.obj
 0002:000087b8       $unwind$?dtor$0@?0??computeImpl@MWSURF@cv@@IEBAXAEBVMat@2@AEAV?$vector@VKeyPoint@cv@@V?$allocator@VKeyPoint@cv@@@std@@@std@@AEAV32@@Z@4HA 00000001800587b8     mwsurf.obj
 0002:000087c0       $unwind$?dtor$1@?0??computeImpl@MWSURF@cv@@IEBAXAEBVMat@2@AEAV?$vector@VKeyPoint@cv@@V?$allocator@VKeyPoint@cv@@@std@@@std@@AEAV32@@Z@4HA 00000001800587c0     mwsurf.obj
 0002:000087c8       $unwind$?dtor$2@?0??computeImpl@MWSURF@cv@@IEBAXAEBVMat@2@AEAV?$vector@VKeyPoint@cv@@V?$allocator@VKeyPoint@cv@@@std@@@std@@AEAV32@@Z@4HA 00000001800587c8     mwsurf.obj
 0002:000087d0       $unwind$?dtor$3@?0??computeImpl@MWSURF@cv@@IEBAXAEBVMat@2@AEAV?$vector@VKeyPoint@cv@@V?$allocator@VKeyPoint@cv@@@std@@@std@@AEAV32@@Z@4HA 00000001800587d0     mwsurf.obj
 0002:000087d8       $unwind$?resizeHaarPattern@cv@@YAXQEAY04$$CBHPEAUMWSurfHF@1@HHHH@Z 00000001800587d8     mwsurf.obj
 0002:000087e0       $unwind$?calcLayerDetAndTrace@cv@@YAXAEBVMat@1@HHAEAV21@1@Z 00000001800587e0     mwsurf.obj
 0002:000087f0       $unwind$?interpolateKeypoint@cv@@YAHQEAY08MHHHAEAVKeyPoint@1@@Z 00000001800587f0     mwsurf.obj
 0002:00008810       $unwind$?findMaximaInLayer@MWSURFFindInvoker@cv@@SAXAEBVMat@2@0AEBV?$vector@VMat@cv@@V?$allocator@VMat@cv@@@std@@@std@@1AEBV?$vector@HV?$allocator@H@std@@@5@AEAV?$vector@VKeyPoint@cv@@V?$allocator@VKeyPoint@cv@@@std@@@5@HHMH@Z 0000000180058810     mwsurf.obj
 0002:00008824       $stateUnwindMap$?findMaximaInLayer@MWSURFFindInvoker@cv@@SAXAEBVMat@2@0AEBV?$vector@VMat@cv@@V?$allocator@VMat@cv@@@std@@@std@@1AEBV?$vector@HV?$allocator@H@std@@@5@AEAV?$vector@VKeyPoint@cv@@V?$allocator@VKeyPoint@cv@@@std@@@5@HHMH@Z 0000000180058824     mwsurf.obj
 0002:0000882a       $ip2state$?findMaximaInLayer@MWSURFFindInvoker@cv@@SAXAEBVMat@2@0AEBV?$vector@VMat@cv@@V?$allocator@VMat@cv@@@std@@@std@@1AEBV?$vector@HV?$allocator@H@std@@@5@AEAV?$vector@VKeyPoint@cv@@V?$allocator@VKeyPoint@cv@@@std@@@5@HHMH@Z 000000018005882a     mwsurf.obj
 0002:00008832       $ip2state$?fastHessianDetector@cv@@YAXAEBVMat@1@0AEAV?$vector@VKeyPoint@cv@@V?$allocator@VKeyPoint@cv@@@std@@@std@@HHM@Z 0000000180058832     mwsurf.obj
 0002:00008854       $unwind$?dtor$0@?0??findMaximaInLayer@MWSURFFindInvoker@cv@@SAXAEBVMat@2@0AEBV?$vector@VMat@cv@@V?$allocator@VMat@cv@@@std@@@std@@1AEBV?$vector@HV?$allocator@H@std@@@5@AEAV?$vector@VKeyPoint@cv@@V?$allocator@VKeyPoint@cv@@@std@@@5@HHMH@Z@4HA 0000000180058854     mwsurf.obj
 0002:0000885c       $unwind$?fastHessianDetector@cv@@YAXAEBVMat@1@0AEAV?$vector@VKeyPoint@cv@@V?$allocator@VKeyPoint@cv@@@std@@@std@@HHM@Z 000000018005885c     mwsurf.obj
 0002:0000886c       $stateUnwindMap$?fastHessianDetector@cv@@YAXAEBVMat@1@0AEAV?$vector@VKeyPoint@cv@@V?$allocator@VKeyPoint@cv@@@std@@@std@@HHM@Z 000000018005886c     mwsurf.obj
 0002:00008890       $unwind$?dtor$0@?0??fastHessianDetector@cv@@YAXAEBVMat@1@0AEAV?$vector@VKeyPoint@cv@@V?$allocator@VKeyPoint@cv@@@std@@@std@@HHM@Z@4HA 0000000180058890     mwsurf.obj
 0002:00008898       $unwind$?dtor$1@?0??fastHessianDetector@cv@@YAXAEBVMat@1@0AEAV?$vector@VKeyPoint@cv@@V?$allocator@VKeyPoint@cv@@@std@@@std@@HHM@Z@4HA 0000000180058898     mwsurf.obj
 0002:000088a0       $unwind$?dtor$2@?0??fastHessianDetector@cv@@YAXAEBVMat@1@0AEAV?$vector@VKeyPoint@cv@@V?$allocator@VKeyPoint@cv@@@std@@@std@@HHM@Z@4HA 00000001800588a0     mwsurf.obj
 0002:000088a8       $unwind$?dtor$3@?0??fastHessianDetector@cv@@YAXAEBVMat@1@0AEAV?$vector@VKeyPoint@cv@@V?$allocator@VKeyPoint@cv@@@std@@@std@@HHM@Z@4HA 00000001800588a8     mwsurf.obj
 0002:000088b0       $unwind$?dtor$4@?0??fastHessianDetector@cv@@YAXAEBVMat@1@0AEAV?$vector@VKeyPoint@cv@@V?$allocator@VKeyPoint@cv@@@std@@@std@@HHM@Z@4HA 00000001800588b0     mwsurf.obj
 0002:000088b8       $unwind$?dtor$5@?0??fastHessianDetector@cv@@YAXAEBVMat@1@0AEAV?$vector@VKeyPoint@cv@@V?$allocator@VKeyPoint@cv@@@std@@@std@@HHM@Z@4HA 00000001800588b8     mwsurf.obj
 0002:000088c0       $unwind$?dtor$6@?0??fastHessianDetector@cv@@YAXAEBVMat@1@0AEAV?$vector@VKeyPoint@cv@@V?$allocator@VKeyPoint@cv@@@std@@@std@@HHM@Z@4HA 00000001800588c0     mwsurf.obj
 0002:000088c8       $unwind$??$?8H@cv@@YA_NAEBV?$Size_@H@0@0@Z 00000001800588c8     mwsurf.obj
 0002:000088d0       $unwind$??$determinant@M$02@cv@@YANAEBV?$Matx@M$02$02@0@@Z 00000001800588d0     mwsurf.obj
 0002:000088d8       $unwind$??$max@H@std@@YAAEBHAEBH0@Z 00000001800588d8     mwsurf.obj
 0002:000088e0       $unwind$??$min@H@std@@YAAEBHAEBH0@Z 00000001800588e0     mwsurf.obj
 0002:000088e8       $unwind$??0?$Matx@M$02$00@cv@@QEAA@XZ 00000001800588e8     mwsurf.obj
 0002:000088f0       $unwind$??0?$Matx@M$02$00@cv@@QEAA@MMM@Z 00000001800588f0     mwsurf.obj
 0002:000088f8       $unwind$??0?$Matx@M$02$00@cv@@QEAA@PEBM@Z 00000001800588f8     mwsurf.obj
 0002:00008900       $unwind$?all@?$Matx@M$02$00@cv@@SA?AV12@M@Z 0000000180058900     mwsurf.obj
 0002:00008914       $unwind$?zeros@?$Matx@M$02$00@cv@@SA?AV12@XZ 0000000180058914     mwsurf.obj
 0002:0000891c       $unwind$??0?$Vec@M$02@cv@@QEAA@MMM@Z 000000018005891c     mwsurf.obj
 0002:00008924       $unwind$??0?$Vec@M$02@cv@@QEAA@AEBV01@@Z 0000000180058924     mwsurf.obj
 0002:0000892c       $unwind$??4?$Point_@M@cv@@QEAAAEAV01@$$QEAV01@@Z 000000018005892c     mwsurf.obj
 0002:00008934       $unwind$?all@Range@cv@@SA?AV12@XZ 0000000180058934     mwsurf.obj
 0002:0000893c       $unwind$??0KeyPoint@cv@@QEAA@XZ 000000018005893c     mwsurf.obj
 0002:00008944       $unwind$??4KeyPoint@cv@@QEAAAEAV01@AEBV01@@Z 0000000180058944     mwsurf.obj
 0002:0000894c       $unwind$??4KeyPoint@cv@@QEAAAEAV01@$$QEAV01@@Z 000000018005894c     mwsurf.obj
 0002:00008954       $unwind$?deallocate@?$allocator@H@std@@QEAAXQEAH_K@Z 0000000180058954     mwsurf.obj
 0002:0000895c       $unwind$?allocate@?$allocator@H@std@@QEAAPEAH_K@Z 000000018005895c     mwsurf.obj
 0002:00008964       $unwind$??0?$vector@HV?$allocator@H@std@@@std@@QEAA@_KAEBV?$allocator@H@1@@Z 0000000180058964     mwsurf.obj
 0002:0000896c       $unwind$??1?$vector@HV?$allocator@H@std@@@std@@QEAA@XZ 000000018005896c     mwsurf.obj
 0002:00008974       $unwind$?max_size@?$vector@HV?$allocator@H@std@@@std@@QEBA_KXZ 0000000180058974     mwsurf.obj
 0002:0000897c       $unwind$??A?$vector@HV?$allocator@H@std@@@std@@QEAAAEAH_K@Z 000000018005897c     mwsurf.obj
 0002:00008984       $unwind$??A?$vector@HV?$allocator@H@std@@@std@@QEBAAEBH_K@Z 0000000180058984     mwsurf.obj
 0002:0000898c       $unwind$?_Ufill@?$vector@HV?$allocator@H@std@@@std@@AEAAPEAHPEAH_KU_Value_init_tag@2@@Z 000000018005898c     mwsurf.obj
 0002:00008994       $unwind$?_Destroy@?$vector@HV?$allocator@H@std@@@std@@AEAAXPEAH0@Z 0000000180058994     mwsurf.obj
 0002:0000899c       $unwind$?_Buy_raw@?$vector@HV?$allocator@H@std@@@std@@AEAAX_K@Z 000000018005899c     mwsurf.obj
 0002:000089a4       $unwind$?_Buy_nonzero@?$vector@HV?$allocator@H@std@@@std@@AEAAX_K@Z 00000001800589a4     mwsurf.obj
 0002:000089ac       $unwind$?_Tidy@?$vector@HV?$allocator@H@std@@@std@@AEAAXXZ 00000001800589ac     mwsurf.obj
 0002:000089bc       $cppxdata$?_Tidy@?$vector@HV?$allocator@H@std@@@std@@AEAAXXZ 00000001800589bc     mwsurf.obj
 0002:000089c1       $ip2state$?_Tidy@?$vector@HV?$allocator@H@std@@@std@@AEAAXXZ 00000001800589c1     mwsurf.obj
 0002:000089c4       $unwind$?_Xlength@?$vector@HV?$allocator@H@std@@@std@@CAXXZ 00000001800589c4     mwsurf.obj
 0002:000089cc       $unwind$?_Getal@?$vector@HV?$allocator@H@std@@@std@@AEAAAEAV?$allocator@H@2@XZ 00000001800589cc     mwsurf.obj
 0002:000089d4       $unwind$?_Getal@?$vector@HV?$allocator@H@std@@@std@@AEBAAEBV?$allocator@H@2@XZ 00000001800589d4     mwsurf.obj
 0002:000089dc       $unwind$??0?$Point_@H@cv@@QEAA@$$QEAV01@@Z 00000001800589dc     mwsurf.obj
 0002:000089e4       $unwind$??4?$Point_@H@cv@@QEAAAEAV01@$$QEAV01@@Z 00000001800589e4     mwsurf.obj
 0002:000089ec       $unwind$??0_InputArray@cv@@QEAA@XZ 00000001800589ec     mwsurf.obj
 0002:000089f4       $unwind$??0_InputArray@cv@@QEAA@AEBVMat@1@@Z 00000001800589f4     mwsurf.obj
 0002:000089fc       $unwind$??0_InputArray@cv@@QEAA@AEBN@Z 00000001800589fc     mwsurf.obj
 0002:00008a04       $unwind$?getMat@_InputArray@cv@@QEBA?AVMat@2@H@Z 0000000180058a04     mwsurf.obj
 0002:00008a0c       $unwind$?init@_InputArray@cv@@IEAAXHPEBXV?$Size_@H@2@@Z 0000000180058a0c     mwsurf.obj
 0002:00008a14       $unwind$??0_OutputArray@cv@@QEAA@AEAVMat@1@@Z 0000000180058a14     mwsurf.obj
 0002:00008a24       $cppxdata$??0_OutputArray@cv@@QEAA@AEAVMat@1@@Z 0000000180058a24     mwsurf.obj
 0002:00008a2d       $stateUnwindMap$??0_OutputArray@cv@@QEAA@AEAVMat@1@@Z 0000000180058a2d     mwsurf.obj
 0002:00008a33       $ip2state$??0_OutputArray@cv@@QEAA@AEAVMat@1@@Z 0000000180058a33     mwsurf.obj
 0002:00008a3c       $unwind$?dtor$0@?0???0_OutputArray@cv@@QEAA@AEAVMat@1@@Z@4HA 0000000180058a3c     mwsurf.obj
 0002:00008a44       $unwind$??1_OutputArray@cv@@QEAA@XZ 0000000180058a44     mwsurf.obj
 0002:00008a4c       $unwind$?rowRange@Mat@cv@@QEBA?AV12@HH@Z 0000000180058a4c     mwsurf.obj
 0002:00008a54       $unwind$?create@Mat@cv@@QEAAXHHH@Z 0000000180058a54     mwsurf.obj
 0002:00008a5c       $unwind$?elemSize@Mat@cv@@QEBA_KXZ 0000000180058a5c     mwsurf.obj
 0002:00008a64       $unwind$?empty@Mat@cv@@QEBA_NXZ 0000000180058a64     mwsurf.obj
 0002:00008a6c       $unwind$??4Mat@cv@@QEAAAEAV01@$$QEAV01@@Z 0000000180058a6c     mwsurf.obj
 0002:00008a74       $unwind$?deallocate@?$allocator@VMat@cv@@@std@@QEAAXQEAVMat@cv@@_K@Z 0000000180058a74     mwsurf.obj
 0002:00008a7c       $unwind$?allocate@?$allocator@VMat@cv@@@std@@QEAAPEAVMat@cv@@_K@Z 0000000180058a7c     mwsurf.obj
 0002:00008a84       $unwind$??0?$vector@VMat@cv@@V?$allocator@VMat@cv@@@std@@@std@@QEAA@_KAEBV?$allocator@VMat@cv@@@1@@Z 0000000180058a84     mwsurf.obj
 0002:00008a8c       $unwind$??1?$vector@VMat@cv@@V?$allocator@VMat@cv@@@std@@@std@@QEAA@XZ 0000000180058a8c     mwsurf.obj
 0002:00008a94       $unwind$?max_size@?$vector@VMat@cv@@V?$allocator@VMat@cv@@@std@@@std@@QEBA_KXZ 0000000180058a94     mwsurf.obj
 0002:00008a9c       $unwind$??A?$vector@VMat@cv@@V?$allocator@VMat@cv@@@std@@@std@@QEAAAEAVMat@cv@@_K@Z 0000000180058a9c     mwsurf.obj
 0002:00008aa4       $unwind$??A?$vector@VMat@cv@@V?$allocator@VMat@cv@@@std@@@std@@QEBAAEBVMat@cv@@_K@Z 0000000180058aa4     mwsurf.obj
 0002:00008aac       $unwind$?_Ufill@?$vector@VMat@cv@@V?$allocator@VMat@cv@@@std@@@std@@AEAAPEAVMat@cv@@PEAV34@_KU_Value_init_tag@2@@Z 0000000180058aac     mwsurf.obj
 0002:00008ab4       $unwind$?_Destroy@?$vector@VMat@cv@@V?$allocator@VMat@cv@@@std@@@std@@AEAAXPEAVMat@cv@@0@Z 0000000180058ab4     mwsurf.obj
 0002:00008abc       $unwind$?_Buy_raw@?$vector@VMat@cv@@V?$allocator@VMat@cv@@@std@@@std@@AEAAX_K@Z 0000000180058abc     mwsurf.obj
 0002:00008ac4       $unwind$?_Buy_nonzero@?$vector@VMat@cv@@V?$allocator@VMat@cv@@@std@@@std@@AEAAX_K@Z 0000000180058ac4     mwsurf.obj
 0002:00008acc       $unwind$?_Tidy@?$vector@VMat@cv@@V?$allocator@VMat@cv@@@std@@@std@@AEAAXXZ 0000000180058acc     mwsurf.obj
 0002:00008adc       $cppxdata$?_Tidy@?$vector@VMat@cv@@V?$allocator@VMat@cv@@@std@@@std@@AEAAXXZ 0000000180058adc     mwsurf.obj
 0002:00008ae1       $ip2state$?_Tidy@?$vector@VMat@cv@@V?$allocator@VMat@cv@@@std@@@std@@AEAAXXZ 0000000180058ae1     mwsurf.obj
 0002:00008ae4       $unwind$?_Xlength@?$vector@VMat@cv@@V?$allocator@VMat@cv@@@std@@@std@@CAXXZ 0000000180058ae4     mwsurf.obj
 0002:00008aec       $unwind$?_Getal@?$vector@VMat@cv@@V?$allocator@VMat@cv@@@std@@@std@@AEAAAEAV?$allocator@VMat@cv@@@2@XZ 0000000180058aec     mwsurf.obj
 0002:00008af4       $unwind$?_Getal@?$vector@VMat@cv@@V?$allocator@VMat@cv@@@std@@@std@@AEBAAEBV?$allocator@VMat@cv@@@2@XZ 0000000180058af4     mwsurf.obj
 0002:00008afc       $unwind$?resize@?$vector@VKeyPoint@cv@@V?$allocator@VKeyPoint@cv@@@std@@@std@@QEAAX_K@Z 0000000180058afc     mwsurf.obj
 0002:00008b04       $unwind$?clear@?$vector@VKeyPoint@cv@@V?$allocator@VKeyPoint@cv@@@std@@@std@@QEAAXXZ 0000000180058b04     mwsurf.obj
 0002:00008b14       $cppxdata$?clear@?$vector@VKeyPoint@cv@@V?$allocator@VKeyPoint@cv@@@std@@@std@@QEAAXXZ 0000000180058b14     mwsurf.obj
 0002:00008b19       $ip2state$?clear@?$vector@VKeyPoint@cv@@V?$allocator@VKeyPoint@cv@@@std@@@std@@QEAAXXZ 0000000180058b19     mwsurf.obj
 0002:00008b1c       $unwind$?begin@?$vector@VKeyPoint@cv@@V?$allocator@VKeyPoint@cv@@@std@@@std@@QEAA?AV?$_Vector_iterator@V?$_Vector_val@U?$_Simple_types@VKeyPoint@cv@@@std@@@std@@@2@XZ 0000000180058b1c     mwsurf.obj
 0002:00008b24       $unwind$?end@?$vector@VKeyPoint@cv@@V?$allocator@VKeyPoint@cv@@@std@@@std@@QEAA?AV?$_Vector_iterator@V?$_Vector_val@U?$_Simple_types@VKeyPoint@cv@@@std@@@std@@@2@XZ 0000000180058b24     mwsurf.obj
 0002:00008b2c       $unwind$?_Ufill@?$vector@VKeyPoint@cv@@V?$allocator@VKeyPoint@cv@@@std@@@std@@AEAAPEAVKeyPoint@cv@@PEAV34@_KU_Value_init_tag@2@@Z 0000000180058b2c     mwsurf.obj
 0002:00008b34       $unwind$?_Check_C_return@std@@YAHH@Z 0000000180058b34     mwsurf.obj
 0002:00008b3c       $unwind$??0_Mutex_base@std@@QEAA@H@Z 0000000180058b3c     mwsurf.obj
 0002:00008b4c       $cppxdata$??0_Mutex_base@std@@QEAA@H@Z 0000000180058b4c     mwsurf.obj
 0002:00008b51       $ip2state$??0_Mutex_base@std@@QEAA@H@Z 0000000180058b51     mwsurf.obj
 0002:00008b54       $unwind$??1_Mutex_base@std@@QEAA@XZ 0000000180058b54     mwsurf.obj
 0002:00008b64       $cppxdata$??1_Mutex_base@std@@QEAA@XZ 0000000180058b64     mwsurf.obj
 0002:00008b69       $ip2state$??1_Mutex_base@std@@QEAA@XZ 0000000180058b69     mwsurf.obj
 0002:00008b6c       $unwind$?lock@_Mutex_base@std@@QEAAXXZ 0000000180058b6c     mwsurf.obj
 0002:00008b74       $unwind$?unlock@_Mutex_base@std@@QEAAXXZ 0000000180058b74     mwsurf.obj
 0002:00008b7c       $unwind$??0recursive_mutex@std@@QEAA@XZ 0000000180058b7c     mwsurf.obj
 0002:00008b84       $unwind$??1recursive_mutex@std@@QEAA@XZ 0000000180058b84     mwsurf.obj
 0002:00008b8c       $unwind$??_GParallelLoopBody@cv@@UEAAPEAXI@Z 0000000180058b8c     mwsurf.obj
 0002:00008b94       $unwind$??0Feature2D@cv@@QEAA@XZ 0000000180058b94     mwsurf.obj
 0002:00008b9c       $unwind$??_GFeature2D@cv@@UEAAPEAXI@Z 0000000180058b9c     mwsurf.obj
 0002:00008ba4       $unwind$??_DFeature2D@cv@@QEAAXXZ 0000000180058ba4     mwsurf.obj
 0002:00008bac       $unwind$??1MWSURF@cv@@UEAA@XZ 0000000180058bac     mwsurf.obj
 0002:00008bb4       $unwind$??_GMWSURF@cv@@UEAAPEAXI@Z 0000000180058bb4     mwsurf.obj
 0002:00008bbc       $unwind$??_DMWSURF@cv@@QEAAXXZ 0000000180058bbc     mwsurf.obj
 0002:00008bc4       $unwind$?calcHaarPattern@cv@@YAMPEBHPEBUMWSurfHF@1@H@Z 0000000180058bc4     mwsurf.obj
 0002:00008bcc       $unwind$??0?$Matx@M$02$02@cv@@QEAA@MMMMMMMMM@Z 0000000180058bcc     mwsurf.obj
 0002:00008bd4       $unwind$?solve@?$Matx@M$02$02@cv@@QEBA?AV?$Vec@M$02@2@AEBV32@H@Z 0000000180058bd4     mwsurf.obj
 0002:00008be4       $unwind$??$solve@$00@?$Matx@M$02$02@cv@@QEBA?AV?$Matx@M$02$00@1@AEBV21@H@Z 0000000180058be4     mwsurf.obj
 0002:00008bf8       $unwind$??0MWSURFBuildInvoker@cv@@QEAA@AEBVMat@1@AEBV?$vector@HV?$allocator@H@std@@@std@@1AEAV?$vector@VMat@cv@@V?$allocator@VMat@cv@@@std@@@4@2@Z 0000000180058bf8     mwsurf.obj
 0002:00008c00       $unwind$??RMWSURFBuildInvoker@cv@@UEBAXAEBVRange@1@@Z 0000000180058c00     mwsurf.obj
 0002:00008c08       $unwind$??1MWSURFBuildInvoker@cv@@UEAA@XZ 0000000180058c08     mwsurf.obj
 0002:00008c10       $unwind$??_GMWSURFBuildInvoker@cv@@UEAAPEAXI@Z 0000000180058c10     mwsurf.obj
 0002:00008c18       $unwind$??0MWSURFFindInvoker@cv@@QEAA@AEBVMat@1@0AEBV?$vector@VMat@cv@@V?$allocator@VMat@cv@@@std@@@std@@1AEBV?$vector@HV?$allocator@H@std@@@4@22AEAV?$vector@VKeyPoint@cv@@V?$allocator@VKeyPoint@cv@@@std@@@4@HM@Z 0000000180058c18     mwsurf.obj
 0002:00008c20       $unwind$??RMWSURFFindInvoker@cv@@UEBAXAEBVRange@1@@Z 0000000180058c20     mwsurf.obj
 0002:00008c28       $unwind$??1MWSURFFindInvoker@cv@@UEAA@XZ 0000000180058c28     mwsurf.obj
 0002:00008c30       $unwind$??_GMWSURFFindInvoker@cv@@UEAAPEAXI@Z 0000000180058c30     mwsurf.obj
 0002:00008c38       $unwind$??__E?findMaximaInLayer_m@MWSURFFindInvoker@cv@@2Vrecursive_mutex@std@@A@@YAXXZ 0000000180058c38     mwsurf.obj
 0002:00008c40       $unwind$??__F?findMaximaInLayer_m@MWSURFFindInvoker@cv@@2Vrecursive_mutex@std@@A@@YAXXZ 0000000180058c40     mwsurf.obj
 0002:00008c48       $unwind$??0?$lock_guard@Vrecursive_mutex@std@@@std@@QEAA@AEAVrecursive_mutex@1@@Z 0000000180058c48     mwsurf.obj
 0002:00008c50       $unwind$??1?$lock_guard@Vrecursive_mutex@std@@@std@@QEAA@XZ 0000000180058c50     mwsurf.obj
 0002:00008c60       $cppxdata$??1?$lock_guard@Vrecursive_mutex@std@@@std@@QEAA@XZ 0000000180058c60     mwsurf.obj
 0002:00008c65       $ip2state$??1?$lock_guard@Vrecursive_mutex@std@@@std@@QEAA@XZ 0000000180058c65     mwsurf.obj
 0002:00008c68       $unwind$??RKeypointGreater@cv@@QEBA_NAEBVKeyPoint@1@0@Z 0000000180058c68     mwsurf.obj
 0002:00008c70       $unwind$??0?$_Vector_const_iterator@V?$_Vector_val@U?$_Simple_types@VKeyPoint@cv@@@std@@@std@@@std@@QEAA@PEAVKeyPoint@cv@@PEBU_Container_base0@1@@Z 0000000180058c70     mwsurf.obj
 0002:00008c78       $unwind$?_Unwrapped@?$_Vector_iterator@V?$_Vector_val@U?$_Simple_types@VKeyPoint@cv@@@std@@@std@@@std@@QEBAPEAVKeyPoint@cv@@XZ 0000000180058c78     mwsurf.obj
 0002:00008c80       $unwind$??0?$_Vector_iterator@V?$_Vector_val@U?$_Simple_types@VKeyPoint@cv@@@std@@@std@@@std@@QEAA@PEAVKeyPoint@cv@@PEBU_Container_base0@1@@Z 0000000180058c80     mwsurf.obj
 0002:00008c88       $unwind$??$sort@V?$_Vector_iterator@V?$_Vector_val@U?$_Simple_types@VKeyPoint@cv@@@std@@@std@@@std@@UKeypointGreater@cv@@@std@@YAXV?$_Vector_iterator@V?$_Vector_val@U?$_Simple_types@VKeyPoint@cv@@@std@@@std@@@0@0UKeypointGreater@cv@@@Z 0000000180058c88     mwsurf.obj
 0002:00008c90       $unwind$??0MWSURFInvoker@cv@@QEAA@AEBVMat@1@0AEAV?$vector@VKeyPoint@cv@@V?$allocator@VKeyPoint@cv@@@std@@@std@@AEAV21@_N3@Z 0000000180058c90     mwsurf.obj
 0002:00008ca4       $cppxdata$??0MWSURFInvoker@cv@@QEAA@AEBVMat@1@0AEAV?$vector@VKeyPoint@cv@@V?$allocator@VKeyPoint@cv@@@std@@@std@@AEAV21@_N3@Z 0000000180058ca4     mwsurf.obj
 0002:00008cad       $stateUnwindMap$??0MWSURFInvoker@cv@@QEAA@AEBVMat@1@0AEAV?$vector@VKeyPoint@cv@@V?$allocator@VKeyPoint@cv@@@std@@@std@@AEAV21@_N3@Z 0000000180058cad     mwsurf.obj
 0002:00008cd1       $ip2state$??0MWSURFInvoker@cv@@QEAA@AEBVMat@1@0AEAV?$vector@VKeyPoint@cv@@V?$allocator@VKeyPoint@cv@@@std@@@std@@AEAV21@_N3@Z 0000000180058cd1     mwsurf.obj
 0002:00008cf0       $unwind$?dtor$0@?0???0MWSURFInvoker@cv@@QEAA@AEBVMat@1@0AEAV?$vector@VKeyPoint@cv@@V?$allocator@VKeyPoint@cv@@@std@@@std@@AEAV21@_N3@Z@4HA 0000000180058cf0     mwsurf.obj
 0002:00008cf8       $unwind$?dtor$1@?0???0MWSURFInvoker@cv@@QEAA@AEBVMat@1@0AEAV?$vector@VKeyPoint@cv@@V?$allocator@VKeyPoint@cv@@@std@@@std@@AEAV21@_N3@Z@4HA 0000000180058cf8     mwsurf.obj
 0002:00008d00       $unwind$?dtor$2@?0???0MWSURFInvoker@cv@@QEAA@AEBVMat@1@0AEAV?$vector@VKeyPoint@cv@@V?$allocator@VKeyPoint@cv@@@std@@@std@@AEAV21@_N3@Z@4HA 0000000180058d00     mwsurf.obj
 0002:00008d08       $unwind$?dtor$3@?0???0MWSURFInvoker@cv@@QEAA@AEBVMat@1@0AEAV?$vector@VKeyPoint@cv@@V?$allocator@VKeyPoint@cv@@@std@@@std@@AEAV21@_N3@Z@4HA 0000000180058d08     mwsurf.obj
 0002:00008d10       $unwind$?dtor$4@?0???0MWSURFInvoker@cv@@QEAA@AEBVMat@1@0AEAV?$vector@VKeyPoint@cv@@V?$allocator@VKeyPoint@cv@@@std@@@std@@AEAV21@_N3@Z@4HA 0000000180058d10     mwsurf.obj
 0002:00008d18       $unwind$?dtor$5@?0???0MWSURFInvoker@cv@@QEAA@AEBVMat@1@0AEAV?$vector@VKeyPoint@cv@@V?$allocator@VKeyPoint@cv@@@std@@@std@@AEAV21@_N3@Z@4HA 0000000180058d18     mwsurf.obj
 0002:00008d20       $unwind$?dtor$6@?0???0MWSURFInvoker@cv@@QEAA@AEBVMat@1@0AEAV?$vector@VKeyPoint@cv@@V?$allocator@VKeyPoint@cv@@@std@@@std@@AEAV21@_N3@Z@4HA 0000000180058d20     mwsurf.obj
 0002:00008d28       $unwind$??RMWSURFInvoker@cv@@UEBAXAEBVRange@1@@Z 0000000180058d28     mwsurf.obj
 0002:00008d40       $cppxdata$??RMWSURFInvoker@cv@@UEBAXAEBVRange@1@@Z 0000000180058d40     mwsurf.obj
 0002:00008d49       $stateUnwindMap$??RMWSURFInvoker@cv@@UEBAXAEBVRange@1@@Z 0000000180058d49     mwsurf.obj
 0002:00008d68       $ip2state$??RMWSURFInvoker@cv@@UEBAXAEBVRange@1@@Z 0000000180058d68     mwsurf.obj
 0002:00008d88       $unwind$?dtor$0@?0???RMWSURFInvoker@cv@@UEBAXAEBVRange@1@@Z@4HA 0000000180058d88     mwsurf.obj
 0002:00008d90       $unwind$?dtor$1@?0???RMWSURFInvoker@cv@@UEBAXAEBVRange@1@@Z@4HA 0000000180058d90     mwsurf.obj
 0002:00008d98       $unwind$?dtor$2@?0???RMWSURFInvoker@cv@@UEBAXAEBVRange@1@@Z@4HA 0000000180058d98     mwsurf.obj
 0002:00008da0       $unwind$?dtor$3@?0???RMWSURFInvoker@cv@@UEBAXAEBVRange@1@@Z@4HA 0000000180058da0     mwsurf.obj
 0002:00008da8       $unwind$?dtor$4@?0???RMWSURFInvoker@cv@@UEBAXAEBVRange@1@@Z@4HA 0000000180058da8     mwsurf.obj
 0002:00008db0       $unwind$?dtor$5@?0???RMWSURFInvoker@cv@@UEBAXAEBVRange@1@@Z@4HA 0000000180058db0     mwsurf.obj
 0002:00008db8       $unwind$?deallocate@?$allocator@V?$Point_@H@cv@@@std@@QEAAXQEAV?$Point_@H@cv@@_K@Z 0000000180058db8     mwsurf.obj
 0002:00008dc0       $unwind$?allocate@?$allocator@V?$Point_@H@cv@@@std@@QEAAPEAV?$Point_@H@cv@@_K@Z 0000000180058dc0     mwsurf.obj
 0002:00008dc8       $unwind$??0?$vector@V?$Point_@H@cv@@V?$allocator@V?$Point_@H@cv@@@std@@@std@@QEAA@XZ 0000000180058dc8     mwsurf.obj
 0002:00008dd0       $unwind$??1?$vector@V?$Point_@H@cv@@V?$allocator@V?$Point_@H@cv@@@std@@@std@@QEAA@XZ 0000000180058dd0     mwsurf.obj
 0002:00008dd8       $unwind$?resize@?$vector@V?$Point_@H@cv@@V?$allocator@V?$Point_@H@cv@@@std@@@std@@QEAAX_K@Z 0000000180058dd8     mwsurf.obj
 0002:00008de0       $unwind$?max_size@?$vector@V?$Point_@H@cv@@V?$allocator@V?$Point_@H@cv@@@std@@@std@@QEBA_KXZ 0000000180058de0     mwsurf.obj
 0002:00008de8       $unwind$?capacity@?$vector@V?$Point_@H@cv@@V?$allocator@V?$Point_@H@cv@@@std@@@std@@QEBA_KXZ 0000000180058de8     mwsurf.obj
 0002:00008df0       $unwind$??A?$vector@V?$Point_@H@cv@@V?$allocator@V?$Point_@H@cv@@@std@@@std@@QEAAAEAV?$Point_@H@cv@@_K@Z 0000000180058df0     mwsurf.obj
 0002:00008df8       $unwind$??A?$vector@V?$Point_@H@cv@@V?$allocator@V?$Point_@H@cv@@@std@@@std@@QEBAAEBV?$Point_@H@cv@@_K@Z 0000000180058df8     mwsurf.obj
 0002:00008e00       $unwind$?_Ufill@?$vector@V?$Point_@H@cv@@V?$allocator@V?$Point_@H@cv@@@std@@@std@@AEAAPEAV?$Point_@H@cv@@PEAV34@_KU_Value_init_tag@2@@Z 0000000180058e00     mwsurf.obj
 0002:00008e08       $unwind$?_Umove_if_noexcept1@?$vector@V?$Point_@H@cv@@V?$allocator@V?$Point_@H@cv@@@std@@@std@@AEAAXPEAV?$Point_@H@cv@@00U?$integral_constant@_N$00@2@@Z 0000000180058e08     mwsurf.obj
 0002:00008e10       $unwind$?_Umove_if_noexcept@?$vector@V?$Point_@H@cv@@V?$allocator@V?$Point_@H@cv@@@std@@@std@@AEAAXPEAV?$Point_@H@cv@@00@Z 0000000180058e10     mwsurf.obj
 0002:00008e18       $unwind$?_Destroy@?$vector@V?$Point_@H@cv@@V?$allocator@V?$Point_@H@cv@@@std@@@std@@AEAAXPEAV?$Point_@H@cv@@0@Z 0000000180058e18     mwsurf.obj
 0002:00008e20       $unwind$?_Calculate_growth@?$vector@V?$Point_@H@cv@@V?$allocator@V?$Point_@H@cv@@@std@@@std@@AEBA_K_K@Z 0000000180058e20     mwsurf.obj
 0002:00008e28       $unwind$?_Change_array@?$vector@V?$Point_@H@cv@@V?$allocator@V?$Point_@H@cv@@@std@@@std@@AEAAXQEAV?$Point_@H@cv@@_K1@Z 0000000180058e28     mwsurf.obj
 0002:00008e30       $unwind$?_Tidy@?$vector@V?$Point_@H@cv@@V?$allocator@V?$Point_@H@cv@@@std@@@std@@AEAAXXZ 0000000180058e30     mwsurf.obj
 0002:00008e40       $cppxdata$?_Tidy@?$vector@V?$Point_@H@cv@@V?$allocator@V?$Point_@H@cv@@@std@@@std@@AEAAXXZ 0000000180058e40     mwsurf.obj
 0002:00008e45       $ip2state$?_Tidy@?$vector@V?$Point_@H@cv@@V?$allocator@V?$Point_@H@cv@@@std@@@std@@AEAAXXZ 0000000180058e45     mwsurf.obj
 0002:00008e48       $unwind$?_Xlength@?$vector@V?$Point_@H@cv@@V?$allocator@V?$Point_@H@cv@@@std@@@std@@CAXXZ 0000000180058e48     mwsurf.obj
 0002:00008e50       $unwind$?_Getal@?$vector@V?$Point_@H@cv@@V?$allocator@V?$Point_@H@cv@@@std@@@std@@AEAAAEAV?$allocator@V?$Point_@H@cv@@@2@XZ 0000000180058e50     mwsurf.obj
 0002:00008e58       $unwind$?_Getal@?$vector@V?$Point_@H@cv@@V?$allocator@V?$Point_@H@cv@@@std@@@std@@AEBAAEBV?$allocator@V?$Point_@H@cv@@@2@XZ 0000000180058e58     mwsurf.obj
 0002:00008e60       $unwind$?deallocate@?$allocator@M@std@@QEAAXQEAM_K@Z 0000000180058e60     mwsurf.obj
 0002:00008e68       $unwind$?allocate@?$allocator@M@std@@QEAAPEAM_K@Z 0000000180058e68     mwsurf.obj
 0002:00008e70       $unwind$??0?$vector@MV?$allocator@M@std@@@std@@QEAA@XZ 0000000180058e70     mwsurf.obj
 0002:00008e78       $unwind$??1?$vector@MV?$allocator@M@std@@@std@@QEAA@XZ 0000000180058e78     mwsurf.obj
 0002:00008e80       $unwind$?resize@?$vector@MV?$allocator@M@std@@@std@@QEAAX_K@Z 0000000180058e80     mwsurf.obj
 0002:00008e88       $unwind$?max_size@?$vector@MV?$allocator@M@std@@@std@@QEBA_KXZ 0000000180058e88     mwsurf.obj
 0002:00008e90       $unwind$?capacity@?$vector@MV?$allocator@M@std@@@std@@QEBA_KXZ 0000000180058e90     mwsurf.obj
 0002:00008e98       $unwind$??A?$vector@MV?$allocator@M@std@@@std@@QEAAAEAM_K@Z 0000000180058e98     mwsurf.obj
 0002:00008ea0       $unwind$??A?$vector@MV?$allocator@M@std@@@std@@QEBAAEBM_K@Z 0000000180058ea0     mwsurf.obj
 0002:00008ea8       $unwind$?_Ufill@?$vector@MV?$allocator@M@std@@@std@@AEAAPEAMPEAM_KU_Value_init_tag@2@@Z 0000000180058ea8     mwsurf.obj
 0002:00008eb0       $unwind$?_Umove_if_noexcept1@?$vector@MV?$allocator@M@std@@@std@@AEAAXPEAM00U?$integral_constant@_N$00@2@@Z 0000000180058eb0     mwsurf.obj
 0002:00008eb8       $unwind$?_Umove_if_noexcept@?$vector@MV?$allocator@M@std@@@std@@AEAAXPEAM00@Z 0000000180058eb8     mwsurf.obj
 0002:00008ec0       $unwind$?_Destroy@?$vector@MV?$allocator@M@std@@@std@@AEAAXPEAM0@Z 0000000180058ec0     mwsurf.obj
 0002:00008ec8       $unwind$?_Calculate_growth@?$vector@MV?$allocator@M@std@@@std@@AEBA_K_K@Z 0000000180058ec8     mwsurf.obj
 0002:00008ed0       $unwind$?_Change_array@?$vector@MV?$allocator@M@std@@@std@@AEAAXQEAM_K1@Z 0000000180058ed0     mwsurf.obj
 0002:00008ed8       $unwind$?_Tidy@?$vector@MV?$allocator@M@std@@@std@@AEAAXXZ 0000000180058ed8     mwsurf.obj
 0002:00008ee8       $cppxdata$?_Tidy@?$vector@MV?$allocator@M@std@@@std@@AEAAXXZ 0000000180058ee8     mwsurf.obj
 0002:00008eed       $ip2state$?_Tidy@?$vector@MV?$allocator@M@std@@@std@@AEAAXXZ 0000000180058eed     mwsurf.obj
 0002:00008ef0       $unwind$?_Xlength@?$vector@MV?$allocator@M@std@@@std@@CAXXZ 0000000180058ef0     mwsurf.obj
 0002:00008ef8       $unwind$?_Getal@?$vector@MV?$allocator@M@std@@@std@@AEAAAEAV?$allocator@M@2@XZ 0000000180058ef8     mwsurf.obj
 0002:00008f00       $unwind$?_Getal@?$vector@MV?$allocator@M@std@@@std@@AEBAAEBV?$allocator@M@2@XZ 0000000180058f00     mwsurf.obj
 0002:00008f08       $unwind$??1MWSURFInvoker@cv@@UEAA@XZ 0000000180058f08     mwsurf.obj
 0002:00008f10       $unwind$??_GMWSURFInvoker@cv@@UEAAPEAXI@Z 0000000180058f10     mwsurf.obj
 0002:00008f18       $unwind$??$?BH@CvPoint@@QEBA?AV?$Point_@H@cv@@XZ 0000000180058f18     mwsurf.obj
 0002:00008f20       $unwind$??$max@M@std@@YAAEBMAEBM0@Z 0000000180058f20     mwsurf.obj
 0002:00008f28       $unwind$?_Decref@?$_Ptr_base@UCvMat@@@std@@IEAAXXZ 0000000180058f28     mwsurf.obj
 0002:00008f30       $unwind$??1?$shared_ptr@UCvMat@@@std@@QEAA@XZ 0000000180058f30     mwsurf.obj
 0002:00008f38       $unwind$??C?$Ptr@UCvMat@@@cv@@QEBAPEAUCvMat@@XZ 0000000180058f38     mwsurf.obj
 0002:00008f40       $unwind$??1?$Ptr@UCvMat@@@cv@@QEAA@XZ 0000000180058f40     mwsurf.obj
 0002:00008f48       $unwind$??$?0UCvMat@@@?$Ptr@UCvMat@@@cv@@QEAA@PEAUCvMat@@@Z 0000000180058f48     mwsurf.obj
 0002:00008f50       $unwind$??$_Resize@U_Value_init_tag@std@@@?$vector@MV?$allocator@M@std@@@std@@AEAAX_KAEBU_Value_init_tag@1@@Z 0000000180058f50     mwsurf.obj
 0002:00008f58       $unwind$??$?0$$V@?$_Compressed_pair@V?$allocator@M@std@@V?$_Vector_val@U?$_Simple_types@M@std@@@2@$00@std@@QEAA@U_Zero_then_variadic_args_t@1@@Z 0000000180058f58     mwsurf.obj
 0002:00008f60       $unwind$??$_Resize@U_Value_init_tag@std@@@?$vector@V?$Point_@H@cv@@V?$allocator@V?$Point_@H@cv@@@std@@@std@@AEAAX_KAEBU_Value_init_tag@1@@Z 0000000180058f60     mwsurf.obj
 0002:00008f68       $unwind$??$?0$$V@?$_Compressed_pair@V?$allocator@V?$Point_@H@cv@@@std@@V?$_Vector_val@U?$_Simple_types@V?$Point_@H@cv@@@std@@@2@$00@std@@QEAA@U_Zero_then_variadic_args_t@1@@Z 0000000180058f68     mwsurf.obj
 0002:00008f70       $unwind$??$_Resize@U_Value_init_tag@std@@@?$vector@VKeyPoint@cv@@V?$allocator@VKeyPoint@cv@@@std@@@std@@AEAAX_KAEBU_Value_init_tag@1@@Z 0000000180058f70     mwsurf.obj
 0002:00008f78       $unwind$??$?0AEBV?$allocator@VMat@cv@@@std@@$$V@?$_Compressed_pair@V?$allocator@VMat@cv@@@std@@V?$_Vector_val@U?$_Simple_types@VMat@cv@@@std@@@2@$00@std@@QEAA@U_One_then_variadic_args_t@1@AEBV?$allocator@VMat@cv@@@1@@Z 0000000180058f78     mwsurf.obj
 0002:00008f80       $unwind$??$_Construct_n_copies_of_ty@U_Value_init_tag@std@@@?$vector@VMat@cv@@V?$allocator@VMat@cv@@@std@@@std@@AEAAX_KAEBU_Value_init_tag@1@@Z 0000000180058f80     mwsurf.obj
 0002:00008f90       $cppxdata$??$_Construct_n_copies_of_ty@U_Value_init_tag@std@@@?$vector@VMat@cv@@V?$allocator@VMat@cv@@@std@@@std@@AEAAX_KAEBU_Value_init_tag@1@@Z 0000000180058f90     mwsurf.obj
 0002:00008f99       $stateUnwindMap$??$_Construct_n_copies_of_ty@U_Value_init_tag@std@@@?$vector@VMat@cv@@V?$allocator@VMat@cv@@@std@@@std@@AEAAX_KAEBU_Value_init_tag@1@@Z 0000000180058f99     mwsurf.obj
 0002:00008f9f       $ip2state$??$_Construct_n_copies_of_ty@U_Value_init_tag@std@@@?$vector@VMat@cv@@V?$allocator@VMat@cv@@@std@@@std@@AEAAX_KAEBU_Value_init_tag@1@@Z 0000000180058f9f     mwsurf.obj
 0002:00008fa8       $unwind$?dtor$0@?0???$_Construct_n_copies_of_ty@U_Value_init_tag@std@@@?$vector@VMat@cv@@V?$allocator@VMat@cv@@@std@@@std@@AEAAX_KAEBU_Value_init_tag@1@@Z@4HA 0000000180058fa8     mwsurf.obj
 0002:00008fb0       $unwind$??$?0AEBV?$allocator@H@std@@$$V@?$_Compressed_pair@V?$allocator@H@std@@V?$_Vector_val@U?$_Simple_types@H@std@@@2@$00@std@@QEAA@U_One_then_variadic_args_t@1@AEBV?$allocator@H@1@@Z 0000000180058fb0     mwsurf.obj
 0002:00008fb8       $unwind$??$_Construct_n_copies_of_ty@U_Value_init_tag@std@@@?$vector@HV?$allocator@H@std@@@std@@AEAAX_KAEBU_Value_init_tag@1@@Z 0000000180058fb8     mwsurf.obj
 0002:00008fc8       $cppxdata$??$_Construct_n_copies_of_ty@U_Value_init_tag@std@@@?$vector@HV?$allocator@H@std@@@std@@AEAAX_KAEBU_Value_init_tag@1@@Z 0000000180058fc8     mwsurf.obj
 0002:00008fd1       $stateUnwindMap$??$_Construct_n_copies_of_ty@U_Value_init_tag@std@@@?$vector@HV?$allocator@H@std@@@std@@AEAAX_KAEBU_Value_init_tag@1@@Z 0000000180058fd1     mwsurf.obj
 0002:00008fd7       $ip2state$??$_Construct_n_copies_of_ty@U_Value_init_tag@std@@@?$vector@HV?$allocator@H@std@@@std@@AEAAX_KAEBU_Value_init_tag@1@@Z 0000000180058fd7     mwsurf.obj
 0002:00008fe0       $unwind$?dtor$0@?0???$_Construct_n_copies_of_ty@U_Value_init_tag@std@@@?$vector@HV?$allocator@H@std@@@std@@AEAAX_KAEBU_Value_init_tag@1@@Z@4HA 0000000180058fe0     mwsurf.obj
 0002:00008fe8       $unwind$??$_Destroy_range@V?$allocator@VMat@cv@@@std@@@std@@YAXPEAVMat@cv@@QEAV12@AEAV?$allocator@VMat@cv@@@0@@Z 0000000180058fe8     mwsurf.obj
 0002:00008ff8       $cppxdata$??$_Destroy_range@V?$allocator@VMat@cv@@@std@@@std@@YAXPEAVMat@cv@@QEAV12@AEAV?$allocator@VMat@cv@@@0@@Z 0000000180058ff8     mwsurf.obj
 0002:00008ffd       $ip2state$??$_Destroy_range@V?$allocator@VMat@cv@@@std@@@std@@YAXPEAVMat@cv@@QEAV12@AEAV?$allocator@VMat@cv@@@0@@Z 0000000180058ffd     mwsurf.obj
 0002:00009000       $unwind$??$_Get_unwrapped@AEBV?$_Vector_iterator@V?$_Vector_val@U?$_Simple_types@VKeyPoint@cv@@@std@@@std@@@std@@@std@@YAPEAVKeyPoint@cv@@AEBV?$_Vector_iterator@V?$_Vector_val@U?$_Simple_types@VKeyPoint@cv@@@std@@@std@@@0@@Z 0000000180059000     mwsurf.obj
 0002:00009008       $unwind$??$_Sort_unchecked@PEAVKeyPoint@cv@@UKeypointGreater@2@@std@@YAXPEAVKeyPoint@cv@@0_JUKeypointGreater@2@@Z 0000000180059008     mwsurf.obj
 0002:00009010       $unwind$??$?0UCvMat@@@?$Ptr@UCvMat@@@cv@@QEAA@AEBU?$integral_constant@_N$00@std@@PEAUCvMat@@@Z 0000000180059010     mwsurf.obj
 0002:00009018       $unwind$??$_Resize_reallocate@U_Value_init_tag@std@@@?$vector@MV?$allocator@M@std@@@std@@AEAAX_KAEBU_Value_init_tag@1@@Z 0000000180059018     mwsurf.obj
 0002:00009028       $cppxdata$??$_Resize_reallocate@U_Value_init_tag@std@@@?$vector@MV?$allocator@M@std@@@std@@AEAAX_KAEBU_Value_init_tag@1@@Z 0000000180059028     mwsurf.obj
 0002:00009035       $stateUnwindMap$??$_Resize_reallocate@U_Value_init_tag@std@@@?$vector@MV?$allocator@M@std@@@std@@AEAAX_KAEBU_Value_init_tag@1@@Z 0000000180059035     mwsurf.obj
 0002:00009038       $tryMap$??$_Resize_reallocate@U_Value_init_tag@std@@@?$vector@MV?$allocator@M@std@@@std@@AEAAX_KAEBU_Value_init_tag@1@@Z 0000000180059038     mwsurf.obj
 0002:00009040       $handlerMap$??$_Resize_reallocate@U_Value_init_tag@std@@@?$vector@MV?$allocator@M@std@@@std@@AEAAX_KAEBU_Value_init_tag@1@@Z 0000000180059040     mwsurf.obj
 0002:00009047       $ip2state$??$_Resize_reallocate@U_Value_init_tag@std@@@?$vector@MV?$allocator@M@std@@@std@@AEAAX_KAEBU_Value_init_tag@1@@Z 0000000180059047     mwsurf.obj
 0002:00009050       $unwind$?catch$0@?0???$_Resize_reallocate@U_Value_init_tag@std@@@?$vector@MV?$allocator@M@std@@@std@@AEAAX_KAEBU_Value_init_tag@1@@Z@4HA 0000000180059050     mwsurf.obj
 0002:00009058       $unwind$??$_Resize_reallocate@U_Value_init_tag@std@@@?$vector@V?$Point_@H@cv@@V?$allocator@V?$Point_@H@cv@@@std@@@std@@AEAAX_KAEBU_Value_init_tag@1@@Z 0000000180059058     mwsurf.obj
 0002:00009068       $cppxdata$??$_Resize_reallocate@U_Value_init_tag@std@@@?$vector@V?$Point_@H@cv@@V?$allocator@V?$Point_@H@cv@@@std@@@std@@AEAAX_KAEBU_Value_init_tag@1@@Z 0000000180059068     mwsurf.obj
 0002:00009075       $stateUnwindMap$??$_Resize_reallocate@U_Value_init_tag@std@@@?$vector@V?$Point_@H@cv@@V?$allocator@V?$Point_@H@cv@@@std@@@std@@AEAAX_KAEBU_Value_init_tag@1@@Z 0000000180059075     mwsurf.obj
 0002:00009078       $tryMap$??$_Resize_reallocate@U_Value_init_tag@std@@@?$vector@V?$Point_@H@cv@@V?$allocator@V?$Point_@H@cv@@@std@@@std@@AEAAX_KAEBU_Value_init_tag@1@@Z 0000000180059078     mwsurf.obj
 0002:00009080       $handlerMap$??$_Resize_reallocate@U_Value_init_tag@std@@@?$vector@V?$Point_@H@cv@@V?$allocator@V?$Point_@H@cv@@@std@@@std@@AEAAX_KAEBU_Value_init_tag@1@@Z 0000000180059080     mwsurf.obj
 0002:00009087       $ip2state$??$_Resize_reallocate@U_Value_init_tag@std@@@?$vector@V?$Point_@H@cv@@V?$allocator@V?$Point_@H@cv@@@std@@@std@@AEAAX_KAEBU_Value_init_tag@1@@Z 0000000180059087     mwsurf.obj
 0002:00009090       $unwind$?catch$0@?0???$_Resize_reallocate@U_Value_init_tag@std@@@?$vector@V?$Point_@H@cv@@V?$allocator@V?$Point_@H@cv@@@std@@@std@@AEAAX_KAEBU_Value_init_tag@1@@Z@4HA 0000000180059090     mwsurf.obj
 0002:00009098       $unwind$??$_Resize_reallocate@U_Value_init_tag@std@@@?$vector@VKeyPoint@cv@@V?$allocator@VKeyPoint@cv@@@std@@@std@@AEAAX_KAEBU_Value_init_tag@1@@Z 0000000180059098     mwsurf.obj
 0002:000090a8       $cppxdata$??$_Resize_reallocate@U_Value_init_tag@std@@@?$vector@VKeyPoint@cv@@V?$allocator@VKeyPoint@cv@@@std@@@std@@AEAAX_KAEBU_Value_init_tag@1@@Z 00000001800590a8     mwsurf.obj
 0002:000090b5       $stateUnwindMap$??$_Resize_reallocate@U_Value_init_tag@std@@@?$vector@VKeyPoint@cv@@V?$allocator@VKeyPoint@cv@@@std@@@std@@AEAAX_KAEBU_Value_init_tag@1@@Z 00000001800590b5     mwsurf.obj
 0002:000090b8       $tryMap$??$_Resize_reallocate@U_Value_init_tag@std@@@?$vector@VKeyPoint@cv@@V?$allocator@VKeyPoint@cv@@@std@@@std@@AEAAX_KAEBU_Value_init_tag@1@@Z 00000001800590b8     mwsurf.obj
 0002:000090c0       $handlerMap$??$_Resize_reallocate@U_Value_init_tag@std@@@?$vector@VKeyPoint@cv@@V?$allocator@VKeyPoint@cv@@@std@@@std@@AEAAX_KAEBU_Value_init_tag@1@@Z 00000001800590c0     mwsurf.obj
 0002:000090c7       $ip2state$??$_Resize_reallocate@U_Value_init_tag@std@@@?$vector@VKeyPoint@cv@@V?$allocator@VKeyPoint@cv@@@std@@@std@@AEAAX_KAEBU_Value_init_tag@1@@Z 00000001800590c7     mwsurf.obj
 0002:000090d0       $unwind$?catch$0@?0???$_Resize_reallocate@U_Value_init_tag@std@@@?$vector@VKeyPoint@cv@@V?$allocator@VKeyPoint@cv@@@std@@@std@@AEAAX_KAEBU_Value_init_tag@1@@Z@4HA 00000001800590d0     mwsurf.obj
 0002:000090d8       $unwind$??1?$_Tidy_guard@V?$vector@VMat@cv@@V?$allocator@VMat@cv@@@std@@@std@@@std@@QEAA@XZ 00000001800590d8     mwsurf.obj
 0002:000090e0       $unwind$??1?$_Tidy_guard@V?$vector@HV?$allocator@H@std@@@std@@@std@@QEAA@XZ 00000001800590e0     mwsurf.obj
 0002:000090e8       $unwind$??$destroy@VMat@cv@@@?$_Default_allocator_traits@V?$allocator@VMat@cv@@@std@@@std@@SAXAEAV?$allocator@VMat@cv@@@1@QEAVMat@cv@@@Z 00000001800590e8     mwsurf.obj
 0002:000090f0       $unwind$??$_Uninitialized_value_construct_n@V?$allocator@M@std@@@std@@YAPEAMPEAM_KAEAV?$allocator@M@0@@Z 00000001800590f0     mwsurf.obj
 0002:000090f8       $unwind$??$_Uninitialized_value_construct_n@V?$allocator@V?$Point_@H@cv@@@std@@@std@@YAPEAV?$Point_@H@cv@@PEAV12@_KAEAV?$allocator@V?$Point_@H@cv@@@0@@Z 00000001800590f8     mwsurf.obj
 0002:00009108       $cppxdata$??$_Uninitialized_value_construct_n@V?$allocator@V?$Point_@H@cv@@@std@@@std@@YAPEAV?$Point_@H@cv@@PEAV12@_KAEAV?$allocator@V?$Point_@H@cv@@@0@@Z 0000000180059108     mwsurf.obj
 0002:00009111       $stateUnwindMap$??$_Uninitialized_value_construct_n@V?$allocator@V?$Point_@H@cv@@@std@@@std@@YAPEAV?$Point_@H@cv@@PEAV12@_KAEAV?$allocator@V?$Point_@H@cv@@@0@@Z 0000000180059111     mwsurf.obj
 0002:00009117       $ip2state$??$_Uninitialized_value_construct_n@V?$allocator@V?$Point_@H@cv@@@std@@@std@@YAPEAV?$Point_@H@cv@@PEAV12@_KAEAV?$allocator@V?$Point_@H@cv@@@0@@Z 0000000180059117     mwsurf.obj
 0002:00009120       $unwind$?dtor$0@?0???$_Uninitialized_value_construct_n@V?$allocator@V?$Point_@H@cv@@@std@@@std@@YAPEAV?$Point_@H@cv@@PEAV12@_KAEAV?$allocator@V?$Point_@H@cv@@@0@@Z@4HA 0000000180059120     mwsurf.obj
 0002:00009128       $unwind$??$_Uninitialized_value_construct_n@V?$allocator@VKeyPoint@cv@@@std@@@std@@YAPEAVKeyPoint@cv@@PEAV12@_KAEAV?$allocator@VKeyPoint@cv@@@0@@Z 0000000180059128     mwsurf.obj
 0002:00009138       $cppxdata$??$_Uninitialized_value_construct_n@V?$allocator@VKeyPoint@cv@@@std@@@std@@YAPEAVKeyPoint@cv@@PEAV12@_KAEAV?$allocator@VKeyPoint@cv@@@0@@Z 0000000180059138     mwsurf.obj
 0002:00009141       $stateUnwindMap$??$_Uninitialized_value_construct_n@V?$allocator@VKeyPoint@cv@@@std@@@std@@YAPEAVKeyPoint@cv@@PEAV12@_KAEAV?$allocator@VKeyPoint@cv@@@0@@Z 0000000180059141     mwsurf.obj
 0002:00009147       $ip2state$??$_Uninitialized_value_construct_n@V?$allocator@VKeyPoint@cv@@@std@@@std@@YAPEAVKeyPoint@cv@@PEAV12@_KAEAV?$allocator@VKeyPoint@cv@@@0@@Z 0000000180059147     mwsurf.obj
 0002:00009150       $unwind$?dtor$0@?0???$_Uninitialized_value_construct_n@V?$allocator@VKeyPoint@cv@@@std@@@std@@YAPEAVKeyPoint@cv@@PEAV12@_KAEAV?$allocator@VKeyPoint@cv@@@0@@Z@4HA 0000000180059150     mwsurf.obj
 0002:00009158       $unwind$??$_Uninitialized_value_construct_n@V?$allocator@VMat@cv@@@std@@@std@@YAPEAVMat@cv@@PEAV12@_KAEAV?$allocator@VMat@cv@@@0@@Z 0000000180059158     mwsurf.obj
 0002:00009168       $cppxdata$??$_Uninitialized_value_construct_n@V?$allocator@VMat@cv@@@std@@@std@@YAPEAVMat@cv@@PEAV12@_KAEAV?$allocator@VMat@cv@@@0@@Z 0000000180059168     mwsurf.obj
 0002:00009171       $stateUnwindMap$??$_Uninitialized_value_construct_n@V?$allocator@VMat@cv@@@std@@@std@@YAPEAVMat@cv@@PEAV12@_KAEAV?$allocator@VMat@cv@@@0@@Z 0000000180059171     mwsurf.obj
 0002:00009177       $ip2state$??$_Uninitialized_value_construct_n@V?$allocator@VMat@cv@@@std@@@std@@YAPEAVMat@cv@@PEAV12@_KAEAV?$allocator@VMat@cv@@@0@@Z 0000000180059177     mwsurf.obj
 0002:00009180       $unwind$?dtor$0@?0???$_Uninitialized_value_construct_n@V?$allocator@VMat@cv@@@std@@@std@@YAPEAVMat@cv@@PEAV12@_KAEAV?$allocator@VMat@cv@@@0@@Z@4HA 0000000180059180     mwsurf.obj
 0002:00009188       $unwind$??$_Uninitialized_value_construct_n@V?$allocator@H@std@@@std@@YAPEAHPEAH_KAEAV?$allocator@H@0@@Z 0000000180059188     mwsurf.obj
 0002:00009190       $unwind$??$_Get_size_of_n@$03@std@@YA_K_K@Z 0000000180059190     mwsurf.obj
 0002:00009198       $unwind$??$_Get_size_of_n@$0GA@@std@@YA_K_K@Z 0000000180059198     mwsurf.obj
 0002:000091a0       $unwind$??R?$Matx_FastSolveOp@M$02$02$00@internal@cv@@QEBA_NAEBV?$Matx@M$02$02@2@AEBV?$Matx@M$02$00@2@AEAV42@H@Z 00000001800591a0     mwsurf.obj
 0002:000091a8       $unwind$??$_Insertion_sort_unchecked@PEAVKeyPoint@cv@@UKeypointGreater@2@@std@@YAPEAVKeyPoint@cv@@QEAV12@0UKeypointGreater@2@@Z 00000001800591a8     mwsurf.obj
 0002:000091b0       $unwind$??$_Make_heap_unchecked@PEAVKeyPoint@cv@@UKeypointGreater@2@@std@@YAXPEAVKeyPoint@cv@@0UKeypointGreater@2@@Z 00000001800591b0     mwsurf.obj
 0002:000091b8       $unwind$??$_Sort_heap_unchecked@PEAVKeyPoint@cv@@UKeypointGreater@2@@std@@YAXPEAVKeyPoint@cv@@0UKeypointGreater@2@@Z 00000001800591b8     mwsurf.obj
 0002:000091c0       $unwind$??$_Partition_by_median_guess_unchecked@PEAVKeyPoint@cv@@UKeypointGreater@2@@std@@YA?AU?$pair@PEAVKeyPoint@cv@@PEAV12@@0@PEAVKeyPoint@cv@@0UKeypointGreater@3@@Z 00000001800591c0     mwsurf.obj
 0002:000091c8       $unwind$??$?0UCvMat@@U?$DefaultDeleter@UCvMat@@@cv@@$0A@@?$shared_ptr@UCvMat@@@std@@QEAA@PEAUCvMat@@U?$DefaultDeleter@UCvMat@@@cv@@@Z 00000001800591c8     mwsurf.obj
 0002:000091d0       $unwind$??$_Zero_range@PEAM@std@@YAPEAMQEAM0@Z 00000001800591d0     mwsurf.obj
 0002:000091d8       $unwind$??1?$_Uninitialized_backout_al@V?$allocator@V?$Point_@H@cv@@@std@@@std@@QEAA@XZ 00000001800591d8     mwsurf.obj
 0002:000091e0       $unwind$??$_Emplace_back@$$V@?$_Uninitialized_backout_al@V?$allocator@V?$Point_@H@cv@@@std@@@std@@QEAAXXZ 00000001800591e0     mwsurf.obj
 0002:000091e8       $unwind$??$_Emplace_back@$$V@?$_Uninitialized_backout_al@V?$allocator@VKeyPoint@cv@@@std@@@std@@QEAAXXZ 00000001800591e8     mwsurf.obj
 0002:000091f0       $unwind$??1?$_Uninitialized_backout_al@V?$allocator@VMat@cv@@@std@@@std@@QEAA@XZ 00000001800591f0     mwsurf.obj
 0002:000091f8       $unwind$??$_Emplace_back@$$V@?$_Uninitialized_backout_al@V?$allocator@VMat@cv@@@std@@@std@@QEAAXXZ 00000001800591f8     mwsurf.obj
 0002:00009200       $unwind$??$_Zero_range@PEAH@std@@YAPEAHQEAH0@Z 0000000180059200     mwsurf.obj
 0002:00009208       $unwind$??$_Get_size_of_n@$07@std@@YA_K_K@Z 0000000180059208     mwsurf.obj
 0002:00009210       $unwind$??$_Uninitialized_move@PEAMV?$allocator@M@std@@@std@@YAPEAMQEAM0PEAMAEAV?$allocator@M@0@@Z 0000000180059210     mwsurf.obj
 0002:00009218       $unwind$??$_Uninitialized_move@PEAV?$Point_@H@cv@@V?$allocator@V?$Point_@H@cv@@@std@@@std@@YAPEAV?$Point_@H@cv@@QEAV12@0PEAV12@AEAV?$allocator@V?$Point_@H@cv@@@0@@Z 0000000180059218     mwsurf.obj
 0002:00009228       $cppxdata$??$_Uninitialized_move@PEAV?$Point_@H@cv@@V?$allocator@V?$Point_@H@cv@@@std@@@std@@YAPEAV?$Point_@H@cv@@QEAV12@0PEAV12@AEAV?$allocator@V?$Point_@H@cv@@@0@@Z 0000000180059228     mwsurf.obj
 0002:00009231       $stateUnwindMap$??$_Uninitialized_move@PEAV?$Point_@H@cv@@V?$allocator@V?$Point_@H@cv@@@std@@@std@@YAPEAV?$Point_@H@cv@@QEAV12@0PEAV12@AEAV?$allocator@V?$Point_@H@cv@@@0@@Z 0000000180059231     mwsurf.obj
 0002:00009237       $ip2state$??$_Uninitialized_move@PEAV?$Point_@H@cv@@V?$allocator@V?$Point_@H@cv@@@std@@@std@@YAPEAV?$Point_@H@cv@@QEAV12@0PEAV12@AEAV?$allocator@V?$Point_@H@cv@@@0@@Z 0000000180059237     mwsurf.obj
 0002:00009240       $unwind$?dtor$0@?0???$_Uninitialized_move@PEAV?$Point_@H@cv@@V?$allocator@V?$Point_@H@cv@@@std@@@std@@YAPEAV?$Point_@H@cv@@QEAV12@0PEAV12@AEAV?$allocator@V?$Point_@H@cv@@@0@@Z@4HA 0000000180059240     mwsurf.obj
 0002:00009248       $unwind$??$_Move_backward_unchecked@PEAVKeyPoint@cv@@PEAV12@@std@@YAPEAVKeyPoint@cv@@PEAV12@00@Z 0000000180059248     mwsurf.obj
 0002:00009250       $unwind$??$_Pop_heap_hole_by_index@PEAVKeyPoint@cv@@V12@UKeypointGreater@2@@std@@YAXPEAVKeyPoint@cv@@_J1$$QEAV12@UKeypointGreater@2@@Z 0000000180059250     mwsurf.obj
 0002:00009258       $unwind$??$_Pop_heap_unchecked@PEAVKeyPoint@cv@@UKeypointGreater@2@@std@@YAXPEAVKeyPoint@cv@@0UKeypointGreater@2@@Z 0000000180059258     mwsurf.obj
 0002:00009260       $unwind$??$_Guess_median_unchecked@PEAVKeyPoint@cv@@UKeypointGreater@2@@std@@YAXPEAVKeyPoint@cv@@00UKeypointGreater@2@@Z 0000000180059260     mwsurf.obj
 0002:00009268       $unwind$??$iter_swap@PEAVKeyPoint@cv@@PEAV12@@std@@YAXPEAVKeyPoint@cv@@0@Z 0000000180059268     mwsurf.obj
 0002:00009270       $unwind$??$?0AEAPEAVKeyPoint@cv@@AEAPEAV01@$0A@@?$pair@PEAVKeyPoint@cv@@PEAV12@@std@@QEAA@AEAPEAVKeyPoint@cv@@0@Z 0000000180059270     mwsurf.obj
 0002:00009278       $unwind$??$_Setpd@PEAUCvMat@@U?$DefaultDeleter@UCvMat@@@cv@@@?$shared_ptr@UCvMat@@@std@@AEAAXQEAUCvMat@@U?$DefaultDeleter@UCvMat@@@cv@@@Z 0000000180059278     mwsurf.obj
 0002:00009288       $cppxdata$??$_Setpd@PEAUCvMat@@U?$DefaultDeleter@UCvMat@@@cv@@@?$shared_ptr@UCvMat@@@std@@AEAAXQEAUCvMat@@U?$DefaultDeleter@UCvMat@@@cv@@@Z 0000000180059288     mwsurf.obj
 0002:00009291       $stateUnwindMap$??$_Setpd@PEAUCvMat@@U?$DefaultDeleter@UCvMat@@@cv@@@?$shared_ptr@UCvMat@@@std@@AEAAXQEAUCvMat@@U?$DefaultDeleter@UCvMat@@@cv@@@Z 0000000180059291     mwsurf.obj
 0002:0000929c       $ip2state$??$_Setpd@PEAUCvMat@@U?$DefaultDeleter@UCvMat@@@cv@@@?$shared_ptr@UCvMat@@@std@@AEAAXQEAUCvMat@@U?$DefaultDeleter@UCvMat@@@cv@@@Z 000000018005929c     mwsurf.obj
 0002:000092a8       $unwind$?dtor$0@?0???$_Setpd@PEAUCvMat@@U?$DefaultDeleter@UCvMat@@@cv@@@?$shared_ptr@UCvMat@@@std@@AEAAXQEAUCvMat@@U?$DefaultDeleter@UCvMat@@@cv@@@Z@4HA 00000001800592a8     mwsurf.obj
 0002:000092b0       $unwind$?dtor$1@?0???$_Setpd@PEAUCvMat@@U?$DefaultDeleter@UCvMat@@@cv@@@?$shared_ptr@UCvMat@@@std@@AEAAXQEAUCvMat@@U?$DefaultDeleter@UCvMat@@@cv@@@Z@4HA 00000001800592b0     mwsurf.obj
 0002:000092b8       $unwind$??$construct@V?$Point_@H@cv@@$$V@?$_Default_allocator_traits@V?$allocator@V?$Point_@H@cv@@@std@@@std@@SAXAEAV?$allocator@V?$Point_@H@cv@@@1@QEAV?$Point_@H@cv@@@Z 00000001800592b8     mwsurf.obj
 0002:000092c0       $unwind$??$construct@VKeyPoint@cv@@$$V@?$_Default_allocator_traits@V?$allocator@VKeyPoint@cv@@@std@@@std@@SAXAEAV?$allocator@VKeyPoint@cv@@@1@QEAVKeyPoint@cv@@@Z 00000001800592c0     mwsurf.obj
 0002:000092c8       $unwind$??$construct@VMat@cv@@$$V@?$_Default_allocator_traits@V?$allocator@VMat@cv@@@std@@@std@@SAXAEAV?$allocator@VMat@cv@@@1@QEAVMat@cv@@@Z 00000001800592c8     mwsurf.obj
 0002:000092d0       $unwind$??R?$Matx_DetOp@M$02@internal@cv@@QEBANAEBV?$Matx@M$02$02@2@@Z 00000001800592d0     mwsurf.obj
 0002:000092d8       $unwind$??$_Copy_memmove@PEAMPEAM@std@@YAPEAMPEAM00@Z 00000001800592d8     mwsurf.obj
 0002:000092e0       $unwind$??$_Emplace_back@V?$Point_@H@cv@@@?$_Uninitialized_backout_al@V?$allocator@V?$Point_@H@cv@@@std@@@std@@QEAAX$$QEAV?$Point_@H@cv@@@Z 00000001800592e0     mwsurf.obj
 0002:000092e8       $unwind$??$_Push_heap_by_index@PEAVKeyPoint@cv@@V12@UKeypointGreater@2@@std@@YAXPEAVKeyPoint@cv@@_J1$$QEAV12@UKeypointGreater@2@@Z 00000001800592e8     mwsurf.obj
 0002:000092f0       $unwind$??$_Pop_heap_hole_unchecked@PEAVKeyPoint@cv@@V12@UKeypointGreater@2@@std@@YAXPEAVKeyPoint@cv@@00$$QEAV12@UKeypointGreater@2@@Z 00000001800592f0     mwsurf.obj
 0002:000092f8       $unwind$??$_Med3_unchecked@PEAVKeyPoint@cv@@UKeypointGreater@2@@std@@YAXPEAVKeyPoint@cv@@00UKeypointGreater@2@@Z 00000001800592f8     mwsurf.obj
 0002:00009300       $unwind$??$swap@VKeyPoint@cv@@$0A@@std@@YAXAEAVKeyPoint@cv@@0@Z 0000000180059300     mwsurf.obj
 0002:00009308       $unwind$??1?$_Temporary_owner_del@PEAUCvMat@@U?$DefaultDeleter@UCvMat@@@cv@@@std@@QEAA@XZ 0000000180059308     mwsurf.obj
 0002:00009318       $cppxdata$??1?$_Temporary_owner_del@PEAUCvMat@@U?$DefaultDeleter@UCvMat@@@cv@@@std@@QEAA@XZ 0000000180059318     mwsurf.obj
 0002:0000931d       $ip2state$??1?$_Temporary_owner_del@PEAUCvMat@@U?$DefaultDeleter@UCvMat@@@cv@@@std@@QEAA@XZ 000000018005931d     mwsurf.obj
 0002:00009320       $unwind$??0?$_Ref_count_resource@PEAUCvMat@@U?$DefaultDeleter@UCvMat@@@cv@@@std@@QEAA@PEAUCvMat@@U?$DefaultDeleter@UCvMat@@@cv@@@Z 0000000180059320     mwsurf.obj
 0002:00009328       $unwind$?_Get_deleter@?$_Ref_count_resource@PEAUCvMat@@U?$DefaultDeleter@UCvMat@@@cv@@@std@@UEBAPEAXAEBVtype_info@@@Z 0000000180059328     mwsurf.obj
 0002:00009330       $unwind$?_Destroy@?$_Ref_count_resource@PEAUCvMat@@U?$DefaultDeleter@UCvMat@@@cv@@@std@@EEAAXXZ 0000000180059330     mwsurf.obj
 0002:00009340       $cppxdata$?_Destroy@?$_Ref_count_resource@PEAUCvMat@@U?$DefaultDeleter@UCvMat@@@cv@@@std@@EEAAXXZ 0000000180059340     mwsurf.obj
 0002:00009345       $ip2state$?_Destroy@?$_Ref_count_resource@PEAUCvMat@@U?$DefaultDeleter@UCvMat@@@cv@@@std@@EEAAXXZ 0000000180059345     mwsurf.obj
 0002:00009348       $unwind$?_Delete_this@?$_Ref_count_resource@PEAUCvMat@@U?$DefaultDeleter@UCvMat@@@cv@@@std@@EEAAXXZ 0000000180059348     mwsurf.obj
 0002:00009350       $unwind$??1?$_Ref_count_resource@PEAUCvMat@@U?$DefaultDeleter@UCvMat@@@cv@@@std@@UEAA@XZ 0000000180059350     mwsurf.obj
 0002:00009358       $unwind$??_G?$_Ref_count_resource@PEAUCvMat@@U?$DefaultDeleter@UCvMat@@@cv@@@std@@UEAAPEAXI@Z 0000000180059358     mwsurf.obj
 0002:00009360       $unwind$??$construct@V?$Point_@H@cv@@V12@@?$_Default_allocator_traits@V?$allocator@V?$Point_@H@cv@@@std@@@std@@SAXAEAV?$allocator@V?$Point_@H@cv@@@1@QEAV?$Point_@H@cv@@$$QEAV34@@Z 0000000180059360     mwsurf.obj
 0002:00009368       $unwind$??$?0U?$DefaultDeleter@UCvMat@@@cv@@AEAPEAUCvMat@@@?$_Compressed_pair@U?$DefaultDeleter@UCvMat@@@cv@@PEAUCvMat@@$00@std@@QEAA@U_One_then_variadic_args_t@1@$$QEAU?$DefaultDeleter@UCvMat@@@cv@@AEAPEAUCvMat@@@Z 0000000180059368     mwsurf.obj
 0002:00009370       $unwind$fastHessianDetector_uint8 0000000180059370     fastHessianDetectorCore.obj
 0002:00009384       $cppxdata$fastHessianDetector_uint8 0000000180059384     fastHessianDetectorCore.obj
 0002:0000938d       $stateUnwindMap$fastHessianDetector_uint8 000000018005938d     fastHessianDetectorCore.obj
 0002:000093a2       $ip2state$fastHessianDetector_uint8 00000001800593a2     fastHessianDetectorCore.obj
 0002:000093b6       $cppxdata$?configureSURFDetectorCore@@YAXU?$Ptr@VMWSURF@cv@@@cv@@HHH_K1@Z 00000001800593b6     fastHessianDetectorCore.obj
 0002:000093c0       $unwind$fastHessianDetector_uint8$dtor$0 00000001800593c0     fastHessianDetectorCore.obj
 0002:000093c8       $unwind$fastHessianDetector_uint8$dtor$1 00000001800593c8     fastHessianDetectorCore.obj
 0002:000093d0       $unwind$fastHessianDetector_uint8$dtor$2 00000001800593d0     fastHessianDetectorCore.obj
 0002:000093d8       $unwind$fastHessianDetector_uint8$dtor$4 00000001800593d8     fastHessianDetectorCore.obj
 0002:000093e0       $unwind$fastHessianDetector_keyPoints2field 00000001800593e0     fastHessianDetectorCore.obj
 0002:000093e8       $unwind$fastHessianDetector_keyPoints2fieldRM 00000001800593e8     fastHessianDetectorCore.obj
 0002:000093f0       $unwind$fastHessianDetector_deleteKeypoint 00000001800593f0     fastHessianDetectorCore.obj
 0002:000093f8       $unwind$?limitNumOctavesCore@@YAHH_K0@Z 00000001800593f8     fastHessianDetectorCore.obj
 0002:00009400       $unwind$?configureSURFDetectorCore@@YAXU?$Ptr@VMWSURF@cv@@@cv@@HHH_K1@Z 0000000180059400     fastHessianDetectorCore.obj
 0002:00009410       $stateUnwindMap$?configureSURFDetectorCore@@YAXU?$Ptr@VMWSURF@cv@@@cv@@HHH_K1@Z 0000000180059410     fastHessianDetectorCore.obj
 0002:00009416       $ip2state$?configureSURFDetectorCore@@YAXU?$Ptr@VMWSURF@cv@@@cv@@HHH_K1@Z 0000000180059416     fastHessianDetectorCore.obj
 0002:00009420       $unwind$?dtor$0@?0??configureSURFDetectorCore@@YAXU?$Ptr@VMWSURF@cv@@@cv@@HHH_K1@Z@4HA 0000000180059420     fastHessianDetectorCore.obj
 0002:00009428       $unwind$??$makePtr@VMWSURF@cv@@$$V@cv@@YA?AU?$Ptr@VMWSURF@cv@@@0@XZ 0000000180059428     fastHessianDetectorCore.obj
 0002:00009430       $unwind$?_Incref@?$_Ptr_base@VMWSURF@cv@@@std@@IEBAXXZ 0000000180059430     fastHessianDetectorCore.obj
 0002:00009438       $unwind$??0?$shared_ptr@VMWSURF@cv@@@std@@QEAA@AEBV01@@Z 0000000180059438     fastHessianDetectorCore.obj
 0002:00009440       $unwind$??0?$Ptr@VMWSURF@cv@@@cv@@QEAA@AEBU01@@Z 0000000180059440     fastHessianDetectorCore.obj
 0002:00009448       $unwind$??$_Copy_construct_from@VMWSURF@cv@@@?$_Ptr_base@VMWSURF@cv@@@std@@IEAAXAEBV?$shared_ptr@VMWSURF@cv@@@1@@Z 0000000180059448     fastHessianDetectorCore.obj
 0002:00009450       $unwind$??__F?policy@?$SinglePolicy@Uempty_any@anyimpl@cvflann@@@anyimpl@cvflann@@0U?$big_any_policy@Uempty_any@anyimpl@cvflann@@@23@A@@YAXXZ 0000000180059450     fastHessianDetectorCore.obj
 0002:00009458       $unwind$??__F?policy@?$SinglePolicy@Uempty_any@anyimpl@cvflann@@@anyimpl@cvflann@@0U?$big_any_policy@Uempty_any@anyimpl@cvflann@@@23@A@@YAXXZ 0000000180059458     fastHessianDetectorCore.obj
 0002:00009460       $unwind$??__F?policy@?$SinglePolicy@PEBD@anyimpl@cvflann@@0U?$small_any_policy@PEBD@23@A@@YAXXZ 0000000180059460     fastHessianDetectorCore.obj
 0002:00009468       $unwind$??__F?policy@?$SinglePolicy@PEBD@anyimpl@cvflann@@0U?$small_any_policy@PEBD@23@A@@YAXXZ 0000000180059468     fastHessianDetectorCore.obj
 0002:00009470       $unwind$??__F?policy@?$SinglePolicy@H@anyimpl@cvflann@@0U?$small_any_policy@H@23@A@@YAXXZ 0000000180059470     fastHessianDetectorCore.obj
 0002:00009478       $unwind$??__F?policy@?$SinglePolicy@H@anyimpl@cvflann@@0U?$small_any_policy@H@23@A@@YAXXZ 0000000180059478     fastHessianDetectorCore.obj
 0002:00009480       $unwind$??__F?policy@?$SinglePolicy@M@anyimpl@cvflann@@0U?$small_any_policy@M@23@A@@YAXXZ 0000000180059480     fastHessianDetectorCore.obj
 0002:00009488       $unwind$??__F?policy@?$SinglePolicy@M@anyimpl@cvflann@@0U?$small_any_policy@M@23@A@@YAXXZ 0000000180059488     fastHessianDetectorCore.obj
 0002:00009490       $unwind$??__F?policy@?$SinglePolicy@_N@anyimpl@cvflann@@0U?$small_any_policy@_N@23@A@@YAXXZ 0000000180059490     fastHessianDetectorCore.obj
 0002:00009498       $unwind$??__F?policy@?$SinglePolicy@_N@anyimpl@cvflann@@0U?$small_any_policy@_N@23@A@@YAXXZ 0000000180059498     fastHessianDetectorCore.obj
 0002:000094a0       $unwind$??__F?policy@?$SinglePolicy@W4flann_algorithm_t@cvflann@@@anyimpl@cvflann@@0U?$big_any_policy@W4flann_algorithm_t@cvflann@@@23@A@@YAXXZ 00000001800594a0     fastHessianDetectorCore.obj
 0002:000094a8       $unwind$??__F?policy@?$SinglePolicy@W4flann_algorithm_t@cvflann@@@anyimpl@cvflann@@0U?$big_any_policy@W4flann_algorithm_t@cvflann@@@23@A@@YAXXZ 00000001800594a8     fastHessianDetectorCore.obj
 0002:000094b0       $unwind$??__F?policy@?$SinglePolicy@W4flann_centers_init_t@cvflann@@@anyimpl@cvflann@@0U?$big_any_policy@W4flann_centers_init_t@cvflann@@@23@A@@YAXXZ 00000001800594b0     fastHessianDetectorCore.obj
 0002:000094b8       $unwind$??__F?policy@?$SinglePolicy@W4flann_centers_init_t@cvflann@@@anyimpl@cvflann@@0U?$big_any_policy@W4flann_centers_init_t@cvflann@@@23@A@@YAXXZ 00000001800594b8     fastHessianDetectorCore.obj
 0002:000094c0       $unwind$??__F?policy@?$SinglePolicy@I@anyimpl@cvflann@@0U?$small_any_policy@I@23@A@@YAXXZ 00000001800594c0     fastHessianDetectorCore.obj
 0002:000094c8       $unwind$??__F?policy@?$SinglePolicy@I@anyimpl@cvflann@@0U?$small_any_policy@I@23@A@@YAXXZ 00000001800594c8     fastHessianDetectorCore.obj
 0002:000094d0       $unwind$??__F?policy@?$SinglePolicy@V?$basic_string@DU?$char_traits@D@std@@V?$allocator@D@2@@std@@@anyimpl@cvflann@@0U?$big_any_policy@V?$basic_string@DU?$char_traits@D@std@@V?$allocator@D@2@@std@@@23@A@@YAXXZ 00000001800594d0     fastHessianDetectorCore.obj
 0002:000094d8       $unwind$??__F?policy@?$SinglePolicy@V?$basic_string@DU?$char_traits@D@std@@V?$allocator@D@2@@std@@@anyimpl@cvflann@@0U?$big_any_policy@V?$basic_string@DU?$char_traits@D@std@@V?$allocator@D@2@@std@@@23@A@@YAXXZ 00000001800594d8     fastHessianDetectorCore.obj
 0002:000094e0       $unwind$getBitfieldFromFloat 00000001800594e0     half_type.obj
 0002:000094e8       $unwind$getFloatFromBitfield 00000001800594e8     half_type.obj
 0002:000094f0       $unwind$getHalfFromBitfield 00000001800594f0     half_type.obj
 0002:000094f8       $unwind$halfToFloat        00000001800594f8     half_type.obj
 0002:00009500       $unwind$halfToDouble       0000000180059500     half_type.obj
 0002:00009508       $unwind$floatToHalf        0000000180059508     half_type.obj
 0002:00009510       $unwind$doubleToHalf       0000000180059510     half_type.obj
 0002:00009518       $unwind$__report_securityfailure 0000000180059518     MSVCRT:gs_report.obj
 0002:00009520       $unwind$__report_securityfailureEx 0000000180059520     MSVCRT:gs_report.obj
 0002:00009528       $unwind$__report_rangecheckfailure 0000000180059528     MSVCRT:gs_report.obj
 0002:00009530       $unwind$__report_gsfailure 0000000180059530     MSVCRT:gs_report.obj
 0002:00009538       $unwind$capture_current_context 0000000180059538     MSVCRT:gs_report.obj
 0002:00009544       $unwind$capture_previous_context 0000000180059544     MSVCRT:gs_report.obj
 0002:00009550       $unwind$__raise_securityfailure 0000000180059550     MSVCRT:gs_report.obj
 0002:00009558       $unwind$__GSHandlerCheckCommon 0000000180059558     MSVCRT:gshandler.obj
 0002:00009560       $unwind$__GSHandlerCheck   0000000180059560     MSVCRT:gshandler.obj
 0002:00009568       $xdatasym                  0000000180059568     MSVCRT:amdsecgs.obj
 0002:00009570       $xdatasym                  0000000180059570     MSVCRT:chkstk.obj
 0002:00009578       $unwind$??_Gtype_info@@UEAAPEAXI@Z 0000000180059578     MSVCRT:std_type_info_static.obj
 0002:00009580       $unwind$??2@YAPEAX_K@Z     0000000180059580     MSVCRT:new_scalar.obj
 0002:00009588       $unwind$atexit             0000000180059588     MSVCRT:utility.obj
 0002:00009590       $unwind$_onexit            0000000180059590     MSVCRT:utility.obj
 0002:00009598       $unwind$__scrt_is_nonwritable_in_current_image 0000000180059598     MSVCRT:utility.obj
 0002:000095b8       $unwind$__scrt_is_nonwritable_in_current_image$filt$0 00000001800595b8     MSVCRT:utility.obj
 0002:000095c0       $unwind$__scrt_acquire_startup_lock 00000001800595c0     MSVCRT:utility.obj
 0002:000095c8       $unwind$__scrt_release_startup_lock 00000001800595c8     MSVCRT:utility.obj
 0002:000095d0       $unwind$__scrt_initialize_crt 00000001800595d0     MSVCRT:utility.obj
 0002:000095d8       $unwind$__scrt_uninitialize_crt 00000001800595d8     MSVCRT:utility.obj
 0002:000095e0       $unwind$__scrt_initialize_onexit_tables 00000001800595e0     MSVCRT:utility.obj
 0002:000095e8       $unwind$__scrt_dllmain_exception_filter 00000001800595e8     MSVCRT:utility.obj
 0002:000095fc       $unwind$__scrt_dllmain_before_initialize_c 00000001800595fc     MSVCRT:utility.obj
 0002:00009604       $unwind$__scrt_dllmain_after_initialize_c 0000000180059604     MSVCRT:utility.obj
 0002:0000960c       $unwind$__scrt_dllmain_uninitialize_c 000000018005960c     MSVCRT:utility.obj
 0002:00009614       $unwind$__scrt_dllmain_uninitialize_critical 0000000180059614     MSVCRT:utility.obj
 0002:0000961c       $unwind$__scrt_dllmain_crt_thread_attach 000000018005961c     MSVCRT:utility.obj
 0002:00009624       $unwind$__scrt_dllmain_crt_thread_detach 0000000180059624     MSVCRT:utility.obj
 0002:0000962c       $unwind$?configure_argv@__scrt_narrow_argv_policy@@SAHXZ 000000018005962c     MSVCRT:utility.obj
 0002:00009634       $unwind$__GSHandlerCheck_EH4 0000000180059634     MSVCRT:gshandlereh4.obj
 0002:0000964c       $unwind$?dllmain_crt_process_attach@@YAHQEAUHINSTANCE__@@QEAX@Z 000000018005964c     MSVCRT:dll_dllmain.obj
 0002:00009688       $unwind$?fin$0@?0??dllmain_crt_process_attach@@YAHQEAUHINSTANCE__@@QEAX@Z@4HA 0000000180059688     MSVCRT:dll_dllmain.obj
 0002:00009690       $unwind$?dllmain_crt_process_detach@@YAH_N@Z 0000000180059690     MSVCRT:dll_dllmain.obj
 0002:000096e4       $unwind$?fin$0@?0??dllmain_crt_process_detach@@YAH_N@Z@4HA 00000001800596e4     MSVCRT:dll_dllmain.obj
 0002:000096ec       $unwind$?fin$1@?0??dllmain_crt_process_detach@@YAH_N@Z@4HA 00000001800596ec     MSVCRT:dll_dllmain.obj
 0002:000096f4       $unwind$?dllmain_crt_dispatch@@YAHQEAUHINSTANCE__@@KQEAX@Z 00000001800596f4     MSVCRT:dll_dllmain.obj
 0002:000096fc       $unwind$?dllmain_dispatch@@YAHQEAUHINSTANCE__@@KQEAX@Z 00000001800596fc     MSVCRT:dll_dllmain.obj
 0002:00009724       $unwind$?filt$0@?0??dllmain_dispatch@@YAHQEAUHINSTANCE__@@KQEAX@Z@4HA 0000000180059724     MSVCRT:dll_dllmain.obj
 0002:0000972c       $unwind$_DllMainCRTStartup 000000018005972c     MSVCRT:dll_dllmain.obj
 0002:0000973c       $unwind$?__scrt_throw_std_bad_alloc@@YAXXZ 000000018005973c     MSVCRT:throw_bad_alloc.obj
 0002:00009744       $unwind$?__scrt_throw_std_bad_array_new_length@@YAXXZ 0000000180059744     MSVCRT:throw_bad_alloc.obj
 0002:0000974c       $unwind$__isa_available_init 000000018005974c     MSVCRT:cpu_disp.obj
 0002:0000975c       $unwind$__scrt_get_show_window_mode 000000018005975c     MSVCRT:utility_desktop.obj
 0002:00009764       $unwind$__scrt_is_managed_app 0000000180059764     MSVCRT:utility_desktop.obj
 0002:0000976c       $unwind$__scrt_fastfail    000000018005976c     MSVCRT:utility_desktop.obj
 0002:0000977c       $unwind$__scrt_unhandled_exception_filter 000000018005977c     MSVCRT:utility_desktop.obj
 0002:00009788       $unwind$__castguard_check_failure_os_handled 0000000180059788     MSVCRT:guard_support.obj
 0002:00009790       $unwind$__castguard_slow_path_check_os_handled 0000000180059790     MSVCRT:guard_support.obj
 0002:00009798       $unwind$__security_init_cookie 0000000180059798     MSVCRT:gs_support.obj
 0002:000097a4       $unwind$__get_entropy      00000001800597a4     MSVCRT:gs_support.obj
 0002:000097ac       $unwind$DllMain            00000001800597ac     MSVCRT:dll_dllmain_stub.obj
 0002:000097b4       $unwind$__scrt_initialize_default_local_stdio_options 00000001800597b4     MSVCRT:default_local_stdio_options.obj
 0002:000097bc       $unwind$_RTC_Initialize    00000001800597bc     MSVCRT:initsect.obj
 0002:000097c8       $unwind$_RTC_Terminate     00000001800597c8     MSVCRT:initsect.obj
 0002:000097d8       $xdatasym                  00000001800597d8     MSVCRT:guard_dispatch.obj
 0002:000097e0       $xdatasym                  00000001800597e0     MSVCRT:guard_xfg_dispatch.obj
 0002:000098e0       .edata                     00000001800598e0     flightControlSystem_sfun.exp
 0002:00009908       rgpv                       0000000180059908     flightControlSystem_sfun.exp
 0002:00009938       rgszName                   0000000180059938     flightControlSystem_sfun.exp
 0002:00009968       rgwOrd                     0000000180059968     flightControlSystem_sfun.exp
 0002:00009980       szName                     0000000180059980     flightControlSystem_sfun.exp
 0002:000099a0       $N00001                    00000001800599a0     flightControlSystem_sfun.exp
 0002:000099b4       $N00002                    00000001800599b4     flightControlSystem_sfun.exp
 0002:000099d0       $N00003                    00000001800599d0     flightControlSystem_sfun.exp
 0002:000099e9       $N00004                    00000001800599e9     flightControlSystem_sfun.exp
 0002:00009a04       $N00005                    0000000180059a04     flightControlSystem_sfun.exp
 0002:00009a18       $N00006                    0000000180059a18     flightControlSystem_sfun.exp
 0002:00009a2e       $N00007                    0000000180059a2e     flightControlSystem_sfun.exp
 0002:00009a51       $N00008                    0000000180059a51     flightControlSystem_sfun.exp
 0002:00009a75       $N00009                    0000000180059a75     flightControlSystem_sfun.exp
 0002:00009a9b       $N00010                    0000000180059a9b     flightControlSystem_sfun.exp
 0002:00009ab5       $N00011                    0000000180059ab5     flightControlSystem_sfun.exp
 0002:00009ac1       $N00012                    0000000180059ac1     flightControlSystem_sfun.exp
 0002:0000a4be       .idata$6                   000000018005a4be     libmwrgb2gray_tbb:libmwrgb2gray_tbb.dll
 0002:0000a4e8       .idata$6                   000000018005a4e8     libmwjpegreader:libmwjpegreader.dll
 0002:0000a518       .idata$6                   000000018005a518     libmwComputeMetric:libmwComputeMetric.dll
 0002:0000a950       .idata$6                   000000018005a950     opencv_core420:opencv_core420.dll
 0002:0000aa52       .idata$6                   000000018005aa52     opencv_imgproc420:opencv_imgproc420.dll
 0002:0000af30       .idata$6                   000000018005af30     opencv_features2d420:opencv_features2d420.dll
 0002:0000b338       .idata$6                   000000018005b338     sf_runtime:sf_runtime.dll
 0002:0000b4e2       .idata$6                   000000018005b4e2     libmx:libmx.dll
 0002:0000b576       .idata$6                   000000018005b576     libmex:libmex.dll
 0002:0000b598       .idata$6                   000000018005b598     libut:libut.dll
 0002:0000b63a       .idata$6                   000000018005b63a     libmwmathutil:libmwmathutil.dll
 0002:0000b752       .idata$6                   000000018005b752     libemlrt:libemlrt.dll
 0002:0000b832       .idata$6                   000000018005b832     libcovrt:libcovrt.dll
 0002:0000bdba       .idata$6                   000000018005bdba     msvcprt:MSVCP140.dll
 0002:0000bf54       .idata$6                   000000018005bf54     kernel32:KERNEL32.dll
 0002:0000c070       .idata$6                   000000018005c070     vcruntime:VCRUNTIME140.dll
 0002:0000c082       .idata$6                   000000018005c082     vcruntime:VCRUNTIME140_1.dll
 0002:0000c252       .idata$6                   000000018005c252     ucrt:api-ms-win-crt-string-l1-1-0.dll
 0002:0000c274       .idata$6                   000000018005c274     ucrt:api-ms-win-crt-math-l1-1-0.dll
 0002:0000c294       .idata$6                   000000018005c294     ucrt:api-ms-win-crt-stdio-l1-1-0.dll
 0002:0000c2b4       .idata$6                   000000018005c2b4     ucrt:api-ms-win-crt-heap-l1-1-0.dll
 0002:0000c2d4       .idata$6                   000000018005c2d4     ucrt:api-ms-win-crt-runtime-l1-1-0.dll
 0002:0000c2f6       .idata$6                   000000018005c2f6     ucrt:api-ms-win-crt-utility-l1-1-0.dll
 0003:00000000       $SG25776                   000000018005d000     flightControlSystem_sfun.obj
 0003:00000018       $SG25781                   000000018005d018     flightControlSystem_sfun.obj
 0003:00000020       $SG25784                   000000018005d020     flightControlSystem_sfun.obj
 0003:00000028       $SG25789                   000000018005d028     flightControlSystem_sfun.obj
 0003:00000030       $SG25819                   000000018005d030     flightControlSystem_sfun.obj
 0003:00000050       $SG25822                   000000018005d050     flightControlSystem_sfun.obj
 0003:00000068       $SG25851                   000000018005d068     flightControlSystem_sfun.obj
 0003:00000088       $SG25854                   000000018005d088     flightControlSystem_sfun.obj
 0003:000000a0       $SG25883                   000000018005d0a0     flightControlSystem_sfun.obj
 0003:000000b8       $SG25886                   000000018005d0b8     flightControlSystem_sfun.obj
 0003:000000d0       $SG25916                   000000018005d0d0     flightControlSystem_sfun.obj
 0003:000000e8       $SG25919                   000000018005d0e8     flightControlSystem_sfun.obj
 0003:00000100       $SG25948                   000000018005d100     flightControlSystem_sfun.obj
 0003:00000120       $SG25951                   000000018005d120     flightControlSystem_sfun.obj
 0003:00000138       $SG25977                   000000018005d138     flightControlSystem_sfun.obj
 0003:00000150       $SG25978                   000000018005d150     flightControlSystem_sfun.obj
 0003:00000170       $SG25707                   000000018005d170     c4_flightControlSystem.obj
 0003:00000180       $SG25708                   000000018005d180     c4_flightControlSystem.obj
 0003:000001c8       $SG25710                   000000018005d1c8     c4_flightControlSystem.obj
 0003:000001d0       $SG25711                   000000018005d1d0     c4_flightControlSystem.obj
 0003:00000218       $SG25713                   000000018005d218     c4_flightControlSystem.obj
 0003:00000220       $SG25714                   000000018005d220     c4_flightControlSystem.obj
 0003:00000268       $SG25716                   000000018005d268     c4_flightControlSystem.obj
 0003:00000278       $SG25722                   000000018005d278     c4_flightControlSystem.obj
 0003:00000290       $SG25717                   000000018005d290     c4_flightControlSystem.obj
 0003:000002ec       $SG25743                   000000018005d2ec     c4_flightControlSystem.obj
 0003:000002f4       $SG25773                   000000018005d2f4     c4_flightControlSystem.obj
 0003:000002f8       $SG25719                   000000018005d2f8     c4_flightControlSystem.obj
 0003:00000308       $SG25728                   000000018005d308     c4_flightControlSystem.obj
 0003:00000320       $SG25720                   000000018005d320     c4_flightControlSystem.obj
 0003:00000380       $SG25723                   000000018005d380     c4_flightControlSystem.obj
 0003:000003dc       $SG25878                   000000018005d3dc     c4_flightControlSystem.obj
 0003:000003e0       $SG25725                   000000018005d3e0     c4_flightControlSystem.obj
 0003:000003f0       $SG25726                   000000018005d3f0     c4_flightControlSystem.obj
 0003:00000448       $SG25746                   000000018005d448     c4_flightControlSystem.obj
 0003:00000460       $SG25729                   000000018005d460     c4_flightControlSystem.obj
 0003:000004bc       $SG26088                   000000018005d4bc     c4_flightControlSystem.obj
 0003:000004c0       $SG25731                   000000018005d4c0     c4_flightControlSystem.obj
 0003:000004d0       $SG25732                   000000018005d4d0     c4_flightControlSystem.obj
 0003:00000528       $SG25734                   000000018005d528     c4_flightControlSystem.obj
 0003:00000538       $SG25749                   000000018005d538     c4_flightControlSystem.obj
 0003:00000548       $SG25755                   000000018005d548     c4_flightControlSystem.obj
 0003:00000550       $SG25735                   000000018005d550     c4_flightControlSystem.obj
 0003:000005a8       $SG25737                   000000018005d5a8     c4_flightControlSystem.obj
 0003:000005b8       $SG25740                   000000018005d5b8     c4_flightControlSystem.obj
 0003:000005d8       $SG25752                   000000018005d5d8     c4_flightControlSystem.obj
 0003:000005e8       $SG25758                   000000018005d5e8     c4_flightControlSystem.obj
 0003:000005f0       $SG25738                   000000018005d5f0     c4_flightControlSystem.obj
 0003:00000640       $SG25741                   000000018005d640     c4_flightControlSystem.obj
 0003:000006a0       $SG25744                   000000018005d6a0     c4_flightControlSystem.obj
 0003:000006e8       $SG25761                   000000018005d6e8     c4_flightControlSystem.obj
 0003:000006f0       $SG25747                   000000018005d6f0     c4_flightControlSystem.obj
 0003:00000748       $SG25764                   000000018005d748     c4_flightControlSystem.obj
 0003:00000758       $SG25767                   000000018005d758     c4_flightControlSystem.obj
 0003:00000760       $SG25750                   000000018005d760     c4_flightControlSystem.obj
 0003:000007b8       $SG25770                   000000018005d7b8     c4_flightControlSystem.obj
 0003:000007c0       $SG25753                   000000018005d7c0     c4_flightControlSystem.obj
 0003:00000820       $SG25756                   000000018005d820     c4_flightControlSystem.obj
 0003:00000868       $SG25776                   000000018005d868     c4_flightControlSystem.obj
 0003:00000878       $SG25803                   000000018005d878     c4_flightControlSystem.obj
 0003:00000880       $SG25759                   000000018005d880     c4_flightControlSystem.obj
 0003:000008c8       $SG25806                   000000018005d8c8     c4_flightControlSystem.obj
 0003:000008d0       $SG25762                   000000018005d8d0     c4_flightControlSystem.obj
 0003:00000918       $SG25809                   000000018005d918     c4_flightControlSystem.obj
 0003:00000920       $SG25765                   000000018005d920     c4_flightControlSystem.obj
 0003:00000970       $SG25768                   000000018005d970     c4_flightControlSystem.obj
 0003:000009b8       $SG25815                   000000018005d9b8     c4_flightControlSystem.obj
 0003:000009d0       $SG25771                   000000018005d9d0     c4_flightControlSystem.obj
 0003:00000a18       $SG25818                   000000018005da18     c4_flightControlSystem.obj
 0003:00000a30       $SG25774                   000000018005da30     c4_flightControlSystem.obj
 0003:00000a78       $SG25824                   000000018005da78     c4_flightControlSystem.obj
 0003:00000a88       $SG25848                   000000018005da88     c4_flightControlSystem.obj
 0003:00000aa0       $SG25777                   000000018005daa0     c4_flightControlSystem.obj
 0003:00000af0       $SG25779                   000000018005daf0     c4_flightControlSystem.obj
 0003:00000b1c       $SG25905                   000000018005db1c     c4_flightControlSystem.obj
 0003:00000b24       $SG26130                   000000018005db24     c4_flightControlSystem.obj
 0003:00000b28       $SG25780                   000000018005db28     c4_flightControlSystem.obj
 0003:00000b44       $SG25908                   000000018005db44     c4_flightControlSystem.obj
 0003:00000b4c       $SG26181                   000000018005db4c     c4_flightControlSystem.obj
 0003:00000b50       $SG25782                   000000018005db50     c4_flightControlSystem.obj
 0003:00000b7c       $SG25911                   000000018005db7c     c4_flightControlSystem.obj
 0003:00000b84       $SG26217                   000000018005db84     c4_flightControlSystem.obj
 0003:00000b88       $SG25783                   000000018005db88     c4_flightControlSystem.obj
 0003:00000ba4       $SG26220                   000000018005dba4     c4_flightControlSystem.obj
 0003:00000ba8       $SG25785                   000000018005dba8     c4_flightControlSystem.obj
 0003:00000bd4       $SG26073                   000000018005dbd4     c4_flightControlSystem.obj
 0003:00000bdc       $SG26232                   000000018005dbdc     c4_flightControlSystem.obj
 0003:00000be0       $SG25786                   000000018005dbe0     c4_flightControlSystem.obj
 0003:00000bfc       $SG26235                   000000018005dbfc     c4_flightControlSystem.obj
 0003:00000c00       $SG25788                   000000018005dc00     c4_flightControlSystem.obj
 0003:00000c2c       $SG26076                   000000018005dc2c     c4_flightControlSystem.obj
 0003:00000c34       $SG26238                   000000018005dc34     c4_flightControlSystem.obj
 0003:00000c38       $SG25789                   000000018005dc38     c4_flightControlSystem.obj
 0003:00000c54       $SG26370                   000000018005dc54     c4_flightControlSystem.obj
 0003:00000c5c       $SG26751                   000000018005dc5c     c4_flightControlSystem.obj
 0003:00000c60       $SG25791                   000000018005dc60     c4_flightControlSystem.obj
 0003:00000c8c       $SG26079                   000000018005dc8c     c4_flightControlSystem.obj
 0003:00000c94       $SG26397                   000000018005dc94     c4_flightControlSystem.obj
 0003:00000c9c       $SG26754                   000000018005dc9c     c4_flightControlSystem.obj
 0003:00000ca0       $SG25792                   000000018005dca0     c4_flightControlSystem.obj
 0003:00000cbc       $SG26760                   000000018005dcbc     c4_flightControlSystem.obj
 0003:00000cc0       $SG25794                   000000018005dcc0     c4_flightControlSystem.obj
 0003:00000cec       $SG26727                   000000018005dcec     c4_flightControlSystem.obj
 0003:00000cf4       $SG26796                   000000018005dcf4     c4_flightControlSystem.obj
 0003:00000cf8       $SG25795                   000000018005dcf8     c4_flightControlSystem.obj
 0003:00000d14       $SG26871                   000000018005dd14     c4_flightControlSystem.obj
 0003:00000d18       $SG25797                   000000018005dd18     c4_flightControlSystem.obj
 0003:00000d44       $SG26868                   000000018005dd44     c4_flightControlSystem.obj
 0003:00000d4c       $SG26880                   000000018005dd4c     c4_flightControlSystem.obj
 0003:00000d58       $SG25798                   000000018005dd58     c4_flightControlSystem.obj
 0003:00000d78       $SG25800                   000000018005dd78     c4_flightControlSystem.obj
 0003:00000da8       $SG25801                   000000018005dda8     c4_flightControlSystem.obj
 0003:00000dc8       $SG25821                   000000018005ddc8     c4_flightControlSystem.obj
 0003:00000dd8       $SG25827                   000000018005ddd8     c4_flightControlSystem.obj
 0003:00000de8       $SG25851                   000000018005dde8     c4_flightControlSystem.obj
 0003:00000e00       $SG25804                   000000018005de00     c4_flightControlSystem.obj
 0003:00000e48       $SG25854                   000000018005de48     c4_flightControlSystem.obj
 0003:00000e60       $SG25807                   000000018005de60     c4_flightControlSystem.obj
 0003:00000ea8       $SG25857                   000000018005dea8     c4_flightControlSystem.obj
 0003:00000ec0       $SG25810                   000000018005dec0     c4_flightControlSystem.obj
 0003:00000f20       $SG25812                   000000018005df20     c4_flightControlSystem.obj
 0003:00000f30       $SG25813                   000000018005df30     c4_flightControlSystem.obj
 0003:00000f78       $SG25860                   000000018005df78     c4_flightControlSystem.obj
 0003:00000f90       $SG25816                   000000018005df90     c4_flightControlSystem.obj
 0003:00000fe0       $SG25819                   000000018005dfe0     c4_flightControlSystem.obj
 0003:00001030       $SG25822                   000000018005e030     c4_flightControlSystem.obj
 0003:00001088       $SG25863                   000000018005e088     c4_flightControlSystem.obj
 0003:000010a0       $SG25825                   000000018005e0a0     c4_flightControlSystem.obj
 0003:000010f8       $SG25866                   000000018005e0f8     c4_flightControlSystem.obj
 0003:00001110       $SG25828                   000000018005e110     c4_flightControlSystem.obj
 0003:00001168       $SG25830                   000000018005e168     c4_flightControlSystem.obj
 0003:00001178       $SG25872                   000000018005e178     c4_flightControlSystem.obj
 0003:00001190       $SG25831                   000000018005e190     c4_flightControlSystem.obj
 0003:000011e8       $SG25833                   000000018005e1e8     c4_flightControlSystem.obj
 0003:000011f8       $SG25899                   000000018005e1f8     c4_flightControlSystem.obj
 0003:00001210       $SG25834                   000000018005e210     c4_flightControlSystem.obj
 0003:00001268       $SG25836                   000000018005e268     c4_flightControlSystem.obj
 0003:00001278       $SG25902                   000000018005e278     c4_flightControlSystem.obj
 0003:00001290       $SG25837                   000000018005e290     c4_flightControlSystem.obj
 0003:000012e8       $SG25839                   000000018005e2e8     c4_flightControlSystem.obj
 0003:000012f8       $SG25917                   000000018005e2f8     c4_flightControlSystem.obj
 0003:00001310       $SG25840                   000000018005e310     c4_flightControlSystem.obj
 0003:00001368       $SG25842                   000000018005e368     c4_flightControlSystem.obj
 0003:00001378       $SG25920                   000000018005e378     c4_flightControlSystem.obj
 0003:00001390       $SG25843                   000000018005e390     c4_flightControlSystem.obj
 0003:000013e8       $SG25845                   000000018005e3e8     c4_flightControlSystem.obj
 0003:000013f8       $SG25923                   000000018005e3f8     c4_flightControlSystem.obj
 0003:00001400       $SG25846                   000000018005e400     c4_flightControlSystem.obj
 0003:00001458       $SG25926                   000000018005e458     c4_flightControlSystem.obj
 0003:00001460       $SG25849                   000000018005e460     c4_flightControlSystem.obj
 0003:000014c0       $SG25852                   000000018005e4c0     c4_flightControlSystem.obj
 0003:00001520       $SG25855                   000000018005e520     c4_flightControlSystem.obj
 0003:00001580       $SG25858                   000000018005e580     c4_flightControlSystem.obj
 0003:000015e0       $SG25861                   000000018005e5e0     c4_flightControlSystem.obj
 0003:00001630       $SG25864                   000000018005e630     c4_flightControlSystem.obj
 0003:00001690       $SG25867                   000000018005e690     c4_flightControlSystem.obj
 0003:000016f0       $SG25869                   000000018005e6f0     c4_flightControlSystem.obj
 0003:00001700       $SG25870                   000000018005e700     c4_flightControlSystem.obj
 0003:00001758       $SG25929                   000000018005e758     c4_flightControlSystem.obj
 0003:00001760       $SG25873                   000000018005e760     c4_flightControlSystem.obj
 0003:000017c0       $SG25875                   000000018005e7c0     c4_flightControlSystem.obj
 0003:000017d0       $SG25876                   000000018005e7d0     c4_flightControlSystem.obj
 0003:00001828       $SG25932                   000000018005e828     c4_flightControlSystem.obj
 0003:00001830       $SG25879                   000000018005e830     c4_flightControlSystem.obj
 0003:00001870       $SG25881                   000000018005e870     c4_flightControlSystem.obj
 0003:00001880       $SG25882                   000000018005e880     c4_flightControlSystem.obj
 0003:000018d0       $SG25884                   000000018005e8d0     c4_flightControlSystem.obj
 0003:000018f0       $SG25885                   000000018005e8f0     c4_flightControlSystem.obj
 0003:00001950       $SG25887                   000000018005e950     c4_flightControlSystem.obj
 0003:00001960       $SG25888                   000000018005e960     c4_flightControlSystem.obj
 0003:000019b8       $SG25890                   000000018005e9b8     c4_flightControlSystem.obj
 0003:000019c8       $SG25935                   000000018005e9c8     c4_flightControlSystem.obj
 0003:000019d0       $SG25891                   000000018005e9d0     c4_flightControlSystem.obj
 0003:00001a28       $SG25893                   000000018005ea28     c4_flightControlSystem.obj
 0003:00001a38       $SG25938                   000000018005ea38     c4_flightControlSystem.obj
 0003:00001a40       $SG25894                   000000018005ea40     c4_flightControlSystem.obj
 0003:00001a98       $SG25896                   000000018005ea98     c4_flightControlSystem.obj
 0003:00001aa8       $SG25941                   000000018005eaa8     c4_flightControlSystem.obj
 0003:00001ab0       $SG25897                   000000018005eab0     c4_flightControlSystem.obj
 0003:00001b08       $SG25947                   000000018005eb08     c4_flightControlSystem.obj
 0003:00001b10       $SG25900                   000000018005eb10     c4_flightControlSystem.obj
 0003:00001b70       $SG25903                   000000018005eb70     c4_flightControlSystem.obj
 0003:00001bd0       $SG25906                   000000018005ebd0     c4_flightControlSystem.obj
 0003:00001c18       $SG25914                   000000018005ec18     c4_flightControlSystem.obj
 0003:00001c28       $SG25950                   000000018005ec28     c4_flightControlSystem.obj
 0003:00001c30       $SG25909                   000000018005ec30     c4_flightControlSystem.obj
 0003:00001c78       $SG25953                   000000018005ec78     c4_flightControlSystem.obj
 0003:00001c80       $SG25912                   000000018005ec80     c4_flightControlSystem.obj
 0003:00001cc8       $SG25956                   000000018005ecc8     c4_flightControlSystem.obj
 0003:00001cd0       $SG25915                   000000018005ecd0     c4_flightControlSystem.obj
 0003:00001d28       $SG25959                   000000018005ed28     c4_flightControlSystem.obj
 0003:00001d30       $SG25918                   000000018005ed30     c4_flightControlSystem.obj
 0003:00001d90       $SG25921                   000000018005ed90     c4_flightControlSystem.obj
 0003:00001df0       $SG25924                   000000018005edf0     c4_flightControlSystem.obj
 0003:00001e38       $SG25962                   000000018005ee38     c4_flightControlSystem.obj
 0003:00001e40       $SG25927                   000000018005ee40     c4_flightControlSystem.obj
 0003:00001e88       $SG25965                   000000018005ee88     c4_flightControlSystem.obj
 0003:00001e90       $SG25930                   000000018005ee90     c4_flightControlSystem.obj
 0003:00001ed8       $SG25968                   000000018005eed8     c4_flightControlSystem.obj
 0003:00001ee0       $SG25933                   000000018005eee0     c4_flightControlSystem.obj
 0003:00001f28       $SG25971                   000000018005ef28     c4_flightControlSystem.obj
 0003:00001f30       $SG25936                   000000018005ef30     c4_flightControlSystem.obj
 0003:00001f78       $SG25974                   000000018005ef78     c4_flightControlSystem.obj
 0003:00001f80       $SG25939                   000000018005ef80     c4_flightControlSystem.obj
 0003:00001fc8       $SG25977                   000000018005efc8     c4_flightControlSystem.obj
 0003:00001fd0       $SG25942                   000000018005efd0     c4_flightControlSystem.obj
 0003:00002018       $SG25944                   000000018005f018     c4_flightControlSystem.obj
 0003:00002028       $SG25980                   000000018005f028     c4_flightControlSystem.obj
 0003:00002030       $SG25945                   000000018005f030     c4_flightControlSystem.obj
 0003:00002088       $SG25983                   000000018005f088     c4_flightControlSystem.obj
 0003:00002090       $SG25948                   000000018005f090     c4_flightControlSystem.obj
 0003:000020e0       $SG25951                   000000018005f0e0     c4_flightControlSystem.obj
 0003:00002130       $SG25954                   000000018005f130     c4_flightControlSystem.obj
 0003:00002180       $SG25957                   000000018005f180     c4_flightControlSystem.obj
 0003:000021d0       $SG25960                   000000018005f1d0     c4_flightControlSystem.obj
 0003:00002220       $SG25963                   000000018005f220     c4_flightControlSystem.obj
 0003:00002270       $SG25966                   000000018005f270     c4_flightControlSystem.obj
 0003:000022c0       $SG25969                   000000018005f2c0     c4_flightControlSystem.obj
 0003:00002310       $SG25972                   000000018005f310     c4_flightControlSystem.obj
 0003:00002360       $SG25975                   000000018005f360     c4_flightControlSystem.obj
 0003:000023b0       $SG25978                   000000018005f3b0     c4_flightControlSystem.obj
 0003:00002400       $SG25981                   000000018005f400     c4_flightControlSystem.obj
 0003:00002450       $SG25984                   000000018005f450     c4_flightControlSystem.obj
 0003:000024a0       $SG25986                   000000018005f4a0     c4_flightControlSystem.obj
 0003:000024a8       $SG25989                   000000018005f4a8     c4_flightControlSystem.obj
 0003:000024b0       $SG25987                   000000018005f4b0     c4_flightControlSystem.obj
 0003:00002500       $SG25990                   000000018005f500     c4_flightControlSystem.obj
 0003:00002550       $SG25992                   000000018005f550     c4_flightControlSystem.obj
 0003:00002558       $SG25995                   000000018005f558     c4_flightControlSystem.obj
 0003:00002560       $SG25993                   000000018005f560     c4_flightControlSystem.obj
 0003:000025b0       $SG25996                   000000018005f5b0     c4_flightControlSystem.obj
 0003:00002600       $SG25998                   000000018005f600     c4_flightControlSystem.obj
 0003:00002608       $SG26001                   000000018005f608     c4_flightControlSystem.obj
 0003:00002610       $SG25999                   000000018005f610     c4_flightControlSystem.obj
 0003:00002660       $SG26002                   000000018005f660     c4_flightControlSystem.obj
 0003:000026b0       $SG26004                   000000018005f6b0     c4_flightControlSystem.obj
 0003:000026b8       $SG26007                   000000018005f6b8     c4_flightControlSystem.obj
 0003:000026c0       $SG26005                   000000018005f6c0     c4_flightControlSystem.obj
 0003:00002710       $SG26008                   000000018005f710     c4_flightControlSystem.obj
 0003:00002760       $SG26010                   000000018005f760     c4_flightControlSystem.obj
 0003:00002770       $SG26011                   000000018005f770     c4_flightControlSystem.obj
 0003:000027c8       $SG26013                   000000018005f7c8     c4_flightControlSystem.obj
 0003:000027d8       $SG26019                   000000018005f7d8     c4_flightControlSystem.obj
 0003:000027e8       $SG26022                   000000018005f7e8     c4_flightControlSystem.obj
 0003:000027f8       $SG26052                   000000018005f7f8     c4_flightControlSystem.obj
 0003:00002810       $SG26014                   000000018005f810     c4_flightControlSystem.obj
 0003:00002868       $SG26016                   000000018005f868     c4_flightControlSystem.obj
 0003:00002878       $SG26025                   000000018005f878     c4_flightControlSystem.obj
 0003:00002888       $SG26055                   000000018005f888     c4_flightControlSystem.obj
 0003:000028a0       $SG26017                   000000018005f8a0     c4_flightControlSystem.obj
 0003:000028f8       $SG26028                   000000018005f8f8     c4_flightControlSystem.obj
 0003:00002908       $SG26058                   000000018005f908     c4_flightControlSystem.obj
 0003:00002920       $SG26020                   000000018005f920     c4_flightControlSystem.obj
 0003:00002978       $SG26061                   000000018005f978     c4_flightControlSystem.obj
 0003:00002990       $SG26023                   000000018005f990     c4_flightControlSystem.obj
 0003:000029d8       $SG26040                   000000018005f9d8     c4_flightControlSystem.obj
 0003:000029e8       $SG26064                   000000018005f9e8     c4_flightControlSystem.obj
 0003:00002a00       $SG26026                   000000018005fa00     c4_flightControlSystem.obj
 0003:00002a48       $SG26043                   000000018005fa48     c4_flightControlSystem.obj
 0003:00002a58       $SG26067                   000000018005fa58     c4_flightControlSystem.obj
 0003:00002a70       $SG26029                   000000018005fa70     c4_flightControlSystem.obj
 0003:00002ab8       $SG26031                   000000018005fab8     c4_flightControlSystem.obj
 0003:00002ac4       $SG26124                   000000018005fac4     c4_flightControlSystem.obj
 0003:00002ad0       $SG26032                   000000018005fad0     c4_flightControlSystem.obj
 0003:00002b38       $SG26034                   000000018005fb38     c4_flightControlSystem.obj
 0003:00002b44       $SG26169                   000000018005fb44     c4_flightControlSystem.obj
 0003:00002b50       $SG26035                   000000018005fb50     c4_flightControlSystem.obj
 0003:00002bb8       $SG26037                   000000018005fbb8     c4_flightControlSystem.obj
 0003:00002bc4       $SG26175                   000000018005fbc4     c4_flightControlSystem.obj
 0003:00002bd0       $SG26038                   000000018005fbd0     c4_flightControlSystem.obj
 0003:00002c38       $SG26046                   000000018005fc38     c4_flightControlSystem.obj
 0003:00002c48       $SG26070                   000000018005fc48     c4_flightControlSystem.obj
 0003:00002c60       $SG26041                   000000018005fc60     c4_flightControlSystem.obj
 0003:00002ca8       $SG26091                   000000018005fca8     c4_flightControlSystem.obj
 0003:00002cb0       $SG26044                   000000018005fcb0     c4_flightControlSystem.obj
 0003:00002cf8       $SG26094                   000000018005fcf8     c4_flightControlSystem.obj
 0003:00002d10       $SG26047                   000000018005fd10     c4_flightControlSystem.obj
 0003:00002d58       $SG26049                   000000018005fd58     c4_flightControlSystem.obj
 0003:00002d68       $SG26097                   000000018005fd68     c4_flightControlSystem.obj
 0003:00002d80       $SG26050                   000000018005fd80     c4_flightControlSystem.obj
 0003:00002dc8       $SG26100                   000000018005fdc8     c4_flightControlSystem.obj
 0003:00002de0       $SG26053                   000000018005fde0     c4_flightControlSystem.obj
 0003:00002e50       $SG26056                   000000018005fe50     c4_flightControlSystem.obj
 0003:00002ec0       $SG26059                   000000018005fec0     c4_flightControlSystem.obj
 0003:00002f30       $SG26062                   000000018005ff30     c4_flightControlSystem.obj
 0003:00002fa0       $SG26065                   000000018005ffa0     c4_flightControlSystem.obj
 0003:00003010       $SG26068                   0000000180060010     c4_flightControlSystem.obj
 0003:00003080       $SG26071                   0000000180060080     c4_flightControlSystem.obj
 0003:000030f0       $SG26074                   00000001800600f0     c4_flightControlSystem.obj
 0003:00003138       $SG26103                   0000000180060138     c4_flightControlSystem.obj
 0003:00003150       $SG26077                   0000000180060150     c4_flightControlSystem.obj
 0003:00003198       $SG26106                   0000000180060198     c4_flightControlSystem.obj
 0003:000031b0       $SG26080                   00000001800601b0     c4_flightControlSystem.obj
 0003:000031f8       $SG26082                   00000001800601f8     c4_flightControlSystem.obj
 0003:00003218       $SG26109                   0000000180060218     c4_flightControlSystem.obj
 0003:00003230       $SG26083                   0000000180060230     c4_flightControlSystem.obj
 0003:00003290       $SG26085                   0000000180060290     c4_flightControlSystem.obj
 0003:000032b0       $SG26086                   00000001800602b0     c4_flightControlSystem.obj
 0003:00003310       $SG26089                   0000000180060310     c4_flightControlSystem.obj
 0003:00003354       $SG26178                   0000000180060354     c4_flightControlSystem.obj
 0003:00003360       $SG26092                   0000000180060360     c4_flightControlSystem.obj
 0003:000033b0       $SG26095                   00000001800603b0     c4_flightControlSystem.obj
 0003:00003410       $SG26098                   0000000180060410     c4_flightControlSystem.obj
 0003:00003470       $SG26101                   0000000180060470     c4_flightControlSystem.obj
 0003:000034d0       $SG26104                   00000001800604d0     c4_flightControlSystem.obj
 0003:00003530       $SG26107                   0000000180060530     c4_flightControlSystem.obj
 0003:00003590       $SG26110                   0000000180060590     c4_flightControlSystem.obj
 0003:000035f0       $SG26112                   00000001800605f0     c4_flightControlSystem.obj
 0003:00003604       $SG26406                   0000000180060604     c4_flightControlSystem.obj
 0003:00003610       $SG26113                   0000000180060610     c4_flightControlSystem.obj
 0003:00003670       $SG26115                   0000000180060670     c4_flightControlSystem.obj
 0003:00003684       $SG26424                   0000000180060684     c4_flightControlSystem.obj
 0003:00003690       $SG26116                   0000000180060690     c4_flightControlSystem.obj
 0003:000036f0       $SG26118                   00000001800606f0     c4_flightControlSystem.obj
 0003:00003704       $SG26808                   0000000180060704     c4_flightControlSystem.obj
 0003:00003710       $SG26119                   0000000180060710     c4_flightControlSystem.obj
 0003:00003770       $SG26121                   0000000180060770     c4_flightControlSystem.obj
 0003:00003784       $SG26811                   0000000180060784     c4_flightControlSystem.obj
 0003:00003790       $SG26122                   0000000180060790     c4_flightControlSystem.obj
 0003:000037f0       $SG26125                   00000001800607f0     c4_flightControlSystem.obj
 0003:00003838       $SG26127                   0000000180060838     c4_flightControlSystem.obj
 0003:00003858       $SG26133                   0000000180060858     c4_flightControlSystem.obj
 0003:00003870       $SG26128                   0000000180060870     c4_flightControlSystem.obj
 0003:000038d0       $SG26131                   00000001800608d0     c4_flightControlSystem.obj
 0003:00003918       $SG26136                   0000000180060918     c4_flightControlSystem.obj
 0003:00003930       $SG26134                   0000000180060930     c4_flightControlSystem.obj
 0003:000039a0       $SG26137                   00000001800609a0     c4_flightControlSystem.obj
 0003:00003a10       $SG26139                   0000000180060a10     c4_flightControlSystem.obj
 0003:00003a28       $SG26142                   0000000180060a28     c4_flightControlSystem.obj
 0003:00003a40       $SG26140                   0000000180060a40     c4_flightControlSystem.obj
 0003:00003ab0       $SG26143                   0000000180060ab0     c4_flightControlSystem.obj
 0003:00003b20       $SG26145                   0000000180060b20     c4_flightControlSystem.obj
 0003:00003b40       $SG26146                   0000000180060b40     c4_flightControlSystem.obj
 0003:00003bb8       $SG26148                   0000000180060bb8     c4_flightControlSystem.obj
 0003:00003bc8       $SG26151                   0000000180060bc8     c4_flightControlSystem.obj
 0003:00003be0       $SG26149                   0000000180060be0     c4_flightControlSystem.obj
 0003:00003c48       $SG26154                   0000000180060c48     c4_flightControlSystem.obj
 0003:00003c60       $SG26152                   0000000180060c60     c4_flightControlSystem.obj
 0003:00003cd0       $SG26155                   0000000180060cd0     c4_flightControlSystem.obj
 0003:00003d40       $SG26157                   0000000180060d40     c4_flightControlSystem.obj
 0003:00003d50       $SG26158                   0000000180060d50     c4_flightControlSystem.obj
 0003:00003da8       $SG26160                   0000000180060da8     c4_flightControlSystem.obj
 0003:00003db4       $SG26814                   0000000180060db4     c4_flightControlSystem.obj
 0003:00003dc0       $SG26161                   0000000180060dc0     c4_flightControlSystem.obj
 0003:00003e18       $SG26163                   0000000180060e18     c4_flightControlSystem.obj
 0003:00003e24       $SG26817                   0000000180060e24     c4_flightControlSystem.obj
 0003:00003e30       $SG26164                   0000000180060e30     c4_flightControlSystem.obj
 0003:00003e88       $SG26166                   0000000180060e88     c4_flightControlSystem.obj
 0003:00003e94       $SG26820                   0000000180060e94     c4_flightControlSystem.obj
 0003:00003ea0       $SG26167                   0000000180060ea0     c4_flightControlSystem.obj
 0003:00003ef8       $SG26172                   0000000180060ef8     c4_flightControlSystem.obj
 0003:00003f10       $SG26170                   0000000180060f10     c4_flightControlSystem.obj
 0003:00003f58       $SG26190                   0000000180060f58     c4_flightControlSystem.obj
 0003:00003f68       $SG26208                   0000000180060f68     c4_flightControlSystem.obj
 0003:00003f70       $SG26173                   0000000180060f70     c4_flightControlSystem.obj
 0003:00003fc8       $SG26211                   0000000180060fc8     c4_flightControlSystem.obj
 0003:00003fd0       $SG26176                   0000000180060fd0     c4_flightControlSystem.obj
 0003:00004020       $SG26179                   0000000180061020     c4_flightControlSystem.obj
 0003:00004070       $SG26182                   0000000180061070     c4_flightControlSystem.obj
 0003:000040b8       $SG26184                   00000001800610b8     c4_flightControlSystem.obj
 0003:000040c8       $SG26193                   00000001800610c8     c4_flightControlSystem.obj
 0003:000040d8       $SG26214                   00000001800610d8     c4_flightControlSystem.obj
 0003:000040e0       $SG26185                   00000001800610e0     c4_flightControlSystem.obj
 0003:00004130       $SG26187                   0000000180061130     c4_flightControlSystem.obj
 0003:00004140       $SG26188                   0000000180061140     c4_flightControlSystem.obj
 0003:00004190       $SG26191                   0000000180061190     c4_flightControlSystem.obj
 0003:000041e0       $SG26194                   00000001800611e0     c4_flightControlSystem.obj
 0003:00004230       $SG26196                   0000000180061230     c4_flightControlSystem.obj
 0003:00004240       $SG26197                   0000000180061240     c4_flightControlSystem.obj
 0003:00004290       $SG26199                   0000000180061290     c4_flightControlSystem.obj
 0003:000042a0       $SG26200                   00000001800612a0     c4_flightControlSystem.obj
 0003:000042f0       $SG26202                   00000001800612f0     c4_flightControlSystem.obj
 0003:00004300       $SG26203                   0000000180061300     c4_flightControlSystem.obj
 0003:00004350       $SG26205                   0000000180061350     c4_flightControlSystem.obj
 0003:00004360       $SG26206                   0000000180061360     c4_flightControlSystem.obj
 0003:000043b0       $SG26209                   00000001800613b0     c4_flightControlSystem.obj
 0003:000043f8       $SG26223                   00000001800613f8     c4_flightControlSystem.obj
 0003:00004410       $SG26212                   0000000180061410     c4_flightControlSystem.obj
 0003:00004458       $SG26226                   0000000180061458     c4_flightControlSystem.obj
 0003:00004470       $SG26215                   0000000180061470     c4_flightControlSystem.obj
 0003:000044b8       $SG26229                   00000001800614b8     c4_flightControlSystem.obj
 0003:000044c8       $SG26277                   00000001800614c8     c4_flightControlSystem.obj
 0003:000044e0       $SG26218                   00000001800614e0     c4_flightControlSystem.obj
 0003:00004528       $SG26280                   0000000180061528     c4_flightControlSystem.obj
 0003:00004540       $SG26221                   0000000180061540     c4_flightControlSystem.obj
 0003:00004588       $SG26283                   0000000180061588     c4_flightControlSystem.obj
 0003:000045a0       $SG26224                   00000001800615a0     c4_flightControlSystem.obj
 0003:00004610       $SG26227                   0000000180061610     c4_flightControlSystem.obj
 0003:00004680       $SG26230                   0000000180061680     c4_flightControlSystem.obj
 0003:000046d8       $SG26241                   00000001800616d8     c4_flightControlSystem.obj
 0003:000046f8       $SG26265                   00000001800616f8     c4_flightControlSystem.obj
 0003:00004718       $SG26286                   0000000180061718     c4_flightControlSystem.obj
 0003:00004730       $SG26233                   0000000180061730     c4_flightControlSystem.obj
 0003:00004778       $SG26289                   0000000180061778     c4_flightControlSystem.obj
 0003:00004790       $SG26236                   0000000180061790     c4_flightControlSystem.obj
 0003:000047d8       $SG26292                   00000001800617d8     c4_flightControlSystem.obj
 0003:000047f0       $SG26239                   00000001800617f0     c4_flightControlSystem.obj
 0003:00004838       $SG26295                   0000000180061838     c4_flightControlSystem.obj
 0003:00004850       $SG26242                   0000000180061850     c4_flightControlSystem.obj
 0003:000048b0       $SG26244                   00000001800618b0     c4_flightControlSystem.obj
 0003:000048d0       $SG26245                   00000001800618d0     c4_flightControlSystem.obj
 0003:00004930       $SG26247                   0000000180061930     c4_flightControlSystem.obj
 0003:00004950       $SG26248                   0000000180061950     c4_flightControlSystem.obj
 0003:000049b0       $SG26250                   00000001800619b0     c4_flightControlSystem.obj
 0003:000049e0       $SG26251                   00000001800619e0     c4_flightControlSystem.obj
 0003:00004a00       $SG26253                   0000000180061a00     c4_flightControlSystem.obj
 0003:00004a30       $SG26254                   0000000180061a30     c4_flightControlSystem.obj
 0003:00004a50       $SG26256                   0000000180061a50     c4_flightControlSystem.obj
 0003:00004a80       $SG26257                   0000000180061a80     c4_flightControlSystem.obj
 0003:00004aa0       $SG26259                   0000000180061aa0     c4_flightControlSystem.obj
 0003:00004ad0       $SG26260                   0000000180061ad0     c4_flightControlSystem.obj
 0003:00004af0       $SG26262                   0000000180061af0     c4_flightControlSystem.obj
 0003:00004b20       $SG26263                   0000000180061b20     c4_flightControlSystem.obj
 0003:00004b40       $SG26266                   0000000180061b40     c4_flightControlSystem.obj
 0003:00004bb8       $SG26268                   0000000180061bb8     c4_flightControlSystem.obj
 0003:00004bd8       $SG26298                   0000000180061bd8     c4_flightControlSystem.obj
 0003:00004bf0       $SG26269                   0000000180061bf0     c4_flightControlSystem.obj
 0003:00004c68       $SG26271                   0000000180061c68     c4_flightControlSystem.obj
 0003:00004c88       $SG26301                   0000000180061c88     c4_flightControlSystem.obj
 0003:00004ca0       $SG26272                   0000000180061ca0     c4_flightControlSystem.obj
 0003:00004d18       $SG26274                   0000000180061d18     c4_flightControlSystem.obj
 0003:00004d38       $SG26304                   0000000180061d38     c4_flightControlSystem.obj
 0003:00004d50       $SG26275                   0000000180061d50     c4_flightControlSystem.obj
 0003:00004dc8       $SG26307                   0000000180061dc8     c4_flightControlSystem.obj
 0003:00004de0       $SG26278                   0000000180061de0     c4_flightControlSystem.obj
 0003:00004e30       $SG26281                   0000000180061e30     c4_flightControlSystem.obj
 0003:00004e80       $SG26284                   0000000180061e80     c4_flightControlSystem.obj
 0003:00004ed0       $SG26287                   0000000180061ed0     c4_flightControlSystem.obj
 0003:00004f20       $SG26290                   0000000180061f20     c4_flightControlSystem.obj
 0003:00004f70       $SG26293                   0000000180061f70     c4_flightControlSystem.obj
 0003:00004fc0       $SG26296                   0000000180061fc0     c4_flightControlSystem.obj
 0003:00005010       $SG26299                   0000000180062010     c4_flightControlSystem.obj
 0003:00005060       $SG26302                   0000000180062060     c4_flightControlSystem.obj
 0003:000050b0       $SG26305                   00000001800620b0     c4_flightControlSystem.obj
 0003:00005100       $SG26308                   0000000180062100     c4_flightControlSystem.obj
 0003:00005150       $SG26310                   0000000180062150     c4_flightControlSystem.obj
 0003:00005160       $SG26311                   0000000180062160     c4_flightControlSystem.obj
 0003:000051b8       $SG26313                   00000001800621b8     c4_flightControlSystem.obj
 0003:000051c8       $SG26316                   00000001800621c8     c4_flightControlSystem.obj
 0003:000051e0       $SG26314                   00000001800621e0     c4_flightControlSystem.obj
 0003:00005238       $SG26319                   0000000180062238     c4_flightControlSystem.obj
 0003:00005250       $SG26317                   0000000180062250     c4_flightControlSystem.obj
 0003:000052b0       $SG26320                   00000001800622b0     c4_flightControlSystem.obj
 0003:00005310       $SG26322                   0000000180062310     c4_flightControlSystem.obj
 0003:00005320       $SG26323                   0000000180062320     c4_flightControlSystem.obj
 0003:00005378       $SG26325                   0000000180062378     c4_flightControlSystem.obj
 0003:00005388       $SG26334                   0000000180062388     c4_flightControlSystem.obj
 0003:000053a0       $SG26326                   00000001800623a0     c4_flightControlSystem.obj
 0003:000053f8       $SG26328                   00000001800623f8     c4_flightControlSystem.obj
 0003:00005408       $SG26337                   0000000180062408     c4_flightControlSystem.obj
 0003:00005420       $SG26329                   0000000180062420     c4_flightControlSystem.obj
 0003:00005478       $SG26331                   0000000180062478     c4_flightControlSystem.obj
 0003:00005488       $SG26340                   0000000180062488     c4_flightControlSystem.obj
 0003:000054a0       $SG26332                   00000001800624a0     c4_flightControlSystem.obj
 0003:000054f8       $SG26343                   00000001800624f8     c4_flightControlSystem.obj
 0003:00005510       $SG26335                   0000000180062510     c4_flightControlSystem.obj
 0003:00005570       $SG26338                   0000000180062570     c4_flightControlSystem.obj
 0003:000055d0       $SG26341                   00000001800625d0     c4_flightControlSystem.obj
 0003:00005630       $SG26344                   0000000180062630     c4_flightControlSystem.obj
 0003:00005690       $SG26346                   0000000180062690     c4_flightControlSystem.obj
 0003:000056a8       $SG26349                   00000001800626a8     c4_flightControlSystem.obj
 0003:000056b8       $SG26352                   00000001800626b8     c4_flightControlSystem.obj
 0003:000056c8       $SG26379                   00000001800626c8     c4_flightControlSystem.obj
 0003:000056e0       $SG26347                   00000001800626e0     c4_flightControlSystem.obj
 0003:00005740       $SG26350                   0000000180062740     c4_flightControlSystem.obj
 0003:00005798       $SG26400                   0000000180062798     c4_flightControlSystem.obj
 0003:000057b0       $SG26353                   00000001800627b0     c4_flightControlSystem.obj
 0003:00005808       $SG26355                   0000000180062808     c4_flightControlSystem.obj
 0003:00005818       $SG26403                   0000000180062818     c4_flightControlSystem.obj
 0003:00005830       $SG26356                   0000000180062830     c4_flightControlSystem.obj
 0003:00005888       $SG26358                   0000000180062888     c4_flightControlSystem.obj
 0003:00005898       $SG26409                   0000000180062898     c4_flightControlSystem.obj
 0003:000058b0       $SG26359                   00000001800628b0     c4_flightControlSystem.obj
 0003:00005908       $SG26361                   0000000180062908     c4_flightControlSystem.obj
 0003:00005918       $SG26412                   0000000180062918     c4_flightControlSystem.obj
 0003:00005930       $SG26362                   0000000180062930     c4_flightControlSystem.obj
 0003:00005988       $SG26364                   0000000180062988     c4_flightControlSystem.obj
 0003:00005998       $SG26415                   0000000180062998     c4_flightControlSystem.obj
 0003:000059b0       $SG26365                   00000001800629b0     c4_flightControlSystem.obj
 0003:00005a08       $SG26367                   0000000180062a08     c4_flightControlSystem.obj
 0003:00005a18       $SG26418                   0000000180062a18     c4_flightControlSystem.obj
 0003:00005a30       $SG26368                   0000000180062a30     c4_flightControlSystem.obj
 0003:00005a88       $SG26427                   0000000180062a88     c4_flightControlSystem.obj
 0003:00005a90       $SG26371                   0000000180062a90     c4_flightControlSystem.obj
 0003:00005ad8       $SG26373                   0000000180062ad8     c4_flightControlSystem.obj
 0003:00005ae8       $SG26430                   0000000180062ae8     c4_flightControlSystem.obj
 0003:00005af0       $SG26374                   0000000180062af0     c4_flightControlSystem.obj
 0003:00005b48       $SG26376                   0000000180062b48     c4_flightControlSystem.obj
 0003:00005b58       $SG26433                   0000000180062b58     c4_flightControlSystem.obj
 0003:00005b60       $SG26377                   0000000180062b60     c4_flightControlSystem.obj
 0003:00005bb8       $SG26436                   0000000180062bb8     c4_flightControlSystem.obj
 0003:00005bc0       $SG26380                   0000000180062bc0     c4_flightControlSystem.obj
 0003:00005c20       $SG26382                   0000000180062c20     c4_flightControlSystem.obj
 0003:00005c30       $SG26383                   0000000180062c30     c4_flightControlSystem.obj
 0003:00005c88       $SG26385                   0000000180062c88     c4_flightControlSystem.obj
 0003:00005c98       $SG26388                   0000000180062c98     c4_flightControlSystem.obj
 0003:00005ca8       $SG26463                   0000000180062ca8     c4_flightControlSystem.obj
 0003:00005cc0       $SG26386                   0000000180062cc0     c4_flightControlSystem.obj
 0003:00005d18       $SG26469                   0000000180062d18     c4_flightControlSystem.obj
 0003:00005d28       $SG26490                   0000000180062d28     c4_flightControlSystem.obj
 0003:00005d40       $SG26389                   0000000180062d40     c4_flightControlSystem.obj
 0003:00005d98       $SG26391                   0000000180062d98     c4_flightControlSystem.obj
 0003:00005da8       $SG26394                   0000000180062da8     c4_flightControlSystem.obj
 0003:00005db8       $SG26475                   0000000180062db8     c4_flightControlSystem.obj
 0003:00005dc8       $SG26493                   0000000180062dc8     c4_flightControlSystem.obj
 0003:00005de0       $SG26392                   0000000180062de0     c4_flightControlSystem.obj
 0003:00005e38       $SG26496                   0000000180062e38     c4_flightControlSystem.obj
 0003:00005e50       $SG26395                   0000000180062e50     c4_flightControlSystem.obj
 0003:00005eb0       $SG26398                   0000000180062eb0     c4_flightControlSystem.obj
 0003:00005ef8       $SG26421                   0000000180062ef8     c4_flightControlSystem.obj
 0003:00005f08       $SG26478                   0000000180062f08     c4_flightControlSystem.obj
 0003:00005f18       $SG26499                   0000000180062f18     c4_flightControlSystem.obj
 0003:00005f30       $SG26401                   0000000180062f30     c4_flightControlSystem.obj
 0003:00005f90       $SG26404                   0000000180062f90     c4_flightControlSystem.obj
 0003:00005ff0       $SG26407                   0000000180062ff0     c4_flightControlSystem.obj
 0003:00006038       $SG26439                   0000000180063038     c4_flightControlSystem.obj
 0003:00006048       $SG26454                   0000000180063048     c4_flightControlSystem.obj
 0003:00006058       $SG26481                   0000000180063058     c4_flightControlSystem.obj
 0003:00006068       $SG26502                   0000000180063068     c4_flightControlSystem.obj
 0003:00006080       $SG26410                   0000000180063080     c4_flightControlSystem.obj
 0003:000060e0       $SG26413                   00000001800630e0     c4_flightControlSystem.obj
 0003:00006140       $SG26416                   0000000180063140     c4_flightControlSystem.obj
 0003:000061a0       $SG26419                   00000001800631a0     c4_flightControlSystem.obj
 0003:00006200       $SG26422                   0000000180063200     c4_flightControlSystem.obj
 0003:00006258       $SG26505                   0000000180063258     c4_flightControlSystem.obj
 0003:00006270       $SG26425                   0000000180063270     c4_flightControlSystem.obj
 0003:000062b8       $SG26484                   00000001800632b8     c4_flightControlSystem.obj
 0003:000062c8       $SG26607                   00000001800632c8     c4_flightControlSystem.obj
 0003:000062e0       $SG26428                   00000001800632e0     c4_flightControlSystem.obj
 0003:00006330       $SG26431                   0000000180063330     c4_flightControlSystem.obj
 0003:00006380       $SG26434                   0000000180063380     c4_flightControlSystem.obj
 0003:000063d0       $SG26437                   00000001800633d0     c4_flightControlSystem.obj
 0003:00006420       $SG26440                   0000000180063420     c4_flightControlSystem.obj
 0003:00006478       $SG26442                   0000000180063478     c4_flightControlSystem.obj
 0003:00006488       $SG26457                   0000000180063488     c4_flightControlSystem.obj
 0003:00006498       $SG26487                   0000000180063498     c4_flightControlSystem.obj
 0003:000064a8       $SG26610                   00000001800634a8     c4_flightControlSystem.obj
 0003:000064c0       $SG26443                   00000001800634c0     c4_flightControlSystem.obj
 0003:00006518       $SG26445                   0000000180063518     c4_flightControlSystem.obj
 0003:00006528       $SG26460                   0000000180063528     c4_flightControlSystem.obj
 0003:00006538       $SG26508                   0000000180063538     c4_flightControlSystem.obj
 0003:00006548       $SG26613                   0000000180063548     c4_flightControlSystem.obj
 0003:00006560       $SG26446                   0000000180063560     c4_flightControlSystem.obj
 0003:000065b8       $SG26448                   00000001800635b8     c4_flightControlSystem.obj
 0003:000065c8       $SG26511                   00000001800635c8     c4_flightControlSystem.obj
 0003:000065d8       $SG26616                   00000001800635d8     c4_flightControlSystem.obj
 0003:000065f0       $SG26449                   00000001800635f0     c4_flightControlSystem.obj
 0003:00006648       $SG26451                   0000000180063648     c4_flightControlSystem.obj
 0003:00006658       $SG26514                   0000000180063658     c4_flightControlSystem.obj
 0003:00006668       $SG26619                   0000000180063668     c4_flightControlSystem.obj
 0003:00006680       $SG26452                   0000000180063680     c4_flightControlSystem.obj
 0003:000066d8       $SG26517                   00000001800636d8     c4_flightControlSystem.obj
 0003:000066e8       $SG26622                   00000001800636e8     c4_flightControlSystem.obj
 0003:00006700       $SG26455                   0000000180063700     c4_flightControlSystem.obj
 0003:00006758       $SG26649                   0000000180063758     c4_flightControlSystem.obj
 0003:00006770       $SG26458                   0000000180063770     c4_flightControlSystem.obj
 0003:000067c8       $SG26652                   00000001800637c8     c4_flightControlSystem.obj
 0003:000067e0       $SG26461                   00000001800637e0     c4_flightControlSystem.obj
 0003:00006838       $SG26655                   0000000180063838     c4_flightControlSystem.obj
 0003:00006850       $SG26464                   0000000180063850     c4_flightControlSystem.obj
 0003:000068b0       $SG26466                   00000001800638b0     c4_flightControlSystem.obj
 0003:000068c0       $SG26467                   00000001800638c0     c4_flightControlSystem.obj
 0003:00006928       $SG26520                   0000000180063928     c4_flightControlSystem.obj
 0003:00006938       $SG26658                   0000000180063938     c4_flightControlSystem.obj
 0003:00006950       $SG26470                   0000000180063950     c4_flightControlSystem.obj
 0003:00006998       $SG26472                   0000000180063998     c4_flightControlSystem.obj
 0003:000069a4       $SG27148                   00000001800639a4     c4_flightControlSystem.obj
 0003:000069b0       $SG26473                   00000001800639b0     c4_flightControlSystem.obj
 0003:00006a18       $SG26523                   0000000180063a18     c4_flightControlSystem.obj
 0003:00006a28       $SG26661                   0000000180063a28     c4_flightControlSystem.obj
 0003:00006a40       $SG26476                   0000000180063a40     c4_flightControlSystem.obj
 0003:00006a88       $SG26526                   0000000180063a88     c4_flightControlSystem.obj
 0003:00006a98       $SG26664                   0000000180063a98     c4_flightControlSystem.obj
 0003:00006ab0       $SG26479                   0000000180063ab0     c4_flightControlSystem.obj
 0003:00006af8       $SG26529                   0000000180063af8     c4_flightControlSystem.obj
 0003:00006b08       $SG26667                   0000000180063b08     c4_flightControlSystem.obj
 0003:00006b20       $SG26482                   0000000180063b20     c4_flightControlSystem.obj
 0003:00006b68       $SG26532                   0000000180063b68     c4_flightControlSystem.obj
 0003:00006b78       $SG26670                   0000000180063b78     c4_flightControlSystem.obj
 0003:00006b90       $SG26485                   0000000180063b90     c4_flightControlSystem.obj
 0003:00006bd8       $SG26535                   0000000180063bd8     c4_flightControlSystem.obj
 0003:00006be8       $SG26673                   0000000180063be8     c4_flightControlSystem.obj
 0003:00006c00       $SG26488                   0000000180063c00     c4_flightControlSystem.obj
 0003:00006c48       $SG26538                   0000000180063c48     c4_flightControlSystem.obj
 0003:00006c58       $SG26676                   0000000180063c58     c4_flightControlSystem.obj
 0003:00006c70       $SG26491                   0000000180063c70     c4_flightControlSystem.obj
 0003:00006ce0       $SG26494                   0000000180063ce0     c4_flightControlSystem.obj
 0003:00006d50       $SG26497                   0000000180063d50     c4_flightControlSystem.obj
 0003:00006dc0       $SG26500                   0000000180063dc0     c4_flightControlSystem.obj
 0003:00006e30       $SG26503                   0000000180063e30     c4_flightControlSystem.obj
 0003:00006ea0       $SG26506                   0000000180063ea0     c4_flightControlSystem.obj
 0003:00006f10       $SG26509                   0000000180063f10     c4_flightControlSystem.obj
 0003:00006f58       $SG26541                   0000000180063f58     c4_flightControlSystem.obj
 0003:00006f68       $SG26679                   0000000180063f68     c4_flightControlSystem.obj
 0003:00006f80       $SG26512                   0000000180063f80     c4_flightControlSystem.obj
 0003:00006fc8       $SG26544                   0000000180063fc8     c4_flightControlSystem.obj
 0003:00006fd8       $SG26682                   0000000180063fd8     c4_flightControlSystem.obj
 0003:00006ff0       $SG26515                   0000000180063ff0     c4_flightControlSystem.obj
 0003:00007038       $SG26547                   0000000180064038     c4_flightControlSystem.obj
 0003:00007048       $SG26685                   0000000180064048     c4_flightControlSystem.obj
 0003:00007060       $SG26518                   0000000180064060     c4_flightControlSystem.obj
 0003:000070a8       $SG26550                   00000001800640a8     c4_flightControlSystem.obj
 0003:000070b8       $SG26691                   00000001800640b8     c4_flightControlSystem.obj
 0003:000070d0       $SG26521                   00000001800640d0     c4_flightControlSystem.obj
 0003:00007118       $SG26553                   0000000180064118     c4_flightControlSystem.obj
 0003:00007128       $SG26694                   0000000180064128     c4_flightControlSystem.obj
 0003:00007140       $SG26524                   0000000180064140     c4_flightControlSystem.obj
 0003:00007188       $SG26556                   0000000180064188     c4_flightControlSystem.obj
 0003:00007198       $SG26697                   0000000180064198     c4_flightControlSystem.obj
 0003:000071b0       $SG26527                   00000001800641b0     c4_flightControlSystem.obj
 0003:000071f8       $SG26559                   00000001800641f8     c4_flightControlSystem.obj
 0003:00007208       $SG26700                   0000000180064208     c4_flightControlSystem.obj
 0003:00007220       $SG26530                   0000000180064220     c4_flightControlSystem.obj
 0003:00007268       $SG26562                   0000000180064268     c4_flightControlSystem.obj
 0003:00007278       $SG26703                   0000000180064278     c4_flightControlSystem.obj
 0003:00007290       $SG26533                   0000000180064290     c4_flightControlSystem.obj
 0003:000072d8       $SG26565                   00000001800642d8     c4_flightControlSystem.obj
 0003:000072e8       $SG26706                   00000001800642e8     c4_flightControlSystem.obj
 0003:00007300       $SG26536                   0000000180064300     c4_flightControlSystem.obj
 0003:00007348       $SG26568                   0000000180064348     c4_flightControlSystem.obj
 0003:00007358       $SG26709                   0000000180064358     c4_flightControlSystem.obj
 0003:00007370       $SG26539                   0000000180064370     c4_flightControlSystem.obj
 0003:000073b8       $SG26571                   00000001800643b8     c4_flightControlSystem.obj
 0003:000073c8       $SG26712                   00000001800643c8     c4_flightControlSystem.obj
 0003:000073e0       $SG26542                   00000001800643e0     c4_flightControlSystem.obj
 0003:00007428       $SG26574                   0000000180064428     c4_flightControlSystem.obj
 0003:00007438       $SG26715                   0000000180064438     c4_flightControlSystem.obj
 0003:00007450       $SG26545                   0000000180064450     c4_flightControlSystem.obj
 0003:00007498       $SG26577                   0000000180064498     c4_flightControlSystem.obj
 0003:000074a8       $SG26733                   00000001800644a8     c4_flightControlSystem.obj
 0003:000074c0       $SG26548                   00000001800644c0     c4_flightControlSystem.obj
 0003:00007508       $SG26580                   0000000180064508     c4_flightControlSystem.obj
 0003:00007518       $SG26736                   0000000180064518     c4_flightControlSystem.obj
 0003:00007530       $SG26551                   0000000180064530     c4_flightControlSystem.obj
 0003:00007578       $SG26583                   0000000180064578     c4_flightControlSystem.obj
 0003:00007588       $SG26766                   0000000180064588     c4_flightControlSystem.obj
 0003:000075a0       $SG26554                   00000001800645a0     c4_flightControlSystem.obj
 0003:000075e8       $SG26586                   00000001800645e8     c4_flightControlSystem.obj
 0003:000075f8       $SG26772                   00000001800645f8     c4_flightControlSystem.obj
 0003:00007600       $SG26557                   0000000180064600     c4_flightControlSystem.obj
 0003:00007648       $SG26589                   0000000180064648     c4_flightControlSystem.obj
 0003:00007658       $SG26775                   0000000180064658     c4_flightControlSystem.obj
 0003:00007660       $SG26560                   0000000180064660     c4_flightControlSystem.obj
 0003:000076a8       $SG26592                   00000001800646a8     c4_flightControlSystem.obj
 0003:000076b8       $SG26778                   00000001800646b8     c4_flightControlSystem.obj
 0003:000076c0       $SG26563                   00000001800646c0     c4_flightControlSystem.obj
 0003:00007708       $SG26595                   0000000180064708     c4_flightControlSystem.obj
 0003:00007718       $SG26781                   0000000180064718     c4_flightControlSystem.obj
 0003:00007720       $SG26566                   0000000180064720     c4_flightControlSystem.obj
 0003:00007768       $SG26598                   0000000180064768     c4_flightControlSystem.obj
 0003:00007778       $SG26784                   0000000180064778     c4_flightControlSystem.obj
 0003:00007780       $SG26569                   0000000180064780     c4_flightControlSystem.obj
 0003:000077c8       $SG26793                   00000001800647c8     c4_flightControlSystem.obj
 0003:000077e0       $SG26572                   00000001800647e0     c4_flightControlSystem.obj
 0003:00007828       $SG26802                   0000000180064828     c4_flightControlSystem.obj
 0003:00007830       $SG26575                   0000000180064830     c4_flightControlSystem.obj
 0003:00007878       $SG26805                   0000000180064878     c4_flightControlSystem.obj
 0003:00007890       $SG26578                   0000000180064890     c4_flightControlSystem.obj
 0003:000078d8       $SG26823                   00000001800648d8     c4_flightControlSystem.obj
 0003:000078e0       $SG26581                   00000001800648e0     c4_flightControlSystem.obj
 0003:00007928       $SG26826                   0000000180064928     c4_flightControlSystem.obj
 0003:00007930       $SG26584                   0000000180064930     c4_flightControlSystem.obj
 0003:00007978       $SG26829                   0000000180064978     c4_flightControlSystem.obj
 0003:00007980       $SG26587                   0000000180064980     c4_flightControlSystem.obj
 0003:000079c8       $SG26832                   00000001800649c8     c4_flightControlSystem.obj
 0003:000079d0       $SG26590                   00000001800649d0     c4_flightControlSystem.obj
 0003:00007a18       $SG26835                   0000000180064a18     c4_flightControlSystem.obj
 0003:00007a20       $SG26593                   0000000180064a20     c4_flightControlSystem.obj
 0003:00007a68       $SG26838                   0000000180064a68     c4_flightControlSystem.obj
 0003:00007a70       $SG26596                   0000000180064a70     c4_flightControlSystem.obj
 0003:00007ab8       $SG26841                   0000000180064ab8     c4_flightControlSystem.obj
 0003:00007ac0       $SG26599                   0000000180064ac0     c4_flightControlSystem.obj
 0003:00007b08       $SG26601                   0000000180064b08     c4_flightControlSystem.obj
 0003:00007b18       $SG26844                   0000000180064b18     c4_flightControlSystem.obj
 0003:00007b28       $SG26856                   0000000180064b28     c4_flightControlSystem.obj
 0003:00007b40       $SG26602                   0000000180064b40     c4_flightControlSystem.obj
 0003:00007b88       $SG26604                   0000000180064b88     c4_flightControlSystem.obj
 0003:00007b98       $SG26847                   0000000180064b98     c4_flightControlSystem.obj
 0003:00007ba8       $SG26859                   0000000180064ba8     c4_flightControlSystem.obj
 0003:00007bc0       $SG26605                   0000000180064bc0     c4_flightControlSystem.obj
 0003:00007c08       $SG26688                   0000000180064c08     c4_flightControlSystem.obj
 0003:00007c18       $SG26850                   0000000180064c18     c4_flightControlSystem.obj
 0003:00007c28       $SG26862                   0000000180064c28     c4_flightControlSystem.obj
 0003:00007c40       $SG26608                   0000000180064c40     c4_flightControlSystem.obj
 0003:00007cb0       $SG26611                   0000000180064cb0     c4_flightControlSystem.obj
 0003:00007d20       $SG26614                   0000000180064d20     c4_flightControlSystem.obj
 0003:00007d90       $SG26617                   0000000180064d90     c4_flightControlSystem.obj
 0003:00007e00       $SG26620                   0000000180064e00     c4_flightControlSystem.obj
 0003:00007e70       $SG26623                   0000000180064e70     c4_flightControlSystem.obj
 0003:00007ee0       $SG26625                   0000000180064ee0     c4_flightControlSystem.obj
 0003:00007f00       $SG26626                   0000000180064f00     c4_flightControlSystem.obj
 0003:00007f78       $SG26628                   0000000180064f78     c4_flightControlSystem.obj
 0003:00007f98       $SG26718                   0000000180064f98     c4_flightControlSystem.obj
 0003:00007fa4       $SG27184                   0000000180064fa4     c4_flightControlSystem.obj
 0003:00007fb0       $SG26629                   0000000180064fb0     c4_flightControlSystem.obj
 0003:00008028       $SG26631                   0000000180065028     c4_flightControlSystem.obj
 0003:00008038       $SG26721                   0000000180065038     c4_flightControlSystem.obj
 0003:00008044       $SG27196                   0000000180065044     c4_flightControlSystem.obj
 0003:00008050       $SG26632                   0000000180065050     c4_flightControlSystem.obj
 0003:000080b8       $SG26634                   00000001800650b8     c4_flightControlSystem.obj
 0003:000080c8       $SG26724                   00000001800650c8     c4_flightControlSystem.obj
 0003:000080d4       $SG27205                   00000001800650d4     c4_flightControlSystem.obj
 0003:000080e0       $SG26635                   00000001800650e0     c4_flightControlSystem.obj
 0003:00008148       $SG26637                   0000000180065148     c4_flightControlSystem.obj
 0003:00008158       $SG26730                   0000000180065158     c4_flightControlSystem.obj
 0003:00008164       $SG27214                   0000000180065164     c4_flightControlSystem.obj
 0003:00008170       $SG26638                   0000000180065170     c4_flightControlSystem.obj
 0003:000081d8       $SG26640                   00000001800651d8     c4_flightControlSystem.obj
 0003:000081e8       $SG26739                   00000001800651e8     c4_flightControlSystem.obj
 0003:000081f4       $SG27220                   00000001800651f4     c4_flightControlSystem.obj
 0003:00008200       $SG26641                   0000000180065200     c4_flightControlSystem.obj
 0003:00008268       $SG26643                   0000000180065268     c4_flightControlSystem.obj
 0003:00008278       $SG26742                   0000000180065278     c4_flightControlSystem.obj
 0003:00008288       $SG26853                   0000000180065288     c4_flightControlSystem.obj
 0003:00008298       $SG26874                   0000000180065298     c4_flightControlSystem.obj
 0003:000082b0       $SG26644                   00000001800652b0     c4_flightControlSystem.obj
 0003:00008318       $SG26646                   0000000180065318     c4_flightControlSystem.obj
 0003:00008328       $SG26745                   0000000180065328     c4_flightControlSystem.obj
 0003:00008338       $SG26877                   0000000180065338     c4_flightControlSystem.obj
 0003:00008350       $SG26647                   0000000180065350     c4_flightControlSystem.obj
 0003:000083b8       $SG26748                   00000001800653b8     c4_flightControlSystem.obj
 0003:000083d0       $SG26650                   00000001800653d0     c4_flightControlSystem.obj
 0003:00008440       $SG26653                   0000000180065440     c4_flightControlSystem.obj
 0003:000084b0       $SG26656                   00000001800654b0     c4_flightControlSystem.obj
 0003:00008520       $SG26659                   0000000180065520     c4_flightControlSystem.obj
 0003:00008590       $SG26662                   0000000180065590     c4_flightControlSystem.obj
 0003:00008600       $SG26665                   0000000180065600     c4_flightControlSystem.obj
 0003:00008670       $SG26668                   0000000180065670     c4_flightControlSystem.obj
 0003:000086e0       $SG26671                   00000001800656e0     c4_flightControlSystem.obj
 0003:00008750       $SG26674                   0000000180065750     c4_flightControlSystem.obj
 0003:000087c0       $SG26677                   00000001800657c0     c4_flightControlSystem.obj
 0003:00008830       $SG26680                   0000000180065830     c4_flightControlSystem.obj
 0003:000088a0       $SG26683                   00000001800658a0     c4_flightControlSystem.obj
 0003:00008910       $SG26686                   0000000180065910     c4_flightControlSystem.obj
 0003:00008980       $SG26689                   0000000180065980     c4_flightControlSystem.obj
 0003:000089c8       $SG26883                   00000001800659c8     c4_flightControlSystem.obj
 0003:000089e0       $SG26692                   00000001800659e0     c4_flightControlSystem.obj
 0003:00008a50       $SG26695                   0000000180065a50     c4_flightControlSystem.obj
 0003:00008ac0       $SG26698                   0000000180065ac0     c4_flightControlSystem.obj
 0003:00008b30       $SG26701                   0000000180065b30     c4_flightControlSystem.obj
 0003:00008ba0       $SG26704                   0000000180065ba0     c4_flightControlSystem.obj
 0003:00008c10       $SG26707                   0000000180065c10     c4_flightControlSystem.obj
 0003:00008c80       $SG26710                   0000000180065c80     c4_flightControlSystem.obj
 0003:00008cf0       $SG26713                   0000000180065cf0     c4_flightControlSystem.obj
 0003:00008d60       $SG26716                   0000000180065d60     c4_flightControlSystem.obj
 0003:00008dd0       $SG26719                   0000000180065dd0     c4_flightControlSystem.obj
 0003:00008e28       $SG26886                   0000000180065e28     c4_flightControlSystem.obj
 0003:00008e40       $SG26722                   0000000180065e40     c4_flightControlSystem.obj
 0003:00008e98       $SG26889                   0000000180065e98     c4_flightControlSystem.obj
 0003:00008eb0       $SG26725                   0000000180065eb0     c4_flightControlSystem.obj
 0003:00008f08       $SG26892                   0000000180065f08     c4_flightControlSystem.obj
 0003:00008f20       $SG26728                   0000000180065f20     c4_flightControlSystem.obj
 0003:00008f68       $SG26757                   0000000180065f68     c4_flightControlSystem.obj
 0003:00008f78       $SG26865                   0000000180065f78     c4_flightControlSystem.obj
 0003:00008f88       $SG26895                   0000000180065f88     c4_flightControlSystem.obj
 0003:00008fa0       $SG26731                   0000000180065fa0     c4_flightControlSystem.obj
 0003:00008ff8       $SG26898                   0000000180065ff8     c4_flightControlSystem.obj
 0003:00009010       $SG26734                   0000000180066010     c4_flightControlSystem.obj
 0003:00009080       $SG26737                   0000000180066080     c4_flightControlSystem.obj
 0003:000090f0       $SG26740                   00000001800660f0     c4_flightControlSystem.obj
 0003:00009148       $SG26901                   0000000180066148     c4_flightControlSystem.obj
 0003:00009160       $SG26743                   0000000180066160     c4_flightControlSystem.obj
 0003:000091b0       $SG26746                   00000001800661b0     c4_flightControlSystem.obj
 0003:00009200       $SG26749                   0000000180066200     c4_flightControlSystem.obj
 0003:00009258       $SG26904                   0000000180066258     c4_flightControlSystem.obj
 0003:00009270       $SG26752                   0000000180066270     c4_flightControlSystem.obj
 0003:000092b8       $SG26907                   00000001800662b8     c4_flightControlSystem.obj
 0003:000092d0       $SG26755                   00000001800662d0     c4_flightControlSystem.obj
 0003:00009318       $SG26910                   0000000180066318     c4_flightControlSystem.obj
 0003:00009330       $SG26758                   0000000180066330     c4_flightControlSystem.obj
 0003:00009388       $SG26913                   0000000180066388     c4_flightControlSystem.obj
 0003:000093a0       $SG26761                   00000001800663a0     c4_flightControlSystem.obj
 0003:000093e8       $SG26763                   00000001800663e8     c4_flightControlSystem.obj
 0003:000093f8       $SG26916                   00000001800663f8     c4_flightControlSystem.obj
 0003:00009410       $SG26764                   0000000180066410     c4_flightControlSystem.obj
 0003:00009468       $SG26919                   0000000180066468     c4_flightControlSystem.obj
 0003:00009480       $SG26767                   0000000180066480     c4_flightControlSystem.obj
 0003:000094f0       $SG26769                   00000001800664f0     c4_flightControlSystem.obj
 0003:00009500       $SG26770                   0000000180066500     c4_flightControlSystem.obj
 0003:00009558       $SG26922                   0000000180066558     c4_flightControlSystem.obj
 0003:00009570       $SG26773                   0000000180066570     c4_flightControlSystem.obj
 0003:000095b8       $SG26925                   00000001800665b8     c4_flightControlSystem.obj
 0003:000095d0       $SG26776                   00000001800665d0     c4_flightControlSystem.obj
 0003:00009618       $SG26931                   0000000180066618     c4_flightControlSystem.obj
 0003:00009630       $SG26779                   0000000180066630     c4_flightControlSystem.obj
 0003:00009678       $SG26934                   0000000180066678     c4_flightControlSystem.obj
 0003:00009690       $SG26782                   0000000180066690     c4_flightControlSystem.obj
 0003:000096d8       $SG26937                   00000001800666d8     c4_flightControlSystem.obj
 0003:000096f0       $SG26785                   00000001800666f0     c4_flightControlSystem.obj
 0003:00009738       $SG26787                   0000000180066738     c4_flightControlSystem.obj
 0003:00009748       $SG26940                   0000000180066748     c4_flightControlSystem.obj
 0003:00009760       $SG26788                   0000000180066760     c4_flightControlSystem.obj
 0003:000097b8       $SG26790                   00000001800667b8     c4_flightControlSystem.obj
 0003:000097c8       $SG26943                   00000001800667c8     c4_flightControlSystem.obj
 0003:000097e0       $SG26791                   00000001800667e0     c4_flightControlSystem.obj
 0003:00009838       $SG26958                   0000000180066838     c4_flightControlSystem.obj
 0003:00009850       $SG26794                   0000000180066850     c4_flightControlSystem.obj
 0003:000098c0       $SG26797                   00000001800668c0     c4_flightControlSystem.obj
 0003:00009908       $SG26799                   0000000180066908     c4_flightControlSystem.obj
 0003:00009918       $SG26946                   0000000180066918     c4_flightControlSystem.obj
 0003:00009938       $SG26961                   0000000180066938     c4_flightControlSystem.obj
 0003:00009948       $SG26970                   0000000180066948     c4_flightControlSystem.obj
 0003:00009960       $SG26800                   0000000180066960     c4_flightControlSystem.obj
 0003:000099b8       $SG26964                   00000001800669b8     c4_flightControlSystem.obj
 0003:000099c8       $SG26974                   00000001800669c8     c4_flightControlSystem.obj
 0003:000099e0       $SG26803                   00000001800669e0     c4_flightControlSystem.obj
 0003:00009a28       $SG26967                   0000000180066a28     c4_flightControlSystem.obj
 0003:00009a38       $SG26978                   0000000180066a38     c4_flightControlSystem.obj
 0003:00009a50       $SG26806                   0000000180066a50     c4_flightControlSystem.obj
 0003:00009ac0       $SG26809                   0000000180066ac0     c4_flightControlSystem.obj
 0003:00009b08       $SG27001                   0000000180066b08     c4_flightControlSystem.obj
 0003:00009b20       $SG26812                   0000000180066b20     c4_flightControlSystem.obj
 0003:00009b68       $SG27005                   0000000180066b68     c4_flightControlSystem.obj
 0003:00009b78       $SG27049                   0000000180066b78     c4_flightControlSystem.obj
 0003:00009b90       $SG26815                   0000000180066b90     c4_flightControlSystem.obj
 0003:00009bd8       $SG27009                   0000000180066bd8     c4_flightControlSystem.obj
 0003:00009be8       $SG27053                   0000000180066be8     c4_flightControlSystem.obj
 0003:00009c00       $SG26818                   0000000180066c00     c4_flightControlSystem.obj
 0003:00009c48       $SG27012                   0000000180066c48     c4_flightControlSystem.obj
 0003:00009c58       $SG27057                   0000000180066c58     c4_flightControlSystem.obj
 0003:00009c70       $SG26821                   0000000180066c70     c4_flightControlSystem.obj
 0003:00009cb8       $SG27016                   0000000180066cb8     c4_flightControlSystem.obj
 0003:00009cc8       $SG27061                   0000000180066cc8     c4_flightControlSystem.obj
 0003:00009ce0       $SG26824                   0000000180066ce0     c4_flightControlSystem.obj
 0003:00009d30       $SG26827                   0000000180066d30     c4_flightControlSystem.obj
 0003:00009d80       $SG26830                   0000000180066d80     c4_flightControlSystem.obj
 0003:00009dd0       $SG26833                   0000000180066dd0     c4_flightControlSystem.obj
 0003:00009e20       $SG26836                   0000000180066e20     c4_flightControlSystem.obj
 0003:00009e70       $SG26839                   0000000180066e70     c4_flightControlSystem.obj
 0003:00009ec0       $SG26842                   0000000180066ec0     c4_flightControlSystem.obj
 0003:00009f10       $SG26845                   0000000180066f10     c4_flightControlSystem.obj
 0003:00009f68       $SG27065                   0000000180066f68     c4_flightControlSystem.obj
 0003:00009f80       $SG26848                   0000000180066f80     c4_flightControlSystem.obj
 0003:00009fd8       $SG27069                   0000000180066fd8     c4_flightControlSystem.obj
 0003:00009ff0       $SG26851                   0000000180066ff0     c4_flightControlSystem.obj
 0003:0000a048       $SG27111                   0000000180067048     c4_flightControlSystem.obj
 0003:0000a060       $SG26854                   0000000180067060     c4_flightControlSystem.obj
 0003:0000a0b8       $SG27115                   00000001800670b8     c4_flightControlSystem.obj
 0003:0000a0d0       $SG26857                   00000001800670d0     c4_flightControlSystem.obj
 0003:0000a140       $SG26860                   0000000180067140     c4_flightControlSystem.obj
 0003:0000a198       $SG27020                   0000000180067198     c4_flightControlSystem.obj
 0003:0000a1a8       $SG27119                   00000001800671a8     c4_flightControlSystem.obj
 0003:0000a1c0       $SG26863                   00000001800671c0     c4_flightControlSystem.obj
 0003:0000a218       $SG27023                   0000000180067218     c4_flightControlSystem.obj
 0003:0000a228       $SG27123                   0000000180067228     c4_flightControlSystem.obj
 0003:0000a240       $SG26866                   0000000180067240     c4_flightControlSystem.obj
 0003:0000a290       $SG26869                   0000000180067290     c4_flightControlSystem.obj
 0003:0000a2d8       $SG26949                   00000001800672d8     c4_flightControlSystem.obj
 0003:0000a2f8       $SG26982                   00000001800672f8     c4_flightControlSystem.obj
 0003:0000a308       $SG27027                   0000000180067308     c4_flightControlSystem.obj
 0003:0000a318       $SG27127                   0000000180067318     c4_flightControlSystem.obj
 0003:0000a330       $SG26872                   0000000180067330     c4_flightControlSystem.obj
 0003:0000a378       $SG26952                   0000000180067378     c4_flightControlSystem.obj
 0003:0000a398       $SG26986                   0000000180067398     c4_flightControlSystem.obj
 0003:0000a3a8       $SG27031                   00000001800673a8     c4_flightControlSystem.obj
 0003:0000a3b8       $SG27131                   00000001800673b8     c4_flightControlSystem.obj
 0003:0000a3d0       $SG26875                   00000001800673d0     c4_flightControlSystem.obj
 0003:0000a430       $SG26878                   0000000180067430     c4_flightControlSystem.obj
 0003:0000a490       $SG26881                   0000000180067490     c4_flightControlSystem.obj
 0003:0000a4d8       $SG26990                   00000001800674d8     c4_flightControlSystem.obj
 0003:0000a4e8       $SG27034                   00000001800674e8     c4_flightControlSystem.obj
 0003:0000a4f8       $SG27135                   00000001800674f8     c4_flightControlSystem.obj
 0003:0000a510       $SG26884                   0000000180067510     c4_flightControlSystem.obj
 0003:0000a580       $SG26887                   0000000180067580     c4_flightControlSystem.obj
 0003:0000a5f0       $SG26890                   00000001800675f0     c4_flightControlSystem.obj
 0003:0000a660       $SG26893                   0000000180067660     c4_flightControlSystem.obj
 0003:0000a6b8       $SG27038                   00000001800676b8     c4_flightControlSystem.obj
 0003:0000a6c8       $SG27139                   00000001800676c8     c4_flightControlSystem.obj
 0003:0000a6e0       $SG26896                   00000001800676e0     c4_flightControlSystem.obj
 0003:0000a750       $SG26899                   0000000180067750     c4_flightControlSystem.obj
 0003:0000a7c0       $SG26902                   00000001800677c0     c4_flightControlSystem.obj
 0003:0000a830       $SG26905                   0000000180067830     c4_flightControlSystem.obj
 0003:0000a8a0       $SG26908                   00000001800678a0     c4_flightControlSystem.obj
 0003:0000a910       $SG26911                   0000000180067910     c4_flightControlSystem.obj
 0003:0000a980       $SG26914                   0000000180067980     c4_flightControlSystem.obj
 0003:0000a9f0       $SG26917                   00000001800679f0     c4_flightControlSystem.obj
 0003:0000aa60       $SG26920                   0000000180067a60     c4_flightControlSystem.obj
 0003:0000aad0       $SG26923                   0000000180067ad0     c4_flightControlSystem.obj
 0003:0000ab40       $SG26926                   0000000180067b40     c4_flightControlSystem.obj
 0003:0000ab98       $SG26928                   0000000180067b98     c4_flightControlSystem.obj
 0003:0000abb8       $SG26955                   0000000180067bb8     c4_flightControlSystem.obj
 0003:0000abd8       $SG26994                   0000000180067bd8     c4_flightControlSystem.obj
 0003:0000abe8       $SG27042                   0000000180067be8     c4_flightControlSystem.obj
 0003:0000abf8       $SG27142                   0000000180067bf8     c4_flightControlSystem.obj
 0003:0000ac10       $SG26929                   0000000180067c10     c4_flightControlSystem.obj
 0003:0000ac70       $SG26932                   0000000180067c70     c4_flightControlSystem.obj
 0003:0000ace0       $SG26935                   0000000180067ce0     c4_flightControlSystem.obj
 0003:0000ad50       $SG26938                   0000000180067d50     c4_flightControlSystem.obj
 0003:0000adc0       $SG26941                   0000000180067dc0     c4_flightControlSystem.obj
 0003:0000ae30       $SG26944                   0000000180067e30     c4_flightControlSystem.obj
 0003:0000aea0       $SG26947                   0000000180067ea0     c4_flightControlSystem.obj
 0003:0000af18       $SG26998                   0000000180067f18     c4_flightControlSystem.obj
 0003:0000af28       $SG27045                   0000000180067f28     c4_flightControlSystem.obj
 0003:0000af38       $SG27145                   0000000180067f38     c4_flightControlSystem.obj
 0003:0000af50       $SG26950                   0000000180067f50     c4_flightControlSystem.obj
 0003:0000afc8       $SG27073                   0000000180067fc8     c4_flightControlSystem.obj
 0003:0000afd8       $SG27151                   0000000180067fd8     c4_flightControlSystem.obj
 0003:0000aff0       $SG26953                   0000000180067ff0     c4_flightControlSystem.obj
 0003:0000b068       $SG27076                   0000000180068068     c4_flightControlSystem.obj
 0003:0000b078       $SG27154                   0000000180068078     c4_flightControlSystem.obj
 0003:0000b090       $SG26956                   0000000180068090     c4_flightControlSystem.obj
 0003:0000b108       $SG27080                   0000000180068108     c4_flightControlSystem.obj
 0003:0000b118       $SG27157                   0000000180068118     c4_flightControlSystem.obj
 0003:0000b128       $SG27160                   0000000180068128     c4_flightControlSystem.obj
 0003:0000b138       $SG27172                   0000000180068138     c4_flightControlSystem.obj
 0003:0000b150       $SG26959                   0000000180068150     c4_flightControlSystem.obj
 0003:0000b1b0       $SG26962                   00000001800681b0     c4_flightControlSystem.obj
 0003:0000b208       $SG27175                   0000000180068208     c4_flightControlSystem.obj
 0003:0000b220       $SG26965                   0000000180068220     c4_flightControlSystem.obj
 0003:0000b278       $SG27178                   0000000180068278     c4_flightControlSystem.obj
 0003:0000b290       $SG26968                   0000000180068290     c4_flightControlSystem.obj
 0003:0000b2e8       $SG27181                   00000001800682e8     c4_flightControlSystem.obj
 0003:0000b300       $SG26971                   0000000180068300     c4_flightControlSystem.obj
 0003:0000b360       $SG26975                   0000000180068360     c4_flightControlSystem.obj
 0003:0000b3c0       $SG26979                   00000001800683c0     c4_flightControlSystem.obj
 0003:0000b420       $SG26983                   0000000180068420     c4_flightControlSystem.obj
 0003:0000b478       $SG27163                   0000000180068478     c4_flightControlSystem.obj
 0003:0000b488       $SG27217                   0000000180068488     c4_flightControlSystem.obj
 0003:0000b490       $SG26987                   0000000180068490     c4_flightControlSystem.obj
 0003:0000b4e8       $SG27166                   00000001800684e8     c4_flightControlSystem.obj
 0003:0000b4f8       $SG27223                   00000001800684f8     c4_flightControlSystem.obj
 0003:0000b510       $SG26991                   0000000180068510     c4_flightControlSystem.obj
 0003:0000b568       $SG27169                   0000000180068568     c4_flightControlSystem.obj
 0003:0000b578       $SG27226                   0000000180068578     c4_flightControlSystem.obj
 0003:0000b590       $SG26995                   0000000180068590     c4_flightControlSystem.obj
 0003:0000b5e8       $SG27229                   00000001800685e8     c4_flightControlSystem.obj
 0003:0000b600       $SG26999                   0000000180068600     c4_flightControlSystem.obj
 0003:0000b658       $SG27232                   0000000180068658     c4_flightControlSystem.obj
 0003:0000b670       $SG27002                   0000000180068670     c4_flightControlSystem.obj
 0003:0000b6e0       $SG27006                   00000001800686e0     c4_flightControlSystem.obj
 0003:0000b728       $SG27235                   0000000180068728     c4_flightControlSystem.obj
 0003:0000b740       $SG27010                   0000000180068740     c4_flightControlSystem.obj
 0003:0000b788       $SG27241                   0000000180068788     c4_flightControlSystem.obj
 0003:0000b7a0       $SG27013                   00000001800687a0     c4_flightControlSystem.obj
 0003:0000b7f0       $SG27017                   00000001800687f0     c4_flightControlSystem.obj
 0003:0000b840       $SG27021                   0000000180068840     c4_flightControlSystem.obj
 0003:0000b890       $SG27024                   0000000180068890     c4_flightControlSystem.obj
 0003:0000b8e0       $SG27028                   00000001800688e0     c4_flightControlSystem.obj
 0003:0000b930       $SG27032                   0000000180068930     c4_flightControlSystem.obj
 0003:0000b980       $SG27035                   0000000180068980     c4_flightControlSystem.obj
 0003:0000b9d0       $SG27039                   00000001800689d0     c4_flightControlSystem.obj
 0003:0000ba20       $SG27043                   0000000180068a20     c4_flightControlSystem.obj
 0003:0000ba70       $SG27046                   0000000180068a70     c4_flightControlSystem.obj
 0003:0000bac0       $SG27050                   0000000180068ac0     c4_flightControlSystem.obj
 0003:0000bb30       $SG27054                   0000000180068b30     c4_flightControlSystem.obj
 0003:0000bba0       $SG27058                   0000000180068ba0     c4_flightControlSystem.obj
 0003:0000bc10       $SG27062                   0000000180068c10     c4_flightControlSystem.obj
 0003:0000bc80       $SG27066                   0000000180068c80     c4_flightControlSystem.obj
 0003:0000bcf0       $SG27070                   0000000180068cf0     c4_flightControlSystem.obj
 0003:0000bd60       $SG27074                   0000000180068d60     c4_flightControlSystem.obj
 0003:0000bdc0       $SG27077                   0000000180068dc0     c4_flightControlSystem.obj
 0003:0000be20       $SG27081                   0000000180068e20     c4_flightControlSystem.obj
 0003:0000be78       $SG27084                   0000000180068e78     c4_flightControlSystem.obj
 0003:0000be90       $SG27085                   0000000180068e90     c4_flightControlSystem.obj
 0003:0000bee8       $SG27088                   0000000180068ee8     c4_flightControlSystem.obj
 0003:0000bf00       $SG27089                   0000000180068f00     c4_flightControlSystem.obj
 0003:0000bf58       $SG27092                   0000000180068f58     c4_flightControlSystem.obj
 0003:0000bf70       $SG27093                   0000000180068f70     c4_flightControlSystem.obj
 0003:0000bfc8       $SG27096                   0000000180068fc8     c4_flightControlSystem.obj
 0003:0000bfe0       $SG27097                   0000000180068fe0     c4_flightControlSystem.obj
 0003:0000c038       $SG27100                   0000000180069038     c4_flightControlSystem.obj
 0003:0000c050       $SG27101                   0000000180069050     c4_flightControlSystem.obj
 0003:0000c0a8       $SG27103                   00000001800690a8     c4_flightControlSystem.obj
 0003:0000c0c0       $SG27104                   00000001800690c0     c4_flightControlSystem.obj
 0003:0000c118       $SG27107                   0000000180069118     c4_flightControlSystem.obj
 0003:0000c130       $SG27108                   0000000180069130     c4_flightControlSystem.obj
 0003:0000c190       $SG27112                   0000000180069190     c4_flightControlSystem.obj
 0003:0000c200       $SG27116                   0000000180069200     c4_flightControlSystem.obj
 0003:0000c270       $SG27120                   0000000180069270     c4_flightControlSystem.obj
 0003:0000c2e0       $SG27124                   00000001800692e0     c4_flightControlSystem.obj
 0003:0000c350       $SG27128                   0000000180069350     c4_flightControlSystem.obj
 0003:0000c3c0       $SG27132                   00000001800693c0     c4_flightControlSystem.obj
 0003:0000c430       $SG27136                   0000000180069430     c4_flightControlSystem.obj
 0003:0000c4a0       $SG27140                   00000001800694a0     c4_flightControlSystem.obj
 0003:0000c510       $SG27143                   0000000180069510     c4_flightControlSystem.obj
 0003:0000c580       $SG27146                   0000000180069580     c4_flightControlSystem.obj
 0003:0000c5f0       $SG27149                   00000001800695f0     c4_flightControlSystem.obj
 0003:0000c640       $SG27152                   0000000180069640     c4_flightControlSystem.obj
 0003:0000c6b0       $SG27155                   00000001800696b0     c4_flightControlSystem.obj
 0003:0000c720       $SG27158                   0000000180069720     c4_flightControlSystem.obj
 0003:0000c770       $SG27161                   0000000180069770     c4_flightControlSystem.obj
 0003:0000c7c0       $SG27164                   00000001800697c0     c4_flightControlSystem.obj
 0003:0000c810       $SG27167                   0000000180069810     c4_flightControlSystem.obj
 0003:0000c860       $SG27170                   0000000180069860     c4_flightControlSystem.obj
 0003:0000c8b0       $SG27173                   00000001800698b0     c4_flightControlSystem.obj
 0003:0000c900       $SG27176                   0000000180069900     c4_flightControlSystem.obj
 0003:0000c950       $SG27179                   0000000180069950     c4_flightControlSystem.obj
 0003:0000c9a0       $SG27182                   00000001800699a0     c4_flightControlSystem.obj
 0003:0000c9f0       $SG27185                   00000001800699f0     c4_flightControlSystem.obj
 0003:0000ca38       $SG27187                   0000000180069a38     c4_flightControlSystem.obj
 0003:0000ca50       $SG27188                   0000000180069a50     c4_flightControlSystem.obj
 0003:0000caa8       $SG27190                   0000000180069aa8     c4_flightControlSystem.obj
 0003:0000cac0       $SG27191                   0000000180069ac0     c4_flightControlSystem.obj
 0003:0000cb18       $SG27193                   0000000180069b18     c4_flightControlSystem.obj
 0003:0000cb30       $SG27194                   0000000180069b30     c4_flightControlSystem.obj
 0003:0000cb90       $SG27197                   0000000180069b90     c4_flightControlSystem.obj
 0003:0000cbd8       $SG27199                   0000000180069bd8     c4_flightControlSystem.obj
 0003:0000cbf0       $SG27200                   0000000180069bf0     c4_flightControlSystem.obj
 0003:0000cc48       $SG27202                   0000000180069c48     c4_flightControlSystem.obj
 0003:0000cc60       $SG27203                   0000000180069c60     c4_flightControlSystem.obj
 0003:0000ccc0       $SG27206                   0000000180069cc0     c4_flightControlSystem.obj
 0003:0000cd08       $SG27208                   0000000180069d08     c4_flightControlSystem.obj
 0003:0000cd20       $SG27209                   0000000180069d20     c4_flightControlSystem.obj
 0003:0000cd78       $SG27211                   0000000180069d78     c4_flightControlSystem.obj
 0003:0000cd90       $SG27212                   0000000180069d90     c4_flightControlSystem.obj
 0003:0000cdf0       $SG27215                   0000000180069df0     c4_flightControlSystem.obj
 0003:0000ce40       $SG27218                   0000000180069e40     c4_flightControlSystem.obj
 0003:0000ce90       $SG27221                   0000000180069e90     c4_flightControlSystem.obj
 0003:0000cee0       $SG27224                   0000000180069ee0     c4_flightControlSystem.obj
 0003:0000cf50       $SG27227                   0000000180069f50     c4_flightControlSystem.obj
 0003:0000cfc0       $SG27230                   0000000180069fc0     c4_flightControlSystem.obj
 0003:0000d030       $SG27233                   000000018006a030     c4_flightControlSystem.obj
 0003:0000d0a0       $SG27236                   000000018006a0a0     c4_flightControlSystem.obj
 0003:0000d110       $SG27238                   000000018006a110     c4_flightControlSystem.obj
 0003:0000d120       $SG27239                   000000018006a120     c4_flightControlSystem.obj
 0003:0000d180       $SG27242                   000000018006a180     c4_flightControlSystem.obj
 0003:0000d1c8       $SG27244                   000000018006a1c8     c4_flightControlSystem.obj
 0003:0000d1e0       $SG27245                   000000018006a1e0     c4_flightControlSystem.obj
 0003:0000d228       c4_emlrtMCI                000000018006a228     c4_flightControlSystem.obj
 0003:0000d240       c4_b_emlrtMCI              000000018006a240     c4_flightControlSystem.obj
 0003:0000d258       c4_c_emlrtMCI              000000018006a258     c4_flightControlSystem.obj
 0003:0000d270       c4_d_emlrtMCI              000000018006a270     c4_flightControlSystem.obj
 0003:0000d288       c4_e_emlrtMCI              000000018006a288     c4_flightControlSystem.obj
 0003:0000d2a0       c4_f_emlrtMCI              000000018006a2a0     c4_flightControlSystem.obj
 0003:0000d2b8       c4_g_emlrtMCI              000000018006a2b8     c4_flightControlSystem.obj
 0003:0000d2d0       c4_h_emlrtMCI              000000018006a2d0     c4_flightControlSystem.obj
 0003:0000d2e8       c4_i_emlrtMCI              000000018006a2e8     c4_flightControlSystem.obj
 0003:0000d300       c4_j_emlrtMCI              000000018006a300     c4_flightControlSystem.obj
 0003:0000d318       c4_k_emlrtMCI              000000018006a318     c4_flightControlSystem.obj
 0003:0000d330       c4_l_emlrtMCI              000000018006a330     c4_flightControlSystem.obj
 0003:0000d348       c4_m_emlrtMCI              000000018006a348     c4_flightControlSystem.obj
 0003:0000d360       c4_n_emlrtMCI              000000018006a360     c4_flightControlSystem.obj
 0003:0000d378       c4_o_emlrtMCI              000000018006a378     c4_flightControlSystem.obj
 0003:0000d390       c4_p_emlrtMCI              000000018006a390     c4_flightControlSystem.obj
 0003:0000d3a8       c4_q_emlrtMCI              000000018006a3a8     c4_flightControlSystem.obj
 0003:0000d3c0       c4_r_emlrtMCI              000000018006a3c0     c4_flightControlSystem.obj
 0003:0000d3d8       c4_t_emlrtMCI              000000018006a3d8     c4_flightControlSystem.obj
 0003:0000d3f0       c4_u_emlrtMCI              000000018006a3f0     c4_flightControlSystem.obj
 0003:0000d408       c4_v_emlrtMCI              000000018006a408     c4_flightControlSystem.obj
 0003:0000d420       c4_w_emlrtMCI              000000018006a420     c4_flightControlSystem.obj
 0003:0000d438       c4_x_emlrtMCI              000000018006a438     c4_flightControlSystem.obj
 0003:0000d450       c4_emlrtRSI                000000018006a450     c4_flightControlSystem.obj
 0003:0000d468       c4_b_emlrtRSI              000000018006a468     c4_flightControlSystem.obj
 0003:0000d480       c4_c_emlrtRSI              000000018006a480     c4_flightControlSystem.obj
 0003:0000d498       c4_d_emlrtRSI              000000018006a498     c4_flightControlSystem.obj
 0003:0000d4b0       c4_e_emlrtRSI              000000018006a4b0     c4_flightControlSystem.obj
 0003:0000d4c8       c4_f_emlrtRSI              000000018006a4c8     c4_flightControlSystem.obj
 0003:0000d4e0       c4_g_emlrtRSI              000000018006a4e0     c4_flightControlSystem.obj
 0003:0000d4f8       c4_h_emlrtRSI              000000018006a4f8     c4_flightControlSystem.obj
 0003:0000d510       c4_i_emlrtRSI              000000018006a510     c4_flightControlSystem.obj
 0003:0000d528       c4_j_emlrtRSI              000000018006a528     c4_flightControlSystem.obj
 0003:0000d540       c4_k_emlrtRSI              000000018006a540     c4_flightControlSystem.obj
 0003:0000d558       c4_m_emlrtRSI              000000018006a558     c4_flightControlSystem.obj
 0003:0000d570       c4_n_emlrtRSI              000000018006a570     c4_flightControlSystem.obj
 0003:0000d588       c4_o_emlrtRSI              000000018006a588     c4_flightControlSystem.obj
 0003:0000d5a0       c4_p_emlrtRSI              000000018006a5a0     c4_flightControlSystem.obj
 0003:0000d5b8       c4_q_emlrtRSI              000000018006a5b8     c4_flightControlSystem.obj
 0003:0000d5d0       c4_r_emlrtRSI              000000018006a5d0     c4_flightControlSystem.obj
 0003:0000d5e8       c4_s_emlrtRSI              000000018006a5e8     c4_flightControlSystem.obj
 0003:0000d600       c4_t_emlrtRSI              000000018006a600     c4_flightControlSystem.obj
 0003:0000d618       c4_u_emlrtRSI              000000018006a618     c4_flightControlSystem.obj
 0003:0000d630       c4_v_emlrtRSI              000000018006a630     c4_flightControlSystem.obj
 0003:0000d648       c4_w_emlrtRSI              000000018006a648     c4_flightControlSystem.obj
 0003:0000d660       c4_x_emlrtRSI              000000018006a660     c4_flightControlSystem.obj
 0003:0000d678       c4_y_emlrtRSI              000000018006a678     c4_flightControlSystem.obj
 0003:0000d690       c4_ab_emlrtRSI             000000018006a690     c4_flightControlSystem.obj
 0003:0000d6a8       c4_bb_emlrtRSI             000000018006a6a8     c4_flightControlSystem.obj
 0003:0000d6c0       c4_cb_emlrtRSI             000000018006a6c0     c4_flightControlSystem.obj
 0003:0000d6d8       c4_db_emlrtRSI             000000018006a6d8     c4_flightControlSystem.obj
 0003:0000d6f0       c4_eb_emlrtRSI             000000018006a6f0     c4_flightControlSystem.obj
 0003:0000d708       c4_fb_emlrtRSI             000000018006a708     c4_flightControlSystem.obj
 0003:0000d720       c4_gb_emlrtRSI             000000018006a720     c4_flightControlSystem.obj
 0003:0000d738       c4_hb_emlrtRSI             000000018006a738     c4_flightControlSystem.obj
 0003:0000d750       c4_ib_emlrtRSI             000000018006a750     c4_flightControlSystem.obj
 0003:0000d768       c4_jb_emlrtRSI             000000018006a768     c4_flightControlSystem.obj
 0003:0000d780       c4_kb_emlrtRSI             000000018006a780     c4_flightControlSystem.obj
 0003:0000d798       c4_lb_emlrtRSI             000000018006a798     c4_flightControlSystem.obj
 0003:0000d7b0       c4_mb_emlrtRSI             000000018006a7b0     c4_flightControlSystem.obj
 0003:0000d7c8       c4_nb_emlrtRSI             000000018006a7c8     c4_flightControlSystem.obj
 0003:0000d7e0       c4_ob_emlrtRSI             000000018006a7e0     c4_flightControlSystem.obj
 0003:0000d7f8       c4_pb_emlrtRSI             000000018006a7f8     c4_flightControlSystem.obj
 0003:0000d810       c4_qb_emlrtRSI             000000018006a810     c4_flightControlSystem.obj
 0003:0000d828       c4_rb_emlrtRSI             000000018006a828     c4_flightControlSystem.obj
 0003:0000d840       c4_sb_emlrtRSI             000000018006a840     c4_flightControlSystem.obj
 0003:0000d858       c4_tb_emlrtRSI             000000018006a858     c4_flightControlSystem.obj
 0003:0000d870       c4_ub_emlrtRSI             000000018006a870     c4_flightControlSystem.obj
 0003:0000d888       c4_vb_emlrtRSI             000000018006a888     c4_flightControlSystem.obj
 0003:0000d8a0       c4_wb_emlrtRSI             000000018006a8a0     c4_flightControlSystem.obj
 0003:0000d8b8       c4_xb_emlrtRSI             000000018006a8b8     c4_flightControlSystem.obj
 0003:0000d8d0       c4_yb_emlrtRSI             000000018006a8d0     c4_flightControlSystem.obj
 0003:0000d8e8       c4_ac_emlrtRSI             000000018006a8e8     c4_flightControlSystem.obj
 0003:0000d900       c4_bc_emlrtRSI             000000018006a900     c4_flightControlSystem.obj
 0003:0000d918       c4_cc_emlrtRSI             000000018006a918     c4_flightControlSystem.obj
 0003:0000d930       c4_dc_emlrtRSI             000000018006a930     c4_flightControlSystem.obj
 0003:0000d948       c4_ec_emlrtRSI             000000018006a948     c4_flightControlSystem.obj
 0003:0000d960       c4_fc_emlrtRSI             000000018006a960     c4_flightControlSystem.obj
 0003:0000d978       c4_gc_emlrtRSI             000000018006a978     c4_flightControlSystem.obj
 0003:0000d990       c4_hc_emlrtRSI             000000018006a990     c4_flightControlSystem.obj
 0003:0000d9a8       c4_ic_emlrtRSI             000000018006a9a8     c4_flightControlSystem.obj
 0003:0000d9c0       c4_jc_emlrtRSI             000000018006a9c0     c4_flightControlSystem.obj
 0003:0000d9d8       c4_kc_emlrtRSI             000000018006a9d8     c4_flightControlSystem.obj
 0003:0000d9f0       c4_lc_emlrtRSI             000000018006a9f0     c4_flightControlSystem.obj
 0003:0000da08       c4_mc_emlrtRSI             000000018006aa08     c4_flightControlSystem.obj
 0003:0000da20       c4_nc_emlrtRSI             000000018006aa20     c4_flightControlSystem.obj
 0003:0000da38       c4_oc_emlrtRSI             000000018006aa38     c4_flightControlSystem.obj
 0003:0000da50       c4_pc_emlrtRSI             000000018006aa50     c4_flightControlSystem.obj
 0003:0000da68       c4_qc_emlrtRSI             000000018006aa68     c4_flightControlSystem.obj
 0003:0000da80       c4_rc_emlrtRSI             000000018006aa80     c4_flightControlSystem.obj
 0003:0000da98       c4_sc_emlrtRSI             000000018006aa98     c4_flightControlSystem.obj
 0003:0000dab0       c4_tc_emlrtRSI             000000018006aab0     c4_flightControlSystem.obj
 0003:0000dac8       c4_uc_emlrtRSI             000000018006aac8     c4_flightControlSystem.obj
 0003:0000dae0       c4_vc_emlrtRSI             000000018006aae0     c4_flightControlSystem.obj
 0003:0000daf8       c4_wc_emlrtRSI             000000018006aaf8     c4_flightControlSystem.obj
 0003:0000db10       c4_xc_emlrtRSI             000000018006ab10     c4_flightControlSystem.obj
 0003:0000db28       c4_yc_emlrtRSI             000000018006ab28     c4_flightControlSystem.obj
 0003:0000db40       c4_ad_emlrtRSI             000000018006ab40     c4_flightControlSystem.obj
 0003:0000db58       c4_bd_emlrtRSI             000000018006ab58     c4_flightControlSystem.obj
 0003:0000db70       c4_cd_emlrtRSI             000000018006ab70     c4_flightControlSystem.obj
 0003:0000db88       c4_dd_emlrtRSI             000000018006ab88     c4_flightControlSystem.obj
 0003:0000dba0       c4_ed_emlrtRSI             000000018006aba0     c4_flightControlSystem.obj
 0003:0000dbb8       c4_fd_emlrtRSI             000000018006abb8     c4_flightControlSystem.obj
 0003:0000dbd0       c4_gd_emlrtRSI             000000018006abd0     c4_flightControlSystem.obj
 0003:0000dbe8       c4_hd_emlrtRSI             000000018006abe8     c4_flightControlSystem.obj
 0003:0000dc00       c4_id_emlrtRSI             000000018006ac00     c4_flightControlSystem.obj
 0003:0000dc18       c4_jd_emlrtRSI             000000018006ac18     c4_flightControlSystem.obj
 0003:0000dc30       c4_kd_emlrtRSI             000000018006ac30     c4_flightControlSystem.obj
 0003:0000dc48       c4_ld_emlrtRSI             000000018006ac48     c4_flightControlSystem.obj
 0003:0000dc60       c4_md_emlrtRSI             000000018006ac60     c4_flightControlSystem.obj
 0003:0000dc78       c4_nd_emlrtRSI             000000018006ac78     c4_flightControlSystem.obj
 0003:0000dc90       c4_od_emlrtRSI             000000018006ac90     c4_flightControlSystem.obj
 0003:0000dca8       c4_pd_emlrtRSI             000000018006aca8     c4_flightControlSystem.obj
 0003:0000dcc0       c4_qd_emlrtRSI             000000018006acc0     c4_flightControlSystem.obj
 0003:0000dcd8       c4_rd_emlrtRSI             000000018006acd8     c4_flightControlSystem.obj
 0003:0000dcf0       c4_sd_emlrtRSI             000000018006acf0     c4_flightControlSystem.obj
 0003:0000dd08       c4_td_emlrtRSI             000000018006ad08     c4_flightControlSystem.obj
 0003:0000dd20       c4_ud_emlrtRSI             000000018006ad20     c4_flightControlSystem.obj
 0003:0000dd38       c4_vd_emlrtRSI             000000018006ad38     c4_flightControlSystem.obj
 0003:0000dd50       c4_wd_emlrtRSI             000000018006ad50     c4_flightControlSystem.obj
 0003:0000dd68       c4_xd_emlrtRSI             000000018006ad68     c4_flightControlSystem.obj
 0003:0000dd80       c4_yd_emlrtRSI             000000018006ad80     c4_flightControlSystem.obj
 0003:0000dd98       c4_ae_emlrtRSI             000000018006ad98     c4_flightControlSystem.obj
 0003:0000ddb0       c4_be_emlrtRSI             000000018006adb0     c4_flightControlSystem.obj
 0003:0000ddc8       c4_ce_emlrtRSI             000000018006adc8     c4_flightControlSystem.obj
 0003:0000dde0       c4_de_emlrtRSI             000000018006ade0     c4_flightControlSystem.obj
 0003:0000ddf8       c4_ee_emlrtRSI             000000018006adf8     c4_flightControlSystem.obj
 0003:0000de10       c4_fe_emlrtRSI             000000018006ae10     c4_flightControlSystem.obj
 0003:0000de28       c4_ge_emlrtRSI             000000018006ae28     c4_flightControlSystem.obj
 0003:0000de40       c4_he_emlrtRSI             000000018006ae40     c4_flightControlSystem.obj
 0003:0000de58       c4_ie_emlrtRSI             000000018006ae58     c4_flightControlSystem.obj
 0003:0000de70       c4_je_emlrtRSI             000000018006ae70     c4_flightControlSystem.obj
 0003:0000de88       c4_pe_emlrtRSI             000000018006ae88     c4_flightControlSystem.obj
 0003:0000dea0       c4_qe_emlrtRSI             000000018006aea0     c4_flightControlSystem.obj
 0003:0000deb8       c4_re_emlrtRSI             000000018006aeb8     c4_flightControlSystem.obj
 0003:0000ded0       c4_se_emlrtRSI             000000018006aed0     c4_flightControlSystem.obj
 0003:0000dee8       c4_te_emlrtRSI             000000018006aee8     c4_flightControlSystem.obj
 0003:0000df00       c4_ue_emlrtRSI             000000018006af00     c4_flightControlSystem.obj
 0003:0000df18       c4_ve_emlrtRSI             000000018006af18     c4_flightControlSystem.obj
 0003:0000df30       c4_we_emlrtRSI             000000018006af30     c4_flightControlSystem.obj
 0003:0000df48       c4_xe_emlrtRSI             000000018006af48     c4_flightControlSystem.obj
 0003:0000df60       c4_ye_emlrtRSI             000000018006af60     c4_flightControlSystem.obj
 0003:0000df78       c4_af_emlrtRSI             000000018006af78     c4_flightControlSystem.obj
 0003:0000df90       c4_bf_emlrtRSI             000000018006af90     c4_flightControlSystem.obj
 0003:0000dfa8       c4_cf_emlrtRSI             000000018006afa8     c4_flightControlSystem.obj
 0003:0000dfc0       c4_df_emlrtRSI             000000018006afc0     c4_flightControlSystem.obj
 0003:0000dfd8       c4_ef_emlrtRSI             000000018006afd8     c4_flightControlSystem.obj
 0003:0000dff0       c4_ff_emlrtRSI             000000018006aff0     c4_flightControlSystem.obj
 0003:0000e008       c4_gf_emlrtRSI             000000018006b008     c4_flightControlSystem.obj
 0003:0000e020       c4_hf_emlrtRSI             000000018006b020     c4_flightControlSystem.obj
 0003:0000e038       c4_if_emlrtRSI             000000018006b038     c4_flightControlSystem.obj
 0003:0000e050       c4_jf_emlrtRSI             000000018006b050     c4_flightControlSystem.obj
 0003:0000e068       c4_kf_emlrtRSI             000000018006b068     c4_flightControlSystem.obj
 0003:0000e080       c4_lf_emlrtRSI             000000018006b080     c4_flightControlSystem.obj
 0003:0000e098       c4_mf_emlrtRSI             000000018006b098     c4_flightControlSystem.obj
 0003:0000e0b0       c4_nf_emlrtRSI             000000018006b0b0     c4_flightControlSystem.obj
 0003:0000e0c8       c4_of_emlrtRSI             000000018006b0c8     c4_flightControlSystem.obj
 0003:0000e0e0       c4_pf_emlrtRSI             000000018006b0e0     c4_flightControlSystem.obj
 0003:0000e0f8       c4_qf_emlrtRSI             000000018006b0f8     c4_flightControlSystem.obj
 0003:0000e110       c4_rf_emlrtRSI             000000018006b110     c4_flightControlSystem.obj
 0003:0000e128       c4_sf_emlrtRSI             000000018006b128     c4_flightControlSystem.obj
 0003:0000e140       c4_tf_emlrtRSI             000000018006b140     c4_flightControlSystem.obj
 0003:0000e158       c4_uf_emlrtRSI             000000018006b158     c4_flightControlSystem.obj
 0003:0000e170       c4_vf_emlrtRSI             000000018006b170     c4_flightControlSystem.obj
 0003:0000e188       c4_wf_emlrtRSI             000000018006b188     c4_flightControlSystem.obj
 0003:0000e1a0       c4_xf_emlrtRSI             000000018006b1a0     c4_flightControlSystem.obj
 0003:0000e1b8       c4_yf_emlrtRSI             000000018006b1b8     c4_flightControlSystem.obj
 0003:0000e1d0       c4_ag_emlrtRSI             000000018006b1d0     c4_flightControlSystem.obj
 0003:0000e1e8       c4_bg_emlrtRSI             000000018006b1e8     c4_flightControlSystem.obj
 0003:0000e200       c4_dg_emlrtRSI             000000018006b200     c4_flightControlSystem.obj
 0003:0000e218       c4_eg_emlrtRSI             000000018006b218     c4_flightControlSystem.obj
 0003:0000e230       c4_fg_emlrtRSI             000000018006b230     c4_flightControlSystem.obj
 0003:0000e248       c4_gg_emlrtRSI             000000018006b248     c4_flightControlSystem.obj
 0003:0000e260       c4_emlrtRTEI               000000018006b260     c4_flightControlSystem.obj
 0003:0000e278       c4_b_emlrtRTEI             000000018006b278     c4_flightControlSystem.obj
 0003:0000e290       c4_c_emlrtRTEI             000000018006b290     c4_flightControlSystem.obj
 0003:0000e2a8       c4_d_emlrtRTEI             000000018006b2a8     c4_flightControlSystem.obj
 0003:0000e2c0       c4_e_emlrtRTEI             000000018006b2c0     c4_flightControlSystem.obj
 0003:0000e2d8       c4_f_emlrtRTEI             000000018006b2d8     c4_flightControlSystem.obj
 0003:0000e2f0       c4_g_emlrtRTEI             000000018006b2f0     c4_flightControlSystem.obj
 0003:0000e308       c4_h_emlrtRTEI             000000018006b308     c4_flightControlSystem.obj
 0003:0000e320       c4_i_emlrtRTEI             000000018006b320     c4_flightControlSystem.obj
 0003:0000e338       c4_j_emlrtRTEI             000000018006b338     c4_flightControlSystem.obj
 0003:0000e350       c4_k_emlrtRTEI             000000018006b350     c4_flightControlSystem.obj
 0003:0000e368       c4_l_emlrtRTEI             000000018006b368     c4_flightControlSystem.obj
 0003:0000e380       c4_m_emlrtRTEI             000000018006b380     c4_flightControlSystem.obj
 0003:0000e398       c4_n_emlrtRTEI             000000018006b398     c4_flightControlSystem.obj
 0003:0000e3b0       c4_o_emlrtRTEI             000000018006b3b0     c4_flightControlSystem.obj
 0003:0000e3c8       c4_p_emlrtRTEI             000000018006b3c8     c4_flightControlSystem.obj
 0003:0000e3e0       c4_q_emlrtRTEI             000000018006b3e0     c4_flightControlSystem.obj
 0003:0000e3f8       c4_r_emlrtRTEI             000000018006b3f8     c4_flightControlSystem.obj
 0003:0000e410       c4_s_emlrtRTEI             000000018006b410     c4_flightControlSystem.obj
 0003:0000e428       c4_t_emlrtRTEI             000000018006b428     c4_flightControlSystem.obj
 0003:0000e440       c4_u_emlrtRTEI             000000018006b440     c4_flightControlSystem.obj
 0003:0000e458       c4_v_emlrtRTEI             000000018006b458     c4_flightControlSystem.obj
 0003:0000e470       c4_w_emlrtRTEI             000000018006b470     c4_flightControlSystem.obj
 0003:0000e488       c4_x_emlrtRTEI             000000018006b488     c4_flightControlSystem.obj
 0003:0000e4a0       c4_y_emlrtRTEI             000000018006b4a0     c4_flightControlSystem.obj
 0003:0000e4b8       c4_ab_emlrtRTEI            000000018006b4b8     c4_flightControlSystem.obj
 0003:0000e4d0       c4_bb_emlrtRTEI            000000018006b4d0     c4_flightControlSystem.obj
 0003:0000e4e8       c4_cb_emlrtRTEI            000000018006b4e8     c4_flightControlSystem.obj
 0003:0000e500       c4_db_emlrtRTEI            000000018006b500     c4_flightControlSystem.obj
 0003:0000e518       c4_eb_emlrtRTEI            000000018006b518     c4_flightControlSystem.obj
 0003:0000e530       c4_fb_emlrtRTEI            000000018006b530     c4_flightControlSystem.obj
 0003:0000e548       c4_gb_emlrtRTEI            000000018006b548     c4_flightControlSystem.obj
 0003:0000e560       c4_ib_emlrtRTEI            000000018006b560     c4_flightControlSystem.obj
 0003:0000e578       c4_jb_emlrtRTEI            000000018006b578     c4_flightControlSystem.obj
 0003:0000e590       c4_kb_emlrtRTEI            000000018006b590     c4_flightControlSystem.obj
 0003:0000e5a8       c4_lb_emlrtRTEI            000000018006b5a8     c4_flightControlSystem.obj
 0003:0000e5c0       c4_mb_emlrtRTEI            000000018006b5c0     c4_flightControlSystem.obj
 0003:0000e5d8       c4_nb_emlrtRTEI            000000018006b5d8     c4_flightControlSystem.obj
 0003:0000e5f0       c4_ob_emlrtRTEI            000000018006b5f0     c4_flightControlSystem.obj
 0003:0000e608       c4_pb_emlrtRTEI            000000018006b608     c4_flightControlSystem.obj
 0003:0000e620       c4_qb_emlrtRTEI            000000018006b620     c4_flightControlSystem.obj
 0003:0000e638       c4_rb_emlrtRTEI            000000018006b638     c4_flightControlSystem.obj
 0003:0000e650       c4_sb_emlrtRTEI            000000018006b650     c4_flightControlSystem.obj
 0003:0000e668       c4_tb_emlrtRTEI            000000018006b668     c4_flightControlSystem.obj
 0003:0000e680       c4_ub_emlrtRTEI            000000018006b680     c4_flightControlSystem.obj
 0003:0000e698       c4_vb_emlrtRTEI            000000018006b698     c4_flightControlSystem.obj
 0003:0000e6b0       c4_wb_emlrtRTEI            000000018006b6b0     c4_flightControlSystem.obj
 0003:0000e6c8       c4_xb_emlrtRTEI            000000018006b6c8     c4_flightControlSystem.obj
 0003:0000e6e0       c4_yb_emlrtRTEI            000000018006b6e0     c4_flightControlSystem.obj
 0003:0000e6f8       c4_ac_emlrtRTEI            000000018006b6f8     c4_flightControlSystem.obj
 0003:0000e710       c4_bc_emlrtRTEI            000000018006b710     c4_flightControlSystem.obj
 0003:0000e728       c4_cc_emlrtRTEI            000000018006b728     c4_flightControlSystem.obj
 0003:0000e740       c4_dc_emlrtRTEI            000000018006b740     c4_flightControlSystem.obj
 0003:0000e758       c4_fc_emlrtRTEI            000000018006b758     c4_flightControlSystem.obj
 0003:0000e770       c4_gc_emlrtRTEI            000000018006b770     c4_flightControlSystem.obj
 0003:0000e788       c4_hc_emlrtRTEI            000000018006b788     c4_flightControlSystem.obj
 0003:0000e7a0       c4_ic_emlrtRTEI            000000018006b7a0     c4_flightControlSystem.obj
 0003:0000e7b8       c4_sc_emlrtRTEI            000000018006b7b8     c4_flightControlSystem.obj
 0003:0000e7d0       c4_tc_emlrtRTEI            000000018006b7d0     c4_flightControlSystem.obj
 0003:0000e7e8       c4_uc_emlrtRTEI            000000018006b7e8     c4_flightControlSystem.obj
 0003:0000e800       c4_vc_emlrtRTEI            000000018006b800     c4_flightControlSystem.obj
 0003:0000e818       c4_xc_emlrtRTEI            000000018006b818     c4_flightControlSystem.obj
 0003:0000e830       c4_yc_emlrtRTEI            000000018006b830     c4_flightControlSystem.obj
 0003:0000e848       c4_ad_emlrtRTEI            000000018006b848     c4_flightControlSystem.obj
 0003:0000e860       c4_fd_emlrtRTEI            000000018006b860     c4_flightControlSystem.obj
 0003:0000e878       c4_gd_emlrtRTEI            000000018006b878     c4_flightControlSystem.obj
 0003:0000e890       c4_hd_emlrtRTEI            000000018006b890     c4_flightControlSystem.obj
 0003:0000e8a8       c4_id_emlrtRTEI            000000018006b8a8     c4_flightControlSystem.obj
 0003:0000e8c0       c4_jd_emlrtRTEI            000000018006b8c0     c4_flightControlSystem.obj
 0003:0000e8d8       c4_kd_emlrtRTEI            000000018006b8d8     c4_flightControlSystem.obj
 0003:0000e8f0       c4_ld_emlrtRTEI            000000018006b8f0     c4_flightControlSystem.obj
 0003:0000e908       c4_md_emlrtRTEI            000000018006b908     c4_flightControlSystem.obj
 0003:0000e920       c4_nd_emlrtRTEI            000000018006b920     c4_flightControlSystem.obj
 0003:0000e938       c4_od_emlrtRTEI            000000018006b938     c4_flightControlSystem.obj
 0003:0000e950       c4_pd_emlrtRTEI            000000018006b950     c4_flightControlSystem.obj
 0003:0000e968       c4_qd_emlrtRTEI            000000018006b968     c4_flightControlSystem.obj
 0003:0000e980       c4_rd_emlrtRTEI            000000018006b980     c4_flightControlSystem.obj
 0003:0000e998       c4_sd_emlrtRTEI            000000018006b998     c4_flightControlSystem.obj
 0003:0000e9b0       c4_td_emlrtRTEI            000000018006b9b0     c4_flightControlSystem.obj
 0003:0000e9c8       c4_ud_emlrtRTEI            000000018006b9c8     c4_flightControlSystem.obj
 0003:0000e9e0       c4_vd_emlrtRTEI            000000018006b9e0     c4_flightControlSystem.obj
 0003:0000e9f8       c4_wd_emlrtRTEI            000000018006b9f8     c4_flightControlSystem.obj
 0003:0000ea10       c4_xd_emlrtRTEI            000000018006ba10     c4_flightControlSystem.obj
 0003:0000ea28       c4_he_emlrtRTEI            000000018006ba28     c4_flightControlSystem.obj
 0003:0000ea40       c4_je_emlrtRTEI            000000018006ba40     c4_flightControlSystem.obj
 0003:0000ea58       c4_le_emlrtRTEI            000000018006ba58     c4_flightControlSystem.obj
 0003:0000ea70       c4_me_emlrtRTEI            000000018006ba70     c4_flightControlSystem.obj
 0003:0000ea88       c4_ne_emlrtRTEI            000000018006ba88     c4_flightControlSystem.obj
 0003:0000eaa0       c4_oe_emlrtRTEI            000000018006baa0     c4_flightControlSystem.obj
 0003:0000eab8       c4_pe_emlrtRTEI            000000018006bab8     c4_flightControlSystem.obj
 0003:0000ead0       c4_qe_emlrtRTEI            000000018006bad0     c4_flightControlSystem.obj
 0003:0000eae8       c4_re_emlrtRTEI            000000018006bae8     c4_flightControlSystem.obj
 0003:0000eb00       c4_se_emlrtRTEI            000000018006bb00     c4_flightControlSystem.obj
 0003:0000eb18       c4_te_emlrtRTEI            000000018006bb18     c4_flightControlSystem.obj
 0003:0000eb30       c4_ue_emlrtRTEI            000000018006bb30     c4_flightControlSystem.obj
 0003:0000eb48       c4_ve_emlrtRTEI            000000018006bb48     c4_flightControlSystem.obj
 0003:0000eb60       c4_we_emlrtRTEI            000000018006bb60     c4_flightControlSystem.obj
 0003:0000eb78       c4_xe_emlrtRTEI            000000018006bb78     c4_flightControlSystem.obj
 0003:0000eb90       c4_ye_emlrtRTEI            000000018006bb90     c4_flightControlSystem.obj
 0003:0000eba8       c4_af_emlrtRTEI            000000018006bba8     c4_flightControlSystem.obj
 0003:0000ebc0       c4_bf_emlrtRTEI            000000018006bbc0     c4_flightControlSystem.obj
 0003:0000ebd8       c4_cf_emlrtRTEI            000000018006bbd8     c4_flightControlSystem.obj
 0003:0000ebf0       c4_df_emlrtRTEI            000000018006bbf0     c4_flightControlSystem.obj
 0003:0000ec08       c4_ef_emlrtRTEI            000000018006bc08     c4_flightControlSystem.obj
 0003:0000ec20       c4_ff_emlrtRTEI            000000018006bc20     c4_flightControlSystem.obj
 0003:0000ec38       c4_gf_emlrtRTEI            000000018006bc38     c4_flightControlSystem.obj
 0003:0000ec50       c4_hf_emlrtRTEI            000000018006bc50     c4_flightControlSystem.obj
 0003:0000ec68       c4_if_emlrtRTEI            000000018006bc68     c4_flightControlSystem.obj
 0003:0000ec80       c4_jf_emlrtRTEI            000000018006bc80     c4_flightControlSystem.obj
 0003:0000ec98       c4_kf_emlrtRTEI            000000018006bc98     c4_flightControlSystem.obj
 0003:0000ecb0       c4_lf_emlrtRTEI            000000018006bcb0     c4_flightControlSystem.obj
 0003:0000ecc8       c4_mf_emlrtRTEI            000000018006bcc8     c4_flightControlSystem.obj
 0003:0000ece0       c4_nf_emlrtRTEI            000000018006bce0     c4_flightControlSystem.obj
 0003:0000ecf8       c4_of_emlrtRTEI            000000018006bcf8     c4_flightControlSystem.obj
 0003:0000ed10       c4_pf_emlrtRTEI            000000018006bd10     c4_flightControlSystem.obj
 0003:0000ed28       c4_qf_emlrtRTEI            000000018006bd28     c4_flightControlSystem.obj
 0003:0000ed40       c4_rf_emlrtRTEI            000000018006bd40     c4_flightControlSystem.obj
 0003:0000ed58       c4_sf_emlrtRTEI            000000018006bd58     c4_flightControlSystem.obj
 0003:0000ed70       c4_tf_emlrtRTEI            000000018006bd70     c4_flightControlSystem.obj
 0003:0000ed88       c4_uf_emlrtRTEI            000000018006bd88     c4_flightControlSystem.obj
 0003:0000eda0       c4_vf_emlrtRTEI            000000018006bda0     c4_flightControlSystem.obj
 0003:0000edb8       c4_wf_emlrtRTEI            000000018006bdb8     c4_flightControlSystem.obj
 0003:0000edd0       c4_xf_emlrtRTEI            000000018006bdd0     c4_flightControlSystem.obj
 0003:0000ede8       c4_yf_emlrtRTEI            000000018006bde8     c4_flightControlSystem.obj
 0003:0000ee00       c4_ag_emlrtRTEI            000000018006be00     c4_flightControlSystem.obj
 0003:0000ee18       c4_bg_emlrtRTEI            000000018006be18     c4_flightControlSystem.obj
 0003:0000ee30       c4_cg_emlrtRTEI            000000018006be30     c4_flightControlSystem.obj
 0003:0000ee48       c4_dg_emlrtRTEI            000000018006be48     c4_flightControlSystem.obj
 0003:0000ee60       c4_eg_emlrtRTEI            000000018006be60     c4_flightControlSystem.obj
 0003:0000ee78       c4_fg_emlrtRTEI            000000018006be78     c4_flightControlSystem.obj
 0003:0000ee90       c4_gg_emlrtRTEI            000000018006be90     c4_flightControlSystem.obj
 0003:0000eea8       c4_hg_emlrtRTEI            000000018006bea8     c4_flightControlSystem.obj
 0003:0000eec0       c4_ig_emlrtRTEI            000000018006bec0     c4_flightControlSystem.obj
 0003:0000eed8       c4_jg_emlrtRTEI            000000018006bed8     c4_flightControlSystem.obj
 0003:0000eef0       c4_kg_emlrtRTEI            000000018006bef0     c4_flightControlSystem.obj
 0003:0000ef08       c4_lg_emlrtRTEI            000000018006bf08     c4_flightControlSystem.obj
 0003:0000ef20       c4_mg_emlrtRTEI            000000018006bf20     c4_flightControlSystem.obj
 0003:0000ef38       c4_ng_emlrtRTEI            000000018006bf38     c4_flightControlSystem.obj
 0003:0000ef50       c4_og_emlrtRTEI            000000018006bf50     c4_flightControlSystem.obj
 0003:0000ef68       c4_pg_emlrtRTEI            000000018006bf68     c4_flightControlSystem.obj
 0003:0000ef80       c4_qg_emlrtRTEI            000000018006bf80     c4_flightControlSystem.obj
 0003:0000ef98       c4_rg_emlrtRTEI            000000018006bf98     c4_flightControlSystem.obj
 0003:0000efb0       c4_sg_emlrtRTEI            000000018006bfb0     c4_flightControlSystem.obj
 0003:0000efc8       c4_tg_emlrtRTEI            000000018006bfc8     c4_flightControlSystem.obj
 0003:0000efe0       c4_ug_emlrtRTEI            000000018006bfe0     c4_flightControlSystem.obj
 0003:0000eff8       c4_vg_emlrtRTEI            000000018006bff8     c4_flightControlSystem.obj
 0003:0000f010       c4_wg_emlrtRTEI            000000018006c010     c4_flightControlSystem.obj
 0003:0000f028       c4_xg_emlrtRTEI            000000018006c028     c4_flightControlSystem.obj
 0003:0000f040       c4_yg_emlrtRTEI            000000018006c040     c4_flightControlSystem.obj
 0003:0000f058       c4_ah_emlrtRTEI            000000018006c058     c4_flightControlSystem.obj
 0003:0000f070       c4_bh_emlrtRTEI            000000018006c070     c4_flightControlSystem.obj
 0003:0000f088       c4_ch_emlrtRTEI            000000018006c088     c4_flightControlSystem.obj
 0003:0000f0a0       c4_dh_emlrtRTEI            000000018006c0a0     c4_flightControlSystem.obj
 0003:0000f0b8       c4_eh_emlrtRTEI            000000018006c0b8     c4_flightControlSystem.obj
 0003:0000f0d0       c4_fh_emlrtRTEI            000000018006c0d0     c4_flightControlSystem.obj
 0003:0000f0e8       c4_gh_emlrtRTEI            000000018006c0e8     c4_flightControlSystem.obj
 0003:0000f100       c4_hh_emlrtRTEI            000000018006c100     c4_flightControlSystem.obj
 0003:0000f118       c4_ih_emlrtRTEI            000000018006c118     c4_flightControlSystem.obj
 0003:0000f130       c4_jh_emlrtRTEI            000000018006c130     c4_flightControlSystem.obj
 0003:0000f148       c4_kh_emlrtRTEI            000000018006c148     c4_flightControlSystem.obj
 0003:0000f160       c4_lh_emlrtRTEI            000000018006c160     c4_flightControlSystem.obj
 0003:0000f178       c4_mh_emlrtRTEI            000000018006c178     c4_flightControlSystem.obj
 0003:0000f190       c4_nh_emlrtRTEI            000000018006c190     c4_flightControlSystem.obj
 0003:0000f1a8       c4_oh_emlrtRTEI            000000018006c1a8     c4_flightControlSystem.obj
 0003:0000f1c0       c4_ph_emlrtRTEI            000000018006c1c0     c4_flightControlSystem.obj
 0003:0000f1d8       c4_qh_emlrtRTEI            000000018006c1d8     c4_flightControlSystem.obj
 0003:0000f1f0       c4_rh_emlrtRTEI            000000018006c1f0     c4_flightControlSystem.obj
 0003:0000f208       c4_sh_emlrtRTEI            000000018006c208     c4_flightControlSystem.obj
 0003:0000f220       c4_th_emlrtRTEI            000000018006c220     c4_flightControlSystem.obj
 0003:0000f238       c4_uh_emlrtRTEI            000000018006c238     c4_flightControlSystem.obj
 0003:0000f250       c4_vh_emlrtRTEI            000000018006c250     c4_flightControlSystem.obj
 0003:0000f268       c4_wh_emlrtRTEI            000000018006c268     c4_flightControlSystem.obj
 0003:0000f280       c4_xh_emlrtRTEI            000000018006c280     c4_flightControlSystem.obj
 0003:0000f298       c4_yh_emlrtRTEI            000000018006c298     c4_flightControlSystem.obj
 0003:0000f2b0       c4_ai_emlrtRTEI            000000018006c2b0     c4_flightControlSystem.obj
 0003:0000f2c8       c4_bi_emlrtRTEI            000000018006c2c8     c4_flightControlSystem.obj
 0003:0000f2e0       c4_ci_emlrtRTEI            000000018006c2e0     c4_flightControlSystem.obj
 0003:0000f2f8       c4_di_emlrtRTEI            000000018006c2f8     c4_flightControlSystem.obj
 0003:0000f310       c4_ei_emlrtRTEI            000000018006c310     c4_flightControlSystem.obj
 0003:0000f328       c4_fi_emlrtRTEI            000000018006c328     c4_flightControlSystem.obj
 0003:0000f340       c4_gi_emlrtRTEI            000000018006c340     c4_flightControlSystem.obj
 0003:0000f358       c4_hi_emlrtRTEI            000000018006c358     c4_flightControlSystem.obj
 0003:0000f370       c4_ii_emlrtRTEI            000000018006c370     c4_flightControlSystem.obj
 0003:0000f388       c4_ji_emlrtRTEI            000000018006c388     c4_flightControlSystem.obj
 0003:0000f3a0       c4_ki_emlrtRTEI            000000018006c3a0     c4_flightControlSystem.obj
 0003:0000f3b8       c4_mi_emlrtRTEI            000000018006c3b8     c4_flightControlSystem.obj
 0003:0000f3d0       c4_ni_emlrtRTEI            000000018006c3d0     c4_flightControlSystem.obj
 0003:0000f3e8       c4_oi_emlrtRTEI            000000018006c3e8     c4_flightControlSystem.obj
 0003:0000f400       c4_pi_emlrtRTEI            000000018006c400     c4_flightControlSystem.obj
 0003:0000f418       c4_qi_emlrtRTEI            000000018006c418     c4_flightControlSystem.obj
 0003:0000f430       c4_ri_emlrtRTEI            000000018006c430     c4_flightControlSystem.obj
 0003:0000f448       c4_ti_emlrtRTEI            000000018006c448     c4_flightControlSystem.obj
 0003:0000f460       c4_ui_emlrtRTEI            000000018006c460     c4_flightControlSystem.obj
 0003:0000f478       c4_vi_emlrtRTEI            000000018006c478     c4_flightControlSystem.obj
 0003:0000f490       c4_wi_emlrtRTEI            000000018006c490     c4_flightControlSystem.obj
 0003:0000f4a8       c4_xi_emlrtRTEI            000000018006c4a8     c4_flightControlSystem.obj
 0003:0000f4c0       c4_yi_emlrtRTEI            000000018006c4c0     c4_flightControlSystem.obj
 0003:0000f4d8       c4_aj_emlrtRTEI            000000018006c4d8     c4_flightControlSystem.obj
 0003:0000f4f0       c4_bj_emlrtRTEI            000000018006c4f0     c4_flightControlSystem.obj
 0003:0000f508       c4_cj_emlrtRTEI            000000018006c508     c4_flightControlSystem.obj
 0003:0000f520       c4_dj_emlrtRTEI            000000018006c520     c4_flightControlSystem.obj
 0003:0000f538       c4_ej_emlrtRTEI            000000018006c538     c4_flightControlSystem.obj
 0003:0000f550       c4_fj_emlrtRTEI            000000018006c550     c4_flightControlSystem.obj
 0003:0000f568       c4_gj_emlrtRTEI            000000018006c568     c4_flightControlSystem.obj
 0003:0000f580       c4_emlrtDCI                000000018006c580     c4_flightControlSystem.obj
 0003:0000f5a0       c4_b_emlrtDCI              000000018006c5a0     c4_flightControlSystem.obj
 0003:0000f5c0       c4_c_emlrtDCI              000000018006c5c0     c4_flightControlSystem.obj
 0003:0000f5e0       c4_d_emlrtDCI              000000018006c5e0     c4_flightControlSystem.obj
 0003:0000f600       c4_emlrtECI                000000018006c600     c4_flightControlSystem.obj
 0003:0000f620       c4_b_emlrtECI              000000018006c620     c4_flightControlSystem.obj
 0003:0000f640       c4_c_emlrtECI              000000018006c640     c4_flightControlSystem.obj
 0003:0000f660       c4_d_emlrtECI              000000018006c660     c4_flightControlSystem.obj
 0003:0000f680       c4_e_emlrtECI              000000018006c680     c4_flightControlSystem.obj
 0003:0000f6a0       c4_emlrtBCI                000000018006c6a0     c4_flightControlSystem.obj
 0003:0000f6d0       c4_b_emlrtBCI              000000018006c6d0     c4_flightControlSystem.obj
 0003:0000f700       c4_c_emlrtBCI              000000018006c700     c4_flightControlSystem.obj
 0003:0000f730       c4_d_emlrtBCI              000000018006c730     c4_flightControlSystem.obj
 0003:0000f760       c4_e_emlrtBCI              000000018006c760     c4_flightControlSystem.obj
 0003:0000f790       c4_f_emlrtBCI              000000018006c790     c4_flightControlSystem.obj
 0003:0000f7c0       c4_g_emlrtBCI              000000018006c7c0     c4_flightControlSystem.obj
 0003:0000f7f0       c4_e_emlrtDCI              000000018006c7f0     c4_flightControlSystem.obj
 0003:0000f810       c4_h_emlrtBCI              000000018006c810     c4_flightControlSystem.obj
 0003:0000f840       c4_i_emlrtBCI              000000018006c840     c4_flightControlSystem.obj
 0003:0000f870       c4_f_emlrtECI              000000018006c870     c4_flightControlSystem.obj
 0003:0000f890       c4_j_emlrtBCI              000000018006c890     c4_flightControlSystem.obj
 0003:0000f8c0       c4_k_emlrtBCI              000000018006c8c0     c4_flightControlSystem.obj
 0003:0000f8f0       c4_g_emlrtECI              000000018006c8f0     c4_flightControlSystem.obj
 0003:0000f910       c4_l_emlrtBCI              000000018006c910     c4_flightControlSystem.obj
 0003:0000f940       c4_m_emlrtBCI              000000018006c940     c4_flightControlSystem.obj
 0003:0000f970       c4_h_emlrtECI              000000018006c970     c4_flightControlSystem.obj
 0003:0000f990       c4_n_emlrtBCI              000000018006c990     c4_flightControlSystem.obj
 0003:0000f9c0       c4_o_emlrtBCI              000000018006c9c0     c4_flightControlSystem.obj
 0003:0000f9f0       c4_i_emlrtECI              000000018006c9f0     c4_flightControlSystem.obj
 0003:0000fa10       c4_p_emlrtBCI              000000018006ca10     c4_flightControlSystem.obj
 0003:0000fa40       c4_q_emlrtBCI              000000018006ca40     c4_flightControlSystem.obj
 0003:0000fa70       c4_r_emlrtBCI              000000018006ca70     c4_flightControlSystem.obj
 0003:0000faa0       c4_s_emlrtBCI              000000018006caa0     c4_flightControlSystem.obj
 0003:0000fad0       c4_t_emlrtBCI              000000018006cad0     c4_flightControlSystem.obj
 0003:0000fb00       c4_u_emlrtBCI              000000018006cb00     c4_flightControlSystem.obj
 0003:0000fb30       c4_v_emlrtBCI              000000018006cb30     c4_flightControlSystem.obj
 0003:0000fb60       c4_j_emlrtECI              000000018006cb60     c4_flightControlSystem.obj
 0003:0000fb80       c4_w_emlrtBCI              000000018006cb80     c4_flightControlSystem.obj
 0003:0000fbb0       c4_x_emlrtBCI              000000018006cbb0     c4_flightControlSystem.obj
 0003:0000fbe0       c4_y_emlrtBCI              000000018006cbe0     c4_flightControlSystem.obj
 0003:0000fc10       c4_ab_emlrtBCI             000000018006cc10     c4_flightControlSystem.obj
 0003:0000fc40       c4_bb_emlrtBCI             000000018006cc40     c4_flightControlSystem.obj
 0003:0000fc70       c4_cb_emlrtBCI             000000018006cc70     c4_flightControlSystem.obj
 0003:0000fca0       c4_k_emlrtECI              000000018006cca0     c4_flightControlSystem.obj
 0003:0000fcc0       c4_db_emlrtBCI             000000018006ccc0     c4_flightControlSystem.obj
 0003:0000fcf0       c4_eb_emlrtBCI             000000018006ccf0     c4_flightControlSystem.obj
 0003:0000fd20       c4_fb_emlrtBCI             000000018006cd20     c4_flightControlSystem.obj
 0003:0000fd50       c4_gb_emlrtBCI             000000018006cd50     c4_flightControlSystem.obj
 0003:0000fd80       c4_hb_emlrtBCI             000000018006cd80     c4_flightControlSystem.obj
 0003:0000fdb0       c4_ib_emlrtBCI             000000018006cdb0     c4_flightControlSystem.obj
 0003:0000fde0       c4_jb_emlrtBCI             000000018006cde0     c4_flightControlSystem.obj
 0003:0000fe10       c4_kb_emlrtBCI             000000018006ce10     c4_flightControlSystem.obj
 0003:0000fe40       c4_lb_emlrtBCI             000000018006ce40     c4_flightControlSystem.obj
 0003:0000fe70       c4_hg_emlrtRSI             000000018006ce70     c4_flightControlSystem.obj
 0003:0000fe88       c4_ig_emlrtRSI             000000018006ce88     c4_flightControlSystem.obj
 0003:0000fea0       c4_jg_emlrtRSI             000000018006cea0     c4_flightControlSystem.obj
 0003:0000feb8       c4_kg_emlrtRSI             000000018006ceb8     c4_flightControlSystem.obj
 0003:0000fed0       c4_lg_emlrtRSI             000000018006ced0     c4_flightControlSystem.obj
 0003:0000fee8       c4_mg_emlrtRSI             000000018006cee8     c4_flightControlSystem.obj
 0003:0000ff00       c4_ng_emlrtRSI             000000018006cf00     c4_flightControlSystem.obj
 0003:0000ff18       c4_og_emlrtRSI             000000018006cf18     c4_flightControlSystem.obj
 0003:0000ff30       c4_pg_emlrtRSI             000000018006cf30     c4_flightControlSystem.obj
 0003:0000ff48       c4_qg_emlrtRSI             000000018006cf48     c4_flightControlSystem.obj
 0003:0000ff60       c4_rg_emlrtRSI             000000018006cf60     c4_flightControlSystem.obj
 0003:0000ff78       c4_sg_emlrtRSI             000000018006cf78     c4_flightControlSystem.obj
 0003:0000ff90       c4_tg_emlrtRSI             000000018006cf90     c4_flightControlSystem.obj
 0003:0000ffa8       c4_ug_emlrtRSI             000000018006cfa8     c4_flightControlSystem.obj
 0003:0000ffc0       c4_vg_emlrtRSI             000000018006cfc0     c4_flightControlSystem.obj
 0003:0000ffd8       c4_wg_emlrtRSI             000000018006cfd8     c4_flightControlSystem.obj
 0003:0000fff0       c4_xg_emlrtRSI             000000018006cff0     c4_flightControlSystem.obj
 0003:00010008       c4_yg_emlrtRSI             000000018006d008     c4_flightControlSystem.obj
 0003:00010020       c4_ah_emlrtRSI             000000018006d020     c4_flightControlSystem.obj
 0003:00010038       c4_bh_emlrtRSI             000000018006d038     c4_flightControlSystem.obj
 0003:00010050       c4_ch_emlrtRSI             000000018006d050     c4_flightControlSystem.obj
 0003:00010068       c4_dh_emlrtRSI             000000018006d068     c4_flightControlSystem.obj
 0003:00010080       c4_eh_emlrtRSI             000000018006d080     c4_flightControlSystem.obj
 0003:00010098       c4_fh_emlrtRSI             000000018006d098     c4_flightControlSystem.obj
 0003:000100b0       c4_gh_emlrtRSI             000000018006d0b0     c4_flightControlSystem.obj
 0003:000100c8       c4_hh_emlrtRSI             000000018006d0c8     c4_flightControlSystem.obj
 0003:000100e0       c4_ih_emlrtRSI             000000018006d0e0     c4_flightControlSystem.obj
 0003:000100f8       c4_jh_emlrtRSI             000000018006d0f8     c4_flightControlSystem.obj
 0003:00010110       c4_kh_emlrtRSI             000000018006d110     c4_flightControlSystem.obj
 0003:00010128       c4_lh_emlrtRSI             000000018006d128     c4_flightControlSystem.obj
 0003:00010140       c4_mh_emlrtRSI             000000018006d140     c4_flightControlSystem.obj
 0003:00010158       c4_nh_emlrtRSI             000000018006d158     c4_flightControlSystem.obj
 0003:00010170       c4_oh_emlrtRSI             000000018006d170     c4_flightControlSystem.obj
 0003:00010188       c4_ph_emlrtRSI             000000018006d188     c4_flightControlSystem.obj
 0003:000101a0       c4_qh_emlrtRSI             000000018006d1a0     c4_flightControlSystem.obj
 0003:000101b8       $SG28477                   000000018006d1b8     c4_flightControlSystem.obj
 0003:000101d4       $SG28515                   000000018006d1d4     c4_flightControlSystem.obj
 0003:000101d8       $SG28478                   000000018006d1d8     c4_flightControlSystem.obj
 0003:000101e8       $SG28516                   000000018006d1e8     c4_flightControlSystem.obj
 0003:000101ec       $SG28678                   000000018006d1ec     c4_flightControlSystem.obj
 0003:000101f0       $SG28523                   000000018006d1f0     c4_flightControlSystem.obj
 0003:000101fc       $SG28679                   000000018006d1fc     c4_flightControlSystem.obj
 0003:00010200       $SG28524                   000000018006d200     c4_flightControlSystem.obj
 0003:00010224       $SG28680                   000000018006d224     c4_flightControlSystem.obj
 0003:00010228       $SG28586                   000000018006d228     c4_flightControlSystem.obj
 0003:00010238       $SG28600                   000000018006d238     c4_flightControlSystem.obj
 0003:00010248       ?c4_outDims@?1??c4_imread@@9@9 000000018006d248     c4_flightControlSystem.obj
 0003:00010260       ?c4_b_cv@?1??c4_imread@@9@9 000000018006d260     c4_flightControlSystem.obj
 0003:0001028c       $SG28685                   000000018006d28c     c4_flightControlSystem.obj
 0003:00010290       ?c4_fname@?1??c4_imread@@9@9 000000018006d290     c4_flightControlSystem.obj
 0003:0001029c       $SG28686                   000000018006d29c     c4_flightControlSystem.obj
 0003:000102a0       ?c4_b_cv1@?1??c4_imread@@9@9 000000018006d2a0     c4_flightControlSystem.obj
 0003:000102ac       $SG28687                   000000018006d2ac     c4_flightControlSystem.obj
 0003:000102b0       $SG28681                   000000018006d2b0     c4_flightControlSystem.obj
 0003:000102b8       $SG28682                   000000018006d2b8     c4_flightControlSystem.obj
 0003:000102c4       $SG28683                   000000018006d2c4     c4_flightControlSystem.obj
 0003:000102cc       $SG28688                   000000018006d2cc     c4_flightControlSystem.obj
 0003:000102d0       $SG28689                   000000018006d2d0     c4_flightControlSystem.obj
 0003:000102d8       $SG28690                   000000018006d2d8     c4_flightControlSystem.obj
 0003:000102e4       $SG28691                   000000018006d2e4     c4_flightControlSystem.obj
 0003:000102ec       $SG28693                   000000018006d2ec     c4_flightControlSystem.obj
 0003:000102f0       $SG28694                   000000018006d2f0     c4_flightControlSystem.obj
 0003:000102f4       $SG28695                   000000018006d2f4     c4_flightControlSystem.obj
 0003:000102f8       $SG28696                   000000018006d2f8     c4_flightControlSystem.obj
 0003:000102fc       ?c4_b_cv@?1??c4_warning@@9@9 000000018006d2fc     c4_flightControlSystem.obj
 0003:00010304       $SG28729                   000000018006d304     c4_flightControlSystem.obj
 0003:00010308       $SG28697                   000000018006d308     c4_flightControlSystem.obj
 0003:00010310       $SG28698                   000000018006d310     c4_flightControlSystem.obj
 0003:0001031c       $SG28699                   000000018006d31c     c4_flightControlSystem.obj
 0003:00010324       ?c4_b_cv1@?1??c4_warning@@9@9 000000018006d324     c4_flightControlSystem.obj
 0003:0001032c       $SG28730                   000000018006d32c     c4_flightControlSystem.obj
 0003:00010330       $SG28731                   000000018006d330     c4_flightControlSystem.obj
 0003:00010334       $SG28732                   000000018006d334     c4_flightControlSystem.obj
 0003:00010338       $SG28733                   000000018006d338     c4_flightControlSystem.obj
 0003:0001033c       ?c4_b_cv@?1??c4_SURFPoints_SURFPoints@@9@9 000000018006d33c     c4_flightControlSystem.obj
 0003:00010344       ?c4_b_cv1@?1??c4_SURFPoints_SURFPoints@@9@9 000000018006d344     c4_flightControlSystem.obj
 0003:0001034c       $SG29130                   000000018006d34c     c4_flightControlSystem.obj
 0003:00010350       $SG29131                   000000018006d350     c4_flightControlSystem.obj
 0003:00010354       $SG29132                   000000018006d354     c4_flightControlSystem.obj
 0003:00010358       $SG29133                   000000018006d358     c4_flightControlSystem.obj
 0003:00010360       $SG29134                   000000018006d360     c4_flightControlSystem.obj
 0003:0001036c       $SG29135                   000000018006d36c     c4_flightControlSystem.obj
 0003:00010374       $SG29141                   000000018006d374     c4_flightControlSystem.obj
 0003:00010378       $SG29142                   000000018006d378     c4_flightControlSystem.obj
 0003:0001037c       $SG29150                   000000018006d37c     c4_flightControlSystem.obj
 0003:00010380       $SG29143                   000000018006d380     c4_flightControlSystem.obj
 0003:00010388       $SG29144                   000000018006d388     c4_flightControlSystem.obj
 0003:00010394       $SG29145                   000000018006d394     c4_flightControlSystem.obj
 0003:0001039c       $SG29151                   000000018006d39c     c4_flightControlSystem.obj
 0003:000103a0       $SG29152                   000000018006d3a0     c4_flightControlSystem.obj
 0003:000103a4       $SG29160                   000000018006d3a4     c4_flightControlSystem.obj
 0003:000103a8       $SG29153                   000000018006d3a8     c4_flightControlSystem.obj
 0003:000103b0       $SG29154                   000000018006d3b0     c4_flightControlSystem.obj
 0003:000103bc       $SG29155                   000000018006d3bc     c4_flightControlSystem.obj
 0003:000103c4       $SG29161                   000000018006d3c4     c4_flightControlSystem.obj
 0003:000103c8       $SG29162                   000000018006d3c8     c4_flightControlSystem.obj
 0003:000103cc       $SG29173                   000000018006d3cc     c4_flightControlSystem.obj
 0003:000103d0       $SG29163                   000000018006d3d0     c4_flightControlSystem.obj
 0003:000103d8       $SG29164                   000000018006d3d8     c4_flightControlSystem.obj
 0003:000103e4       $SG29165                   000000018006d3e4     c4_flightControlSystem.obj
 0003:000103ec       $SG29174                   000000018006d3ec     c4_flightControlSystem.obj
 0003:000103f4       $SG29315                   000000018006d3f4     c4_flightControlSystem.obj
 0003:000103f8       ?c4_b_cv2@?1??c4_FeaturePointsImpl_checkLocation@@9@9 000000018006d3f8     c4_flightControlSystem.obj
 0003:00010430       ?c4_b_cv5@?1??c4_FeaturePointsImpl_checkLocation@@9@9 000000018006d430     c4_flightControlSystem.obj
 0003:00010464       $SG29316                   000000018006d464     c4_flightControlSystem.obj
 0003:00010468       ?c4_b_cv3@?1??c4_FeaturePointsImpl_checkLocation@@9@9 000000018006d468     c4_flightControlSystem.obj
 0003:00010498       ?c4_b_cv@?1??c4_FeaturePointsImpl_checkLocation@@9@9 000000018006d498     c4_flightControlSystem.obj
 0003:000104a0       ?c4_b_cv1@?1??c4_FeaturePointsImpl_checkLocation@@9@9 000000018006d4a0     c4_flightControlSystem.obj
 0003:000104a8       ?c4_b_cv4@?1??c4_FeaturePointsImpl_checkLocation@@9@9 000000018006d4a8     c4_flightControlSystem.obj
 0003:000104b0       ?c4_b_cv6@?1??c4_FeaturePointsImpl_checkLocation@@9@9 000000018006d4b0     c4_flightControlSystem.obj
 0003:000104b8       $SG29317                   000000018006d4b8     c4_flightControlSystem.obj
 0003:000104bc       $SG29326                   000000018006d4bc     c4_flightControlSystem.obj
 0003:000104c0       $SG29318                   000000018006d4c0     c4_flightControlSystem.obj
 0003:000104c8       $SG29319                   000000018006d4c8     c4_flightControlSystem.obj
 0003:000104d4       $SG29320                   000000018006d4d4     c4_flightControlSystem.obj
 0003:000104dc       $SG29327                   000000018006d4dc     c4_flightControlSystem.obj
 0003:000104e0       $SG29328                   000000018006d4e0     c4_flightControlSystem.obj
 0003:000104e4       $SG29337                   000000018006d4e4     c4_flightControlSystem.obj
 0003:000104e8       $SG29329                   000000018006d4e8     c4_flightControlSystem.obj
 0003:000104f0       $SG29330                   000000018006d4f0     c4_flightControlSystem.obj
 0003:000104fc       $SG29331                   000000018006d4fc     c4_flightControlSystem.obj
 0003:00010504       $SG29338                   000000018006d504     c4_flightControlSystem.obj
 0003:00010508       $SG29339                   000000018006d508     c4_flightControlSystem.obj
 0003:0001050c       $SG29344                   000000018006d50c     c4_flightControlSystem.obj
 0003:00010510       $SG29340                   000000018006d510     c4_flightControlSystem.obj
 0003:00010518       $SG29341                   000000018006d518     c4_flightControlSystem.obj
 0003:00010524       $SG29342                   000000018006d524     c4_flightControlSystem.obj
 0003:0001052c       $SG29345                   000000018006d52c     c4_flightControlSystem.obj
 0003:00010530       $SG29346                   000000018006d530     c4_flightControlSystem.obj
 0003:00010534       $SG29444                   000000018006d534     c4_flightControlSystem.obj
 0003:00010538       $SG29347                   000000018006d538     c4_flightControlSystem.obj
 0003:00010540       $SG29348                   000000018006d540     c4_flightControlSystem.obj
 0003:0001054c       $SG29349                   000000018006d54c     c4_flightControlSystem.obj
 0003:00010554       $SG29445                   000000018006d554     c4_flightControlSystem.obj
 0003:00010558       ?c4_dv@?1??c4_inputMeetsSizeRequirement@@9@9 000000018006d558     c4_flightControlSystem.obj
 0003:00010568       ?c4_b_cv@?1??c4_FeaturePointsImpl_checkMetric@@9@9 000000018006d568     c4_flightControlSystem.obj
 0003:00010570       ?c4_b_cv1@?1??c4_FeaturePointsImpl_checkMetric@@9@9 000000018006d570     c4_flightControlSystem.obj
 0003:00010578       $SG29446                   000000018006d578     c4_flightControlSystem.obj
 0003:0001057c       $SG29453                   000000018006d57c     c4_flightControlSystem.obj
 0003:00010580       $SG29447                   000000018006d580     c4_flightControlSystem.obj
 0003:00010588       $SG29448                   000000018006d588     c4_flightControlSystem.obj
 0003:00010594       $SG29449                   000000018006d594     c4_flightControlSystem.obj
 0003:0001059c       $SG29454                   000000018006d59c     c4_flightControlSystem.obj
 0003:000105a0       $SG29455                   000000018006d5a0     c4_flightControlSystem.obj
 0003:000105a4       ?c4_b_cv6@?1??c4_SURFPointsImpl_checkScale@@9@9 000000018006d5a4     c4_flightControlSystem.obj
 0003:000105a8       $SG29456                   000000018006d5a8     c4_flightControlSystem.obj
 0003:000105b0       $SG29457                   000000018006d5b0     c4_flightControlSystem.obj
 0003:000105bc       $SG29458                   000000018006d5bc     c4_flightControlSystem.obj
 0003:000105c4       ?c4_b_cv5@?1??c4_SURFPointsImpl_checkScale@@9@9 000000018006d5c4     c4_flightControlSystem.obj
 0003:000105c8       ?c4_b_cv2@?1??c4_SURFPointsImpl_checkScale@@9@9 000000018006d5c8     c4_flightControlSystem.obj
 0003:000105fc       $SG29591                   000000018006d5fc     c4_flightControlSystem.obj
 0003:00010600       ?c4_b_cv3@?1??c4_SURFPointsImpl_checkScale@@9@9 000000018006d600     c4_flightControlSystem.obj
 0003:00010628       ?c4_b_cv@?1??c4_SURFPointsImpl_checkScale@@9@9 000000018006d628     c4_flightControlSystem.obj
 0003:00010630       ?c4_b_cv1@?1??c4_SURFPointsImpl_checkScale@@9@9 000000018006d630     c4_flightControlSystem.obj
 0003:00010638       ?c4_b_cv4@?1??c4_SURFPointsImpl_checkScale@@9@9 000000018006d638     c4_flightControlSystem.obj
 0003:00010640       $SG29592                   000000018006d640     c4_flightControlSystem.obj
 0003:00010644       $SG29593                   000000018006d644     c4_flightControlSystem.obj
 0003:00010648       $SG29594                   000000018006d648     c4_flightControlSystem.obj
 0003:00010650       $SG29595                   000000018006d650     c4_flightControlSystem.obj
 0003:0001065c       $SG29596                   000000018006d65c     c4_flightControlSystem.obj
 0003:00010664       $SG29600                   000000018006d664     c4_flightControlSystem.obj
 0003:00010668       $SG29601                   000000018006d668     c4_flightControlSystem.obj
 0003:0001066c       $SG29602                   000000018006d66c     c4_flightControlSystem.obj
 0003:00010670       $SG29603                   000000018006d670     c4_flightControlSystem.obj
 0003:00010678       $SG29604                   000000018006d678     c4_flightControlSystem.obj
 0003:00010684       $SG29605                   000000018006d684     c4_flightControlSystem.obj
 0003:0001068c       $SG29609                   000000018006d68c     c4_flightControlSystem.obj
 0003:00010690       $SG29610                   000000018006d690     c4_flightControlSystem.obj
 0003:00010694       $SG29611                   000000018006d694     c4_flightControlSystem.obj
 0003:00010698       $SG29612                   000000018006d698     c4_flightControlSystem.obj
 0003:0001069c       $SG29613                   000000018006d69c     c4_flightControlSystem.obj
 0003:000106a0       $SG29614                   000000018006d6a0     c4_flightControlSystem.obj
 0003:000106a8       $SG29615                   000000018006d6a8     c4_flightControlSystem.obj
 0003:000106b4       $SG29616                   000000018006d6b4     c4_flightControlSystem.obj
 0003:000106bc       $SG29661                   000000018006d6bc     c4_flightControlSystem.obj
 0003:000106c0       ?c4_b_cv@?1??c4_b_all@@9@9 000000018006d6c0     c4_flightControlSystem.obj
 0003:000106f4       $SG29662                   000000018006d6f4     c4_flightControlSystem.obj
 0003:000106f8       $SG29663                   000000018006d6f8     c4_flightControlSystem.obj
 0003:00010700       $SG29664                   000000018006d700     c4_flightControlSystem.obj
 0003:0001070c       $SG29665                   000000018006d70c     c4_flightControlSystem.obj
 0003:00010714       $SG29692                   000000018006d714     c4_flightControlSystem.obj
 0003:00010718       ?c4_b_cv@?1??c4_check_forloop_overflow_error@@9@9 000000018006d718     c4_flightControlSystem.obj
 0003:0001073c       ?c4_b_cv1@?1??c4_check_forloop_overflow_error@@9@9 000000018006d73c     c4_flightControlSystem.obj
 0003:00010744       $SG29693                   000000018006d744     c4_flightControlSystem.obj
 0003:00010748       $SG29694                   000000018006d748     c4_flightControlSystem.obj
 0003:0001074c       $SG29738                   000000018006d74c     c4_flightControlSystem.obj
 0003:00010750       $SG29695                   000000018006d750     c4_flightControlSystem.obj
 0003:00010758       $SG29696                   000000018006d758     c4_flightControlSystem.obj
 0003:00010764       $SG29697                   000000018006d764     c4_flightControlSystem.obj
 0003:0001076c       $SG29739                   000000018006d76c     c4_flightControlSystem.obj
 0003:00010774       $SG29779                   000000018006d774     c4_flightControlSystem.obj
 0003:00010778       ?c4_b_cv@?1??c4_assertValidSizeArg@@9@9 000000018006d778     c4_flightControlSystem.obj
 0003:00010794       $SG29780                   000000018006d794     c4_flightControlSystem.obj
 0003:00010798       $SG29781                   000000018006d798     c4_flightControlSystem.obj
 0003:0001079c       $SG29782                   000000018006d79c     c4_flightControlSystem.obj
 0003:000107a0       $SG29783                   000000018006d7a0     c4_flightControlSystem.obj
 0003:000107a8       $SG29784                   000000018006d7a8     c4_flightControlSystem.obj
 0003:000107b4       $SG29785                   000000018006d7b4     c4_flightControlSystem.obj
 0003:000107bc       $SG30059                   000000018006d7bc     c4_flightControlSystem.obj
 0003:000107c0       ?c4_b_cv@?1??c4_indexShapeCheck@@9@9 000000018006d7c0     c4_flightControlSystem.obj
 0003:000107e0       $SG30060                   000000018006d7e0     c4_flightControlSystem.obj
 0003:000107e4       $SG30200                   000000018006d7e4     c4_flightControlSystem.obj
 0003:000107e8       $SG30061                   000000018006d7e8     c4_flightControlSystem.obj
 0003:000107f0       $SG30062                   000000018006d7f0     c4_flightControlSystem.obj
 0003:000107fc       $SG30063                   000000018006d7fc     c4_flightControlSystem.obj
 0003:00010804       $SG30201                   000000018006d804     c4_flightControlSystem.obj
 0003:00010808       ?c4_b_cv1@?1??c4_SURFPoints_getIndexedObj@@9@9 000000018006d808     c4_flightControlSystem.obj
 0003:00010838       ?c4_b_cv@?1??c4_SURFPoints_getIndexedObj@@9@9 000000018006d838     c4_flightControlSystem.obj
 0003:0001085c       ?c4_b_cv2@?1??c4_SURFPoints_getIndexedObj@@9@9 000000018006d85c     c4_flightControlSystem.obj
 0003:00010864       $SG30202                   000000018006d864     c4_flightControlSystem.obj
 0003:00010868       $SG30203                   000000018006d868     c4_flightControlSystem.obj
 0003:00010870       $SG30204                   000000018006d870     c4_flightControlSystem.obj
 0003:0001087c       $SG30205                   000000018006d87c     c4_flightControlSystem.obj
 0003:00010884       $SG30466                   000000018006d884     c4_flightControlSystem.obj
 0003:00010888       ?c4_b_cv1@?1??c4_SURFPointsImpl_validate@@9@9 000000018006d888     c4_flightControlSystem.obj
 0003:00010894       $SG30467                   000000018006d894     c4_flightControlSystem.obj
 0003:00010898       ?c4_b_cv2@?1??c4_SURFPointsImpl_validate@@9@9 000000018006d898     c4_flightControlSystem.obj
 0003:000108a4       $SG30468                   000000018006d8a4     c4_flightControlSystem.obj
 0003:000108a8       ?c4_b_cv4@?1??c4_SURFPointsImpl_validate@@9@9 000000018006d8a8     c4_flightControlSystem.obj
 0003:000108b4       ?c4_b_cv@?1??c4_SURFPointsImpl_validate@@9@9 000000018006d8b4     c4_flightControlSystem.obj
 0003:000108bc       ?c4_b_cv3@?1??c4_SURFPointsImpl_validate@@9@9 000000018006d8bc     c4_flightControlSystem.obj
 0003:000108c4       $SG30471                   000000018006d8c4     c4_flightControlSystem.obj
 0003:000108cc       $SG30477                   000000018006d8cc     c4_flightControlSystem.obj
 0003:000108d0       $SG30469                   000000018006d8d0     c4_flightControlSystem.obj
 0003:000108d8       $SG30470                   000000018006d8d8     c4_flightControlSystem.obj
 0003:000108e4       $SG30478                   000000018006d8e4     c4_flightControlSystem.obj
 0003:000108e8       $SG30479                   000000018006d8e8     c4_flightControlSystem.obj
 0003:000108ec       $SG30486                   000000018006d8ec     c4_flightControlSystem.obj
 0003:000108f0       $SG30480                   000000018006d8f0     c4_flightControlSystem.obj
 0003:000108f8       $SG30481                   000000018006d8f8     c4_flightControlSystem.obj
 0003:00010904       $SG30482                   000000018006d904     c4_flightControlSystem.obj
 0003:0001090c       $SG30487                   000000018006d90c     c4_flightControlSystem.obj
 0003:00010910       $SG30488                   000000018006d910     c4_flightControlSystem.obj
 0003:00010914       $SG30497                   000000018006d914     c4_flightControlSystem.obj
 0003:00010918       $SG30489                   000000018006d918     c4_flightControlSystem.obj
 0003:00010920       $SG30490                   000000018006d920     c4_flightControlSystem.obj
 0003:0001092c       $SG30491                   000000018006d92c     c4_flightControlSystem.obj
 0003:00010934       $SG30498                   000000018006d934     c4_flightControlSystem.obj
 0003:00010938       $SG30499                   000000018006d938     c4_flightControlSystem.obj
 0003:00010940       $SG30500                   000000018006d940     c4_flightControlSystem.obj
 0003:0001094c       $SG30501                   000000018006d94c     c4_flightControlSystem.obj
 0003:00010954       $SG30506                   000000018006d954     c4_flightControlSystem.obj
 0003:00010958       $SG30507                   000000018006d958     c4_flightControlSystem.obj
 0003:0001095c       $SG30508                   000000018006d95c     c4_flightControlSystem.obj
 0003:00010960       $SG30509                   000000018006d960     c4_flightControlSystem.obj
 0003:00010968       $SG30510                   000000018006d968     c4_flightControlSystem.obj
 0003:00010974       $SG30511                   000000018006d974     c4_flightControlSystem.obj
 0003:0001097c       $SG30516                   000000018006d97c     c4_flightControlSystem.obj
 0003:00010980       $SG30517                   000000018006d980     c4_flightControlSystem.obj
 0003:00010984       $SG30518                   000000018006d984     c4_flightControlSystem.obj
 0003:00010988       $SG30519                   000000018006d988     c4_flightControlSystem.obj
 0003:00010990       $SG30520                   000000018006d990     c4_flightControlSystem.obj
 0003:0001099c       $SG30521                   000000018006d99c     c4_flightControlSystem.obj
 0003:000109a4       $SG30526                   000000018006d9a4     c4_flightControlSystem.obj
 0003:000109a8       $SG30527                   000000018006d9a8     c4_flightControlSystem.obj
 0003:000109ac       $SG30528                   000000018006d9ac     c4_flightControlSystem.obj
 0003:000109b0       $SG30529                   000000018006d9b0     c4_flightControlSystem.obj
 0003:000109b8       $SG30530                   000000018006d9b8     c4_flightControlSystem.obj
 0003:000109c4       $SG30531                   000000018006d9c4     c4_flightControlSystem.obj
 0003:000109cc       ?c4_b_cv@?1??c4_extractFeatures@@9@9 000000018006d9cc     c4_flightControlSystem.obj
 0003:000109d4       $SG30603                   000000018006d9d4     c4_flightControlSystem.obj
 0003:000109d8       $SG30604                   000000018006d9d8     c4_flightControlSystem.obj
 0003:000109dc       $SG30605                   000000018006d9dc     c4_flightControlSystem.obj
 0003:000109e0       $SG30606                   000000018006d9e0     c4_flightControlSystem.obj
 0003:000109e8       $SG30607                   000000018006d9e8     c4_flightControlSystem.obj
 0003:000109f4       $SG30608                   000000018006d9f4     c4_flightControlSystem.obj
 0003:000109fc       ?c4_b_cv@?1??c4_b_extractFeatures@@9@9 000000018006d9fc     c4_flightControlSystem.obj
 0003:00010a04       $SG31158                   000000018006da04     c4_flightControlSystem.obj
 0003:00010a08       $SG31159                   000000018006da08     c4_flightControlSystem.obj
 0003:00010a0c       $SG31160                   000000018006da0c     c4_flightControlSystem.obj
 0003:00010a10       $SG31161                   000000018006da10     c4_flightControlSystem.obj
 0003:00010a18       $SG31162                   000000018006da18     c4_flightControlSystem.obj
 0003:00010a24       $SG31163                   000000018006da24     c4_flightControlSystem.obj
 0003:00010a2c       $SG32422                   000000018006da2c     c4_flightControlSystem.obj
 0003:00010a30       ?c4_b_cv@?1??c4_findNearestNeighbors@@9@9 000000018006da30     c4_flightControlSystem.obj
 0003:00010a58       ?c4_b_cv1@?1??c4_findNearestNeighbors@@9@9 000000018006da58     c4_flightControlSystem.obj
 0003:00010a80       ?c4_b_cv3@?1??c4_findNearestNeighbors@@9@9 000000018006da80     c4_flightControlSystem.obj
 0003:00010aa4       $SG32423                   000000018006daa4     c4_flightControlSystem.obj
 0003:00010aa8       ?c4_b_cv2@?1??c4_findNearestNeighbors@@9@9 000000018006daa8     c4_flightControlSystem.obj
 0003:00010ac8       $SG32424                   000000018006dac8     c4_flightControlSystem.obj
 0003:00010ad0       $SG32425                   000000018006dad0     c4_flightControlSystem.obj
 0003:00010adc       $SG32426                   000000018006dadc     c4_flightControlSystem.obj
 0003:00010ae4       $SG32451                   000000018006dae4     c4_flightControlSystem.obj
 0003:00010ae8       $SG32452                   000000018006dae8     c4_flightControlSystem.obj
 0003:00010aec       $SG32460                   000000018006daec     c4_flightControlSystem.obj
 0003:00010af0       $SG32453                   000000018006daf0     c4_flightControlSystem.obj
 0003:00010af8       $SG32454                   000000018006daf8     c4_flightControlSystem.obj
 0003:00010b04       $SG32455                   000000018006db04     c4_flightControlSystem.obj
 0003:00010b0c       $SG32461                   000000018006db0c     c4_flightControlSystem.obj
 0003:00010b10       $SG32462                   000000018006db10     c4_flightControlSystem.obj
 0003:00010b18       $SG32463                   000000018006db18     c4_flightControlSystem.obj
 0003:00010b24       $SG32464                   000000018006db24     c4_flightControlSystem.obj
 0003:00010b2c       $SG32466                   000000018006db2c     c4_flightControlSystem.obj
 0003:00010b30       $SG32467                   000000018006db30     c4_flightControlSystem.obj
 0003:00010b34       $SG32504                   000000018006db34     c4_flightControlSystem.obj
 0003:00010b38       $SG32468                   000000018006db38     c4_flightControlSystem.obj
 0003:00010b40       $SG32469                   000000018006db40     c4_flightControlSystem.obj
 0003:00010b4c       $SG32470                   000000018006db4c     c4_flightControlSystem.obj
 0003:00010b54       $SG32505                   000000018006db54     c4_flightControlSystem.obj
 0003:00010b58       $SG32506                   000000018006db58     c4_flightControlSystem.obj
 0003:00010b60       $SG32507                   000000018006db60     c4_flightControlSystem.obj
 0003:00010b6c       $SG32508                   000000018006db6c     c4_flightControlSystem.obj
 0003:00010b74       $SG32512                   000000018006db74     c4_flightControlSystem.obj
 0003:00010b78       $SG32513                   000000018006db78     c4_flightControlSystem.obj
 0003:00010b7c       $SG32795                   000000018006db7c     c4_flightControlSystem.obj
 0003:00010b84       ?c4_b_cv1@?1??c4_b_normalizeFeature@@9@9 000000018006db84     c4_flightControlSystem.obj
 0003:00010b88       $SG32514                   000000018006db88     c4_flightControlSystem.obj
 0003:00010b90       $SG32515                   000000018006db90     c4_flightControlSystem.obj
 0003:00010b9c       $SG32516                   000000018006db9c     c4_flightControlSystem.obj
 0003:00010ba4       $SG32797                   000000018006dba4     c4_flightControlSystem.obj
 0003:00010bac       $SG32816                   000000018006dbac     c4_flightControlSystem.obj
 0003:00010bb4       $SG32828                   000000018006dbb4     c4_flightControlSystem.obj
 0003:00010bbc       $SG33680                   000000018006dbbc     c4_flightControlSystem.obj
 0003:00010bc0       ?c4_b_cv2@?1??c4_b_normalizeFeature@@9@9 000000018006dbc0     c4_flightControlSystem.obj
 0003:00010be8       ?c4_b_cv@?1??c4_b_normalizeFeature@@9@9 000000018006dbe8     c4_flightControlSystem.obj
 0003:00010c08       $SG33681                   000000018006dc08     c4_flightControlSystem.obj
 0003:00010c0c       $SG33682                   000000018006dc0c     c4_flightControlSystem.obj
 0003:00010c10       $SG33683                   000000018006dc10     c4_flightControlSystem.obj
 0003:00010c18       $SG33684                   000000018006dc18     c4_flightControlSystem.obj
 0003:00010c24       $SG33685                   000000018006dc24     c4_flightControlSystem.obj
 0003:00010c2c       $SG33698                   000000018006dc2c     c4_flightControlSystem.obj
 0003:00010c30       $SG33699                   000000018006dc30     c4_flightControlSystem.obj
 0003:00010c34       $SG34422                   000000018006dc34     c4_flightControlSystem.obj
 0003:00010c38       $SG33700                   000000018006dc38     c4_flightControlSystem.obj
 0003:00010c40       $SG33701                   000000018006dc40     c4_flightControlSystem.obj
 0003:00010c4c       $SG33702                   000000018006dc4c     c4_flightControlSystem.obj
 0003:00010c54       $SG34423                   000000018006dc54     c4_flightControlSystem.obj
 0003:00010c58       ?c4_b_cv@?1??c4_b_removeAmbiguousMatches@@9@9 000000018006dc58     c4_flightControlSystem.obj
 0003:00010c68       ?c4_b_cv1@?1??c4_b_removeAmbiguousMatches@@9@9 000000018006dc68     c4_flightControlSystem.obj
 0003:00010c78       $SG34424                   000000018006dc78     c4_flightControlSystem.obj
 0003:00010c80       $SG34425                   000000018006dc80     c4_flightControlSystem.obj
 0003:00010c8c       $SG34426                   000000018006dc8c     c4_flightControlSystem.obj
 0003:00010c94       $SG34438                   000000018006dc94     c4_flightControlSystem.obj
 0003:00010c98       $SG34439                   000000018006dc98     c4_flightControlSystem.obj
 0003:00010ca0       $SG34440                   000000018006dca0     c4_flightControlSystem.obj
 0003:00010ca8       $SG34441                   000000018006dca8     c4_flightControlSystem.obj
 0003:00010cb4       $SG34442                   000000018006dcb4     c4_flightControlSystem.obj
 0003:00010cc0       $SG35545                   000000018006dcc0     c4_flightControlSystem.obj
 0003:00010d00       $SG35546                   000000018006dd00     c4_flightControlSystem.obj
 0003:00010d38       $SG35547                   000000018006dd38     c4_flightControlSystem.obj
 0003:00010d70       $SG35548                   000000018006dd70     c4_flightControlSystem.obj
 0003:00010da0       $SG35549                   000000018006dda0     c4_flightControlSystem.obj
 0003:00010dd8       $SG35561                   000000018006ddd8     c4_flightControlSystem.obj
 0003:00010de8       $SG35563                   000000018006dde8     c4_flightControlSystem.obj
 0003:00010df8       $SG35565                   000000018006ddf8     c4_flightControlSystem.obj
 0003:00010e10       $SG35567                   000000018006de10     c4_flightControlSystem.obj
 0003:00010e28       $SG35569                   000000018006de28     c4_flightControlSystem.obj
 0003:00010e3c       $SG35570                   000000018006de3c     c4_flightControlSystem.obj
 0003:00010e48       $SG35571                   000000018006de48     c4_flightControlSystem.obj
 0003:00010e60       $SG35574                   000000018006de60     c4_flightControlSystem.obj
 0003:00010e78       $SG35587                   000000018006de78     c4_flightControlSystem.obj
 0003:00010e88       $SG35589                   000000018006de88     c4_flightControlSystem.obj
 0003:00010e90       $SG35590                   000000018006de90     c4_flightControlSystem.obj
 0003:00010f80       $SG35685                   000000018006df80     c4_flightControlSystem.obj
 0003:00010fd0       $SG35687                   000000018006dfd0     c4_flightControlSystem.obj
 0003:00011020       $SG35689                   000000018006e020     c4_flightControlSystem.obj
 0003:00011070       $SG35691                   000000018006e070     c4_flightControlSystem.obj
 0003:000110c0       $SG35693                   000000018006e0c0     c4_flightControlSystem.obj
 0003:00011110       $SG35695                   000000018006e110     c4_flightControlSystem.obj
 0003:00011160       $SG35697                   000000018006e160     c4_flightControlSystem.obj
 0003:000111b0       $SG35699                   000000018006e1b0     c4_flightControlSystem.obj
 0003:00011200       $SG35701                   000000018006e200     c4_flightControlSystem.obj
 0003:00011250       $SG35703                   000000018006e250     c4_flightControlSystem.obj
 0003:000112a0       $SG35705                   000000018006e2a0     c4_flightControlSystem.obj
 0003:000112f0       $SG35707                   000000018006e2f0     c4_flightControlSystem.obj
 0003:00011340       $SG35709                   000000018006e340     c4_flightControlSystem.obj
 0003:00011390       $SG35711                   000000018006e390     c4_flightControlSystem.obj
 0003:000113e0       $SG35713                   000000018006e3e0     c4_flightControlSystem.obj
 0003:00011430       $SG35715                   000000018006e430     c4_flightControlSystem.obj
 0003:00011480       $SG35717                   000000018006e480     c4_flightControlSystem.obj
 0003:000114b8       $SG35730                   000000018006e4b8     c4_flightControlSystem.obj
 0003:000114c8       $SG35731                   000000018006e4c8     c4_flightControlSystem.obj
 0003:000114e0       $SG35756                   000000018006e4e0     c4_flightControlSystem.obj
 0003:00011510       $SG35771                   000000018006e510     c4_flightControlSystem.obj
 0003:00011588       $SG25261                   000000018006e588     flightControlSystem_sfun_registry.obj
 0003:000115a8       $SG25263                   000000018006e5a8     flightControlSystem_sfun_registry.obj
 0003:000115bc       $SG27234                   000000018006e5bc     flightControlSystem_sfun_registry.obj
 0003:000115c0       $SG25299                   000000018006e5c0     flightControlSystem_sfun_registry.obj
 0003:000115d8       $SG25301                   000000018006e5d8     flightControlSystem_sfun_registry.obj
 0003:000115ec       $SG27312                   000000018006e5ec     flightControlSystem_sfun_registry.obj
 0003:000115f0       $SG25337                   000000018006e5f0     flightControlSystem_sfun_registry.obj
 0003:00011608       $SG25339                   000000018006e608     flightControlSystem_sfun_registry.obj
 0003:00011620       $SG25375                   000000018006e620     flightControlSystem_sfun_registry.obj
 0003:00011640       $SG25377                   000000018006e640     flightControlSystem_sfun_registry.obj
 0003:00011658       $SG25413                   000000018006e658     flightControlSystem_sfun_registry.obj
 0003:00011678       $SG25415                   000000018006e678     flightControlSystem_sfun_registry.obj
 0003:00011690       $SG25435                   000000018006e690     flightControlSystem_sfun_registry.obj
 0003:000116a0       $SG25453                   000000018006e6a0     flightControlSystem_sfun_registry.obj
 0003:000116b8       $SG25484                   000000018006e6b8     flightControlSystem_sfun_registry.obj
 0003:000116cc       $SG25584                   000000018006e6cc     flightControlSystem_sfun_registry.obj
 0003:000116d8       $SG25585                   000000018006e6d8     flightControlSystem_sfun_registry.obj
 0003:000116ec       $SG25590                   000000018006e6ec     flightControlSystem_sfun_registry.obj
 0003:000116f8       $SG25591                   000000018006e6f8     flightControlSystem_sfun_registry.obj
 0003:00011718       $SG25732                   000000018006e718     flightControlSystem_sfun_registry.obj
 0003:00011740       _sfcnName                  000000018006e740     flightControlSystem_sfun_registry.obj
 0003:00011760       $SG25749                   000000018006e760     flightControlSystem_sfun_registry.obj
 0003:000117d8       $SG26078                   000000018006e7d8     flightControlSystem_sfun_registry.obj
 0003:000117e0       $SG26079                   000000018006e7e0     flightControlSystem_sfun_registry.obj
 0003:000117e8       $SG26093                   000000018006e7e8     flightControlSystem_sfun_registry.obj
 0003:000117f8       $SG26283                   000000018006e7f8     flightControlSystem_sfun_registry.obj
 0003:00011838       $SG26284                   000000018006e838     flightControlSystem_sfun_registry.obj
 0003:00011840       $SG26285                   000000018006e840     flightControlSystem_sfun_registry.obj
 0003:00011848       $SG26290                   000000018006e848     flightControlSystem_sfun_registry.obj
 0003:00011850       $SG26289                   000000018006e850     flightControlSystem_sfun_registry.obj
 0003:00011898       $SG26291                   000000018006e898     flightControlSystem_sfun_registry.obj
 0003:000118a0       $SG26292                   000000018006e8a0     flightControlSystem_sfun_registry.obj
 0003:000118f8       $SG26293                   000000018006e8f8     flightControlSystem_sfun_registry.obj
 0003:00011900       $SG26294                   000000018006e900     flightControlSystem_sfun_registry.obj
 0003:00011908       $SG26316                   000000018006e908     flightControlSystem_sfun_registry.obj
 0003:00011948       $SG26317                   000000018006e948     flightControlSystem_sfun_registry.obj
 0003:00011950       $SG26318                   000000018006e950     flightControlSystem_sfun_registry.obj
 0003:00011958       $SG26323                   000000018006e958     flightControlSystem_sfun_registry.obj
 0003:00011960       $SG26322                   000000018006e960     flightControlSystem_sfun_registry.obj
 0003:000119a8       $SG26324                   000000018006e9a8     flightControlSystem_sfun_registry.obj
 0003:000119b0       $SG26325                   000000018006e9b0     flightControlSystem_sfun_registry.obj
 0003:00011a08       $SG26326                   000000018006ea08     flightControlSystem_sfun_registry.obj
 0003:00011a10       $SG26327                   000000018006ea10     flightControlSystem_sfun_registry.obj
 0003:00011a18       $SG26343                   000000018006ea18     flightControlSystem_sfun_registry.obj
 0003:00011a20       $SG26342                   000000018006ea20     flightControlSystem_sfun_registry.obj
 0003:00011a70       $SG26344                   000000018006ea70     flightControlSystem_sfun_registry.obj
 0003:00011a78       $SG26357                   000000018006ea78     flightControlSystem_sfun_registry.obj
 0003:00011a80       $SG26356                   000000018006ea80     flightControlSystem_sfun_registry.obj
 0003:00011ae0       $SG26358                   000000018006eae0     flightControlSystem_sfun_registry.obj
 0003:00011ae8       $SG26371                   000000018006eae8     flightControlSystem_sfun_registry.obj
 0003:00011af0       $SG26370                   000000018006eaf0     flightControlSystem_sfun_registry.obj
 0003:00011b50       $SG26372                   000000018006eb50     flightControlSystem_sfun_registry.obj
 0003:00011b58       $SG27218                   000000018006eb58     flightControlSystem_sfun_registry.obj
 0003:00011b70       $SG26596                   000000018006eb70     flightControlSystem_sfun_registry.obj
 0003:00011be8       $SG27286                   000000018006ebe8     flightControlSystem_sfun_registry.obj
 0003:00011bf0       $SG26599                   000000018006ebf0     flightControlSystem_sfun_registry.obj
 0003:00011c64       $SG27287                   000000018006ec64     flightControlSystem_sfun_registry.obj
 0003:00011c70       $SG26604                   000000018006ec70     flightControlSystem_sfun_registry.obj
 0003:00011ce8       $SG27288                   000000018006ece8     flightControlSystem_sfun_registry.obj
 0003:00011cf0       $SG26612                   000000018006ecf0     flightControlSystem_sfun_registry.obj
 0003:00011d60       $SG26887                   000000018006ed60     flightControlSystem_sfun_registry.obj
 0003:00011dd8       $SG27294                   000000018006edd8     flightControlSystem_sfun_registry.obj
 0003:00011de0       $SG26892                   000000018006ede0     flightControlSystem_sfun_registry.obj
 0003:00011e58       $SG27297                   000000018006ee58     flightControlSystem_sfun_registry.obj
 0003:00011e60       $SG27231                   000000018006ee60     flightControlSystem_sfun_registry.obj
 0003:00011ed8       $SG27300                   000000018006eed8     flightControlSystem_sfun_registry.obj
 0003:00011ee0       $SG27289                   000000018006eee0     flightControlSystem_sfun_registry.obj
 0003:00011f58       $SG27306                   000000018006ef58     flightControlSystem_sfun_registry.obj
 0003:00011f60       $SG27291                   000000018006ef60     flightControlSystem_sfun_registry.obj
 0003:00011fe0       $SG27301                   000000018006efe0     flightControlSystem_sfun_registry.obj
 0003:00012060       $SG27302                   000000018006f060     flightControlSystem_sfun_registry.obj
 0003:00012070       $SG27304                   000000018006f070     flightControlSystem_sfun_registry.obj
 0003:0001207c       $SG27308                   000000018006f07c     flightControlSystem_sfun_registry.obj
 0003:00012088       $SG27310                   000000018006f088     flightControlSystem_sfun_registry.obj
 0003:00012098       $SG27420                   000000018006f098     flightControlSystem_sfun_registry.obj
 0003:000120c8       $SG27421                   000000018006f0c8     flightControlSystem_sfun_registry.obj
 0003:000120d0       $SG27315                   000000018006f0d0     flightControlSystem_sfun_registry.obj
 0003:000121b8       $SG27422                   000000018006f1b8     flightControlSystem_sfun_registry.obj
 0003:000121c0       $SG27424                   000000018006f1c0     flightControlSystem_sfun_registry.obj
 0003:000121f8       $SG27425                   000000018006f1f8     flightControlSystem_sfun_registry.obj
 0003:00012200       $SG27426                   000000018006f200     flightControlSystem_sfun_registry.obj
 0003:00012208       $SG27429                   000000018006f208     flightControlSystem_sfun_registry.obj
 0003:00012240       $SG27430                   000000018006f240     flightControlSystem_sfun_registry.obj
 0003:00012248       $SG27431                   000000018006f248     flightControlSystem_sfun_registry.obj
 0003:00012250       $SG27433                   000000018006f250     flightControlSystem_sfun_registry.obj
 0003:00012288       $SG27434                   000000018006f288     flightControlSystem_sfun_registry.obj
 0003:00012290       $SG27435                   000000018006f290     flightControlSystem_sfun_registry.obj
 0003:00012298       $SG27437                   000000018006f298     flightControlSystem_sfun_registry.obj
 0003:000122d0       $SG27438                   000000018006f2d0     flightControlSystem_sfun_registry.obj
 0003:000122d8       $SG27439                   000000018006f2d8     flightControlSystem_sfun_registry.obj
 0003:000122e0       $SG27442                   000000018006f2e0     flightControlSystem_sfun_registry.obj
 0003:000122e8       $SG27444                   000000018006f2e8     flightControlSystem_sfun_registry.obj
 0003:00012300       $SG27445                   000000018006f300     flightControlSystem_sfun_registry.obj
 0003:00012338       $SG27446                   000000018006f338     flightControlSystem_sfun_registry.obj
 0003:00012340       $SG27447                   000000018006f340     flightControlSystem_sfun_registry.obj
 0003:00012348       $SG27616                   000000018006f348     flightControlSystem_sfun_registry.obj
 0003:00012368       $SG27621                   000000018006f368     flightControlSystem_sfun_registry.obj
 0003:00012380       $SG27617                   000000018006f380     flightControlSystem_sfun_registry.obj
 0003:00012410       $SG27622                   000000018006f410     flightControlSystem_sfun_registry.obj
 0003:000124a0       $SG27626                   000000018006f4a0     flightControlSystem_sfun_registry.obj
 0003:000124b8       $SG27641                   000000018006f4b8     flightControlSystem_sfun_registry.obj
 0003:000124d8       $SG27646                   000000018006f4d8     flightControlSystem_sfun_registry.obj
 0003:00012500       $SG27627                   000000018006f500     flightControlSystem_sfun_registry.obj
 0003:00012590       $SG27631                   000000018006f590     flightControlSystem_sfun_registry.obj
 0003:000125b0       $SG27632                   000000018006f5b0     flightControlSystem_sfun_registry.obj
 0003:00012640       $SG27636                   000000018006f640     flightControlSystem_sfun_registry.obj
 0003:00012660       $SG27637                   000000018006f660     flightControlSystem_sfun_registry.obj
 0003:000126f0       $SG27642                   000000018006f6f0     flightControlSystem_sfun_registry.obj
 0003:00012780       $SG27647                   000000018006f780     flightControlSystem_sfun_registry.obj
 0003:00012810       $SG27651                   000000018006f810     flightControlSystem_sfun_registry.obj
 0003:00012838       $SG27666                   000000018006f838     flightControlSystem_sfun_registry.obj
 0003:00012850       $SG27652                   000000018006f850     flightControlSystem_sfun_registry.obj
 0003:000128e0       $SG27656                   000000018006f8e0     flightControlSystem_sfun_registry.obj
 0003:00012900       $SG27657                   000000018006f900     flightControlSystem_sfun_registry.obj
 0003:00012990       $SG27661                   000000018006f990     flightControlSystem_sfun_registry.obj
 0003:000129b0       $SG27662                   000000018006f9b0     flightControlSystem_sfun_registry.obj
 0003:00012a40       $SG27667                   000000018006fa40     flightControlSystem_sfun_registry.obj
 0003:00012ad0       $SG27671                   000000018006fad0     flightControlSystem_sfun_registry.obj
 0003:00012af0       $SG27672                   000000018006faf0     flightControlSystem_sfun_registry.obj
 0003:00012b80       $SG27676                   000000018006fb80     flightControlSystem_sfun_registry.obj
 0003:00012ba0       $SG27677                   000000018006fba0     flightControlSystem_sfun_registry.obj
 0003:00012c30       $SG27681                   000000018006fc30     flightControlSystem_sfun_registry.obj
 0003:00012c50       $SG27682                   000000018006fc50     flightControlSystem_sfun_registry.obj
 0003:00012ce0       $SG27686                   000000018006fce0     flightControlSystem_sfun_registry.obj
 0003:00012d00       $SG27687                   000000018006fd00     flightControlSystem_sfun_registry.obj
 0003:00012d90       $SG27691                   000000018006fd90     flightControlSystem_sfun_registry.obj
 0003:00012db0       $SG27692                   000000018006fdb0     flightControlSystem_sfun_registry.obj
 0003:00012e40       $SG27696                   000000018006fe40     flightControlSystem_sfun_registry.obj
 0003:00012e60       $SG27697                   000000018006fe60     flightControlSystem_sfun_registry.obj
 0003:00012ef0       $SG27702                   000000018006fef0     flightControlSystem_sfun_registry.obj
 0003:00012f04       $SG27708                   000000018006ff04     flightControlSystem_sfun_registry.obj
 0003:00012f10       $SG27703                   000000018006ff10     flightControlSystem_sfun_registry.obj
 0003:00012fa0       $SG27709                   000000018006ffa0     flightControlSystem_sfun_registry.obj
 0003:00013030       $SG27713                   0000000180070030     flightControlSystem_sfun_registry.obj
 0003:00013048       $SG27743                   0000000180070048     flightControlSystem_sfun_registry.obj
 0003:00013060       $SG27714                   0000000180070060     flightControlSystem_sfun_registry.obj
 0003:000130f0       $SG27718                   00000001800700f0     flightControlSystem_sfun_registry.obj
 0003:00013100       $SG27719                   0000000180070100     flightControlSystem_sfun_registry.obj
 0003:00013190       $SG27723                   0000000180070190     flightControlSystem_sfun_registry.obj
 0003:000131b0       $SG27724                   00000001800701b0     flightControlSystem_sfun_registry.obj
 0003:00013240       $SG27728                   0000000180070240     flightControlSystem_sfun_registry.obj
 0003:00013260       $SG27729                   0000000180070260     flightControlSystem_sfun_registry.obj
 0003:000132f0       $SG27733                   00000001800702f0     flightControlSystem_sfun_registry.obj
 0003:00013300       $SG27734                   0000000180070300     flightControlSystem_sfun_registry.obj
 0003:00013390       $SG27738                   0000000180070390     flightControlSystem_sfun_registry.obj
 0003:000133a0       $SG27739                   00000001800703a0     flightControlSystem_sfun_registry.obj
 0003:00013430       $SG27744                   0000000180070430     flightControlSystem_sfun_registry.obj
 0003:000134c0       $SG27748                   00000001800704c0     flightControlSystem_sfun_registry.obj
 0003:000134d8       $SG27753                   00000001800704d8     flightControlSystem_sfun_registry.obj
 0003:000134e8       $SG27827                   00000001800704e8     flightControlSystem_sfun_registry.obj
 0003:00013500       $SG27749                   0000000180070500     flightControlSystem_sfun_registry.obj
 0003:00013590       $SG27754                   0000000180070590     flightControlSystem_sfun_registry.obj
 0003:00013620       $SG27762                   0000000180070620     flightControlSystem_sfun_registry.obj
 0003:00013630       $SG27763                   0000000180070630     flightControlSystem_sfun_registry.obj
 0003:000136c0       $SG27769                   00000001800706c0     flightControlSystem_sfun_registry.obj
 0003:000136d0       $SG27770                   00000001800706d0     flightControlSystem_sfun_registry.obj
 0003:00013760       $SG27774                   0000000180070760     flightControlSystem_sfun_registry.obj
 0003:00013770       $SG27775                   0000000180070770     flightControlSystem_sfun_registry.obj
 0003:00013800       $SG27780                   0000000180070800     flightControlSystem_sfun_registry.obj
 0003:00013810       $SG27781                   0000000180070810     flightControlSystem_sfun_registry.obj
 0003:000138a0       $SG27785                   00000001800708a0     flightControlSystem_sfun_registry.obj
 0003:00013920       $SG27815                   0000000180070920     flightControlSystem_sfun_registry.obj
 0003:00013a38       $SG27837                   0000000180070a38     flightControlSystem_sfun_registry.obj
 0003:00013a48       $SG27849                   0000000180070a48     flightControlSystem_sfun_registry.obj
 0003:00013a58       $SG27859                   0000000180070a58     flightControlSystem_sfun_registry.obj
 0003:00013a68       $SG27871                   0000000180070a68     flightControlSystem_sfun_registry.obj
 0003:00013a78       $SG27881                   0000000180070a78     flightControlSystem_sfun_registry.obj
 0003:00013a88       $SG27891                   0000000180070a88     flightControlSystem_sfun_registry.obj
 0003:000145a0       sRtwOptimizationInfoStruct 00000001800715a0     flightControlSystem_sfun.obj
 0003:000145a8       sOptimizationInfoFlags     00000001800715a8     flightControlSystem_sfun.obj
 0003:000145b0       $SG26973                   00000001800715b0     c4_flightControlSystem.obj
 0003:000145b1       $SG26977                   00000001800715b1     c4_flightControlSystem.obj
 0003:000145b2       $SG26981                   00000001800715b2     c4_flightControlSystem.obj
 0003:000145b3       $SG26985                   00000001800715b3     c4_flightControlSystem.obj
 0003:000145b4       $SG26989                   00000001800715b4     c4_flightControlSystem.obj
 0003:000145b5       $SG26993                   00000001800715b5     c4_flightControlSystem.obj
 0003:000145b6       $SG26997                   00000001800715b6     c4_flightControlSystem.obj
 0003:000145b7       $SG27004                   00000001800715b7     c4_flightControlSystem.obj
 0003:000145b8       $SG27008                   00000001800715b8     c4_flightControlSystem.obj
 0003:000145b9       $SG27015                   00000001800715b9     c4_flightControlSystem.obj
 0003:000145ba       $SG27019                   00000001800715ba     c4_flightControlSystem.obj
 0003:000145bb       $SG27026                   00000001800715bb     c4_flightControlSystem.obj
 0003:000145bc       $SG27030                   00000001800715bc     c4_flightControlSystem.obj
 0003:000145bd       $SG27037                   00000001800715bd     c4_flightControlSystem.obj
 0003:000145be       $SG27041                   00000001800715be     c4_flightControlSystem.obj
 0003:000145bf       $SG27048                   00000001800715bf     c4_flightControlSystem.obj
 0003:000145c0       $SG27052                   00000001800715c0     c4_flightControlSystem.obj
 0003:000145c1       $SG27056                   00000001800715c1     c4_flightControlSystem.obj
 0003:000145c2       $SG27060                   00000001800715c2     c4_flightControlSystem.obj
 0003:000145c3       $SG27064                   00000001800715c3     c4_flightControlSystem.obj
 0003:000145c4       $SG27068                   00000001800715c4     c4_flightControlSystem.obj
 0003:000145c5       $SG27072                   00000001800715c5     c4_flightControlSystem.obj
 0003:000145c6       $SG27079                   00000001800715c6     c4_flightControlSystem.obj
 0003:000145c7       $SG27083                   00000001800715c7     c4_flightControlSystem.obj
 0003:000145c8       $SG27087                   00000001800715c8     c4_flightControlSystem.obj
 0003:000145c9       $SG27091                   00000001800715c9     c4_flightControlSystem.obj
 0003:000145ca       $SG27095                   00000001800715ca     c4_flightControlSystem.obj
 0003:000145cb       $SG27099                   00000001800715cb     c4_flightControlSystem.obj
 0003:000145cc       $SG27106                   00000001800715cc     c4_flightControlSystem.obj
 0003:000145cd       $SG27110                   00000001800715cd     c4_flightControlSystem.obj
 0003:000145ce       $SG27114                   00000001800715ce     c4_flightControlSystem.obj
 0003:000145cf       $SG27118                   00000001800715cf     c4_flightControlSystem.obj
 0003:000145d0       $SG27122                   00000001800715d0     c4_flightControlSystem.obj
 0003:000145d1       $SG27126                   00000001800715d1     c4_flightControlSystem.obj
 0003:000145d2       $SG27130                   00000001800715d2     c4_flightControlSystem.obj
 0003:000145d3       $SG27134                   00000001800715d3     c4_flightControlSystem.obj
 0003:000145d4       $SG27138                   00000001800715d4     c4_flightControlSystem.obj
 0003:000145d5       $SG28585                   00000001800715d5     c4_flightControlSystem.obj
 0003:000145d6       $SG35572                   00000001800715d6     c4_flightControlSystem.obj
 0003:000145d7       $SG35573                   00000001800715d7     c4_flightControlSystem.obj
 0003:000145d8       _sfTime_                   00000001800715d8     c4_flightControlSystem.obj
 0003:000145e0       ?newstr@?1??sf_c4_flightControlSystem_get_post_codegen_info@@9@9 00000001800715e0     c4_flightControlSystem.obj
 0003:00014ac1       $SG35719                   0000000180071ac1     c4_flightControlSystem.obj
 0003:00014ac4       sfGlobalMdlStartCallCounts 0000000180071ac4     flightControlSystem_sfun_registry.obj
 0003:00014ac8       $SG27282                   0000000180071ac8     flightControlSystem_sfun_registry.obj
 0003:00014b20       GS_ExceptionRecord         0000000180071b20     MSVCRT:gs_report.obj
 0003:00014bc0       GS_ContextRecord           0000000180071bc0     MSVCRT:gs_report.obj
 0003:000150a0       ?is_initialized_as_dll@@3_NA 00000001800720a0     MSVCRT:utility.obj
 0003:000150a1       ?module_local_atexit_table_initialized@@3_NA 00000001800720a1     MSVCRT:utility.obj
 0003:000150a8       ?module_local_atexit_table@@3U_onexit_table_t@@A 00000001800720a8     MSVCRT:utility.obj
 0003:000150c0       ?module_local_at_quick_exit_table@@3U_onexit_table_t@@A 00000001800720c0     MSVCRT:utility.obj
 0003:000150d8       ?__proc_attached@@3HA      00000001800720d8     MSVCRT:dll_dllmain.obj
