 flightControlSystem_sfun

 Timestamp is 608acb62 (Thu Apr 29 20:36:10 2021)

 Preferred load address is 0000000180000000

 Start         Length     Name                   Class
 0001:00000000 00000390H .text$di                CODE
 0001:00000390 0004d4b0H .text$mn                CODE
 0001:0004d840 00000040H .text$mn$00             CODE
 0001:0004d880 00000d00H .text$x                 CODE
 0001:0004e580 00000375H .text$yd                CODE
 0002:00000000 000007e8H .idata$5                DATA
 0002:000007e8 00000028H .00cfg                  DATA
 0002:00000810 00000008H .CRT$XCA                DATA
 0002:00000818 00000050H .CRT$XCU                DATA
 0002:00000868 00000008H .CRT$XCZ                DATA
 0002:00000870 00000008H .CRT$XIA                DATA
 0002:00000878 00000008H .CRT$XIZ                DATA
 0002:00000880 00000008H .CRT$XPA                DATA
 0002:00000888 00000008H .CRT$XPZ                DATA
 0002:00000890 00000008H .CRT$XTA                DATA
 0002:00000898 00000008H .CRT$XTZ                DATA
 0002:000008a0 00000000H .gehcont$y              DATA
 0002:000008a0 00000000H .gfids$y                DATA
 0002:000008a0 000052e0H .rdata                  DATA
 0002:00005b80 00000008H .rdata$CastGuardVftablesA DATA
 0002:00005b88 00000008H .rdata$CastGuardVftablesC DATA
 0002:00005b90 00000f64H .rdata$r                DATA
 0002:00006af4 000002ecH .rdata$zzzdbg           DATA
 0002:00006de0 00000008H .rtc$IAA                DATA
 0002:00006de8 00000008H .rtc$IZZ                DATA
 0002:00006df0 00000008H .rtc$TAA                DATA
 0002:00006df8 00000008H .rtc$TZZ                DATA
 0002:00006e00 000029e8H .xdata                  DATA
 0002:000097e8 000000f8H .xdata$x                DATA
 0002:000098e0 000001fcH .edata                  DATA
 0002:00009adc 000001ccH .idata$2                DATA
 0002:00009ca8 00000018H .idata$3                DATA
 0002:00009cc0 000007e8H .idata$4                DATA
 0002:0000a4a8 00001e70H .idata$6                DATA
 0003:00000000 00013b40H .data                   DATA
 0003:00013b40 00000230H .data$r                 DATA
 0003:00013d70 00000830H .data$rs                DATA
 0003:000145a0 00000b80H .bss                    DATA
 0004:00000000 00002c7cH .pdata                  DATA

  Address         Publics by Value              Rva+Base               Lib:Object

 0000:00000000       __arm64x_native_entrypoint 0000000000000000     <absolute>
 0000:00000000       __hybrid_code_map          0000000000000000     <absolute>
 0000:00000000       __x64_code_ranges_to_entry_points_count 0000000000000000     <absolute>
 0000:00000000       __arm64x_extra_rfe_table   0000000000000000     <absolute>
 0000:00000000       __guard_iat_table          0000000000000000     <absolute>
 0000:00000000       __dynamic_value_reloc_table 0000000000000000     <absolute>
 0000:00000000       ___safe_se_handler_table   0000000000000000     <absolute>
 0000:00000000       __hybrid_auxiliary_iat_copy 0000000000000000     <absolute>
 0000:00000000       __arm64x_extra_rfe_table_size 0000000000000000     <absolute>
 0000:00000000       __guard_eh_cont_count      0000000000000000     <absolute>
 0000:00000000       __hybrid_code_map_count    0000000000000000     <absolute>
 0000:00000000       __guard_fids_table         0000000000000000     <absolute>
 0000:00000000       __enclave_config           0000000000000000     <absolute>
 0000:00000000       __x64_code_ranges_to_entry_points 0000000000000000     <absolute>
 0000:00000000       __hybrid_auxiliary_iat     0000000000000000     <absolute>
 0000:00000000       ___safe_se_handler_count   0000000000000000     <absolute>
 0000:00000000       __guard_fids_count         0000000000000000     <absolute>
 0000:00000000       __arm64x_redirection_metadata_count 0000000000000000     <absolute>
 0000:00000000       __AbsoluteZero             0000000000000000     <absolute>
 0000:00000000       __guard_longjmp_table      0000000000000000     <absolute>
 0000:00000000       __guard_eh_cont_table      0000000000000000     <absolute>
 0000:00000000       __arm64x_redirection_metadata 0000000000000000     <absolute>
 0000:00000000       __guard_iat_count          0000000000000000     <absolute>
 0000:00000000       __guard_check_icall_a64n_fptr 0000000000000000     <absolute>
 0000:00000000       __guard_longjmp_count      0000000000000000     <absolute>
 0000:00000000       __volatile_metadata        0000000000000000     <absolute>
 0000:00000100       __guard_flags              0000000000000100     <absolute>
 0000:00000000       __ImageBase                0000000180000000     <linker-defined>
 0001:00000390       flightControlSystem_initializer 0000000180001390 f   flightControlSystem_sfun.obj
 0001:000003a0       flightControlSystem_terminator 00000001800013a0 f   flightControlSystem_sfun.obj
 0001:000003b0       load_flightControlSystem_optimization_info 00000001800013b0 f   flightControlSystem_sfun.obj
 0001:00000460       unload_flightControlSystem_optimization_info 0000000180001460 f   flightControlSystem_sfun.obj
 0001:00000490       sf_flightControlSystem_method_dispatcher 0000000180001490 f   flightControlSystem_sfun.obj
 0001:000004e0       sf_flightControlSystem_process_check_sum_call 00000001800014e0 f   flightControlSystem_sfun.obj
 0001:000009d0       sf_flightControlSystem_get_eml_resolved_functions_info 00000001800019d0 f   flightControlSystem_sfun.obj
 0001:00000bb0       sf_flightControlSystem_third_party_uses_info 0000000180001bb0 f   flightControlSystem_sfun.obj
 0001:00000d80       sf_flightControlSystem_jit_fallback_info 0000000180001d80 f   flightControlSystem_sfun.obj
 0001:00000f50       sf_flightControlSystem_get_post_codegen_info 0000000180001f50 f   flightControlSystem_sfun.obj
 0001:00001130       sf_flightControlSystem_updateBuildInfo_args_info 0000000180002130 f   flightControlSystem_sfun.obj
 0001:00001300       flightControlSystem_register_exported_symbols 0000000180002300 f   flightControlSystem_sfun.obj
 0001:00001310       sf_c4_flightControlSystem_get_eml_resolved_functions_info 0000000180002310 f   c4_flightControlSystem.obj
 0001:00001390       sf_c4_flightControlSystem_get_check_sum 0000000180002390 f   c4_flightControlSystem.obj
 0001:00001460       c4_flightControlSystem_method_dispatcher 0000000180002460 f   c4_flightControlSystem.obj
 0001:0002e040       sf_c4_flightControlSystem_third_party_uses_info 000000018002f040 f   c4_flightControlSystem.obj
 0001:0002e100       sf_c4_flightControlSystem_jit_fallback_info 000000018002f100 f   c4_flightControlSystem.obj
 0001:0002e290       sf_c4_flightControlSystem_updateBuildInfo_args_info 000000018002f290 f   c4_flightControlSystem.obj
 0001:0002e630       sf_c4_flightControlSystem_get_post_codegen_info 000000018002f630 f   c4_flightControlSystem.obj
 0001:0002eb30       frexpf                     000000018002fb30 f i c4_flightControlSystem.obj
 0001:0002eb60       mexFunction                000000018002fb60 f   flightControlSystem_sfun_registry.obj
 0001:00031340       _ssSetInputPortDirectFeedThroughFcn 0000000180032340 f   flightControlSystem_sfun_registry.obj
 0001:000314b0       _ssSetRWorkValueFcn        00000001800324b0 f   flightControlSystem_sfun_registry.obj
 0001:00031530       _ssGetRWorkValueFcn        0000000180032530 f   flightControlSystem_sfun_registry.obj
 0001:000315a0       _ssSetIWorkValueFcn        00000001800325a0 f   flightControlSystem_sfun_registry.obj
 0001:00031620       _ssGetIWorkValueFcn        0000000180032620 f   flightControlSystem_sfun_registry.obj
 0001:00031690       _ssSetPWorkValueFcn        0000000180032690 f   flightControlSystem_sfun_registry.obj
 0001:00031710       _ssGetPWorkValueFcn        0000000180032710 f   flightControlSystem_sfun_registry.obj
 0001:00031780       _ssGetInputPortSignalFcn   0000000180032780 f   flightControlSystem_sfun_registry.obj
 0001:00031b10       _ssGetInputPortBufferDstPortFcn 0000000180032b10 f   flightControlSystem_sfun_registry.obj
 0001:00031b90       _ssGetInputPortSignalPtrsFcn 0000000180032b90 f   flightControlSystem_sfun_registry.obj
 0001:00031f20       ssGetParameterTuningCompliance 0000000180032f20 f   flightControlSystem_sfun_registry.obj
 0001:00031f90       ssGetDTypeIdFromMxArray    0000000180032f90 f   flightControlSystem_sfun_registry.obj
 0001:000320b0       ssWriteRTWMx2dMatParam     00000001800330b0 f   flightControlSystem_sfun_registry.obj
 0001:00032140       ssWriteRTWMxVectParam      0000000180033140 f   flightControlSystem_sfun_registry.obj
 0001:000321c0       ssWriteRTWParameters       00000001800331c0 f   flightControlSystem_sfun_registry.obj
 0001:00032780       ssWriteRTWParamSettings    0000000180033780 f   flightControlSystem_sfun_registry.obj
 0001:00032e70       ssWriteRTWStr              0000000180033e70 f   flightControlSystem_sfun_registry.obj
 0001:00032ed0       ssWriteRTWWorkVect         0000000180033ed0 f   flightControlSystem_sfun_registry.obj
 0001:00033430       ssWarning                  0000000180034430 f   flightControlSystem_sfun_registry.obj
 0001:00033520       ssWriteRTWNameValuePair    0000000180034520 f   flightControlSystem_sfun_registry.obj
 0001:00033a20       _ssSetInputPortMatrixDimensions 0000000180034a20 f   flightControlSystem_sfun_registry.obj
 0001:00033b40       _ssSetOutputPortMatrixDimensions 0000000180034b40 f   flightControlSystem_sfun_registry.obj
 0001:00033c60       _ssSetInputPortVectorDimension 0000000180034c60 f   flightControlSystem_sfun_registry.obj
 0001:00033d10       _ssSetOutputPortVectorDimension 0000000180034d10 f   flightControlSystem_sfun_registry.obj
 0001:00033dc0       ssIsRunTimeParamTunable    0000000180034dc0 f   flightControlSystem_sfun_registry.obj
 0001:00033e30       ssGetSFuncBlockHandle      0000000180034e30 f   flightControlSystem_sfun_registry.obj
 0001:00033ea0       _ssGetCurrentInputPortWidth 0000000180034ea0 f   flightControlSystem_sfun_registry.obj
 0001:00033fe0       _ssGetCurrentOutputPortWidth 0000000180034fe0 f   flightControlSystem_sfun_registry.obj
 0001:00034120       _ssGetCallSystemNumFcnCallDestinations 0000000180035120 f   flightControlSystem_sfun_registry.obj
 0001:00034190       ssGetIsZeroCrossControlDisabled 0000000180035190 f   flightControlSystem_sfun_registry.obj
 0001:00034200       ssSetIsInputPortUsedForContZcSignal 0000000180035200 f   flightControlSystem_sfun_registry.obj
 0001:00034270       ssSetZcSignalIsZcElementDisc 0000000180035270 f   flightControlSystem_sfun_registry.obj
 0001:00034320       ssSetZcSignalName          0000000180035320 f   flightControlSystem_sfun_registry.obj
 0001:00034390       ssSetZcSignalWidth         0000000180035390 f   flightControlSystem_sfun_registry.obj
 0001:00034400       ssSetZcSignalZcEventType   0000000180035400 f   flightControlSystem_sfun_registry.obj
 0001:00034470       ssSetZcSignalType          0000000180035470 f   flightControlSystem_sfun_registry.obj
 0001:000344e0       ssSetZcSignalZcTol         00000001800354e0 f   flightControlSystem_sfun_registry.obj
 0001:00034550       ssSetZcSignalNeedsEventNotification 0000000180035550 f   flightControlSystem_sfun_registry.obj
 0001:000345c0       ssCreateAndAddZcSignalInfo 00000001800355c0 f   flightControlSystem_sfun_registry.obj
 0001:00034630       ssCloneAndAddZcSignalInfo  0000000180035630 f   flightControlSystem_sfun_registry.obj
 0001:000346a0       ssGetNumZcSignals          00000001800356a0 f   flightControlSystem_sfun_registry.obj
 0001:00034710       ssGetZcSignalVector        0000000180035710 f   flightControlSystem_sfun_registry.obj
 0001:00034780       ssGetZcSignalName          0000000180035780 f   flightControlSystem_sfun_registry.obj
 0001:000347f0       ssGetZcSignalWidth         00000001800357f0 f   flightControlSystem_sfun_registry.obj
 0001:00034860       ssGetZcSignalZcEventType   0000000180035860 f   flightControlSystem_sfun_registry.obj
 0001:000348d0       ssGetZcSignalZcEvents      00000001800358d0 f   flightControlSystem_sfun_registry.obj
 0001:00034940       ssGetZcSignalType          0000000180035940 f   flightControlSystem_sfun_registry.obj
 0001:000349b0       ssGetZcSignalZcTol         00000001800359b0 f   flightControlSystem_sfun_registry.obj
 0001:00034a30       ssGetZcSignalNeedsEventNotification 0000000180035a30 f   flightControlSystem_sfun_registry.obj
 0001:00034aa0       ssGetZcSignalIsZcElementDisc 0000000180035aa0 f   flightControlSystem_sfun_registry.obj
 0001:00034b40       ssGetIsInputPortElementContinuous 0000000180035b40 f   flightControlSystem_sfun_registry.obj
 0001:00034be0       _ssGetAbsTol               0000000180035be0 f   flightControlSystem_sfun_registry.obj
 0001:00034c50       _ssSetStateAbsTol          0000000180035c50 f   flightControlSystem_sfun_registry.obj
 0001:00034d30       _ssSetInputPortReusableFcn 0000000180035d30 f   flightControlSystem_sfun_registry.obj
 0001:00034e30       _ssSetOutputPortReusableFcn 0000000180035e30 f   flightControlSystem_sfun_registry.obj
 0001:00034f30       _ssSetSymbolicDimsSupport  0000000180035f30 f   flightControlSystem_sfun_registry.obj
 0001:00034fa0       _ssRegisterSymbolicDimsExpr 0000000180035fa0 f   flightControlSystem_sfun_registry.obj
 0001:00035020       _ssRegisterSymbolicDims    0000000180036020 f   flightControlSystem_sfun_registry.obj
 0001:000350c0       _ssRegisterSymbolicDimsString 00000001800360c0 f   flightControlSystem_sfun_registry.obj
 0001:00035140       _ssRegisterSymbolicDimsIntValue 0000000180036140 f   flightControlSystem_sfun_registry.obj
 0001:000351b0       _ssRegisterSymbolicDimsPlus 00000001800361b0 f   flightControlSystem_sfun_registry.obj
 0001:00035230       _ssRegisterSymbolicDimsMinus 0000000180036230 f   flightControlSystem_sfun_registry.obj
 0001:000352b0       _ssRegisterSymbolicDimsMultiply 00000001800362b0 f   flightControlSystem_sfun_registry.obj
 0001:00035330       _ssRegisterSymbolicDimsDivide 0000000180036330 f   flightControlSystem_sfun_registry.obj
 0001:000353b0       _ssGetNumSymbolicDims      00000001800363b0 f   flightControlSystem_sfun_registry.obj
 0001:00035420       _ssGetSymbolicDim          0000000180036420 f   flightControlSystem_sfun_registry.obj
 0001:000354a0       _ssSetInputPortSymbolicDimsId 00000001800364a0 f   flightControlSystem_sfun_registry.obj
 0001:00035510       _ssGetCompInputPortSymbolicDimsId 0000000180036510 f   flightControlSystem_sfun_registry.obj
 0001:00035580       _ssSetCompInputPortSymbolicDimsId 0000000180036580 f   flightControlSystem_sfun_registry.obj
 0001:000355f0       _ssSetOutputPortSymbolicDimsId 00000001800365f0 f   flightControlSystem_sfun_registry.obj
 0001:00035660       _ssGetCompOutputPortSymbolicDimsId 0000000180036660 f   flightControlSystem_sfun_registry.obj
 0001:000356d0       _ssSetCompOutputPortSymbolicDimsId 00000001800366d0 f   flightControlSystem_sfun_registry.obj
 0001:00035740       _ssSetCompDWorkSymbolicDimsId 0000000180036740 f   flightControlSystem_sfun_registry.obj
 0001:000357b0       sf_process_check_sum_call  00000001800367b0 f   flightControlSystem_sfun_registry.obj
 0001:00035800       sf_process_get_third_party_uses_info_call 0000000180036800 f   flightControlSystem_sfun_registry.obj
 0001:00035a30       sf_process_get_jit_fallback_info_call 0000000180036a30 f   flightControlSystem_sfun_registry.obj
 0001:00035c60       sf_process_get_post_codegen_info_call 0000000180036c60 f   flightControlSystem_sfun_registry.obj
 0001:00035e90       sf_process_get_updateBuildInfo_args_info_call 0000000180036e90 f   flightControlSystem_sfun_registry.obj
 0001:000360c0       sf_process_get_eml_resolved_functions_info_call 00000001800370c0 f   flightControlSystem_sfun_registry.obj
 0001:000362f0       sf_mex_unlock_call         00000001800372f0 f   flightControlSystem_sfun_registry.obj
 0001:00036510       sf_machine_global_initializer_called 0000000180037510 f   flightControlSystem_sfun_registry.obj
 0001:00036540       sf_machine_global_method_dispatcher 0000000180037540 f   flightControlSystem_sfun_registry.obj
 0001:000365a0       sf_machine_global_terminator 00000001800375a0 f   flightControlSystem_sfun_registry.obj
 0001:000365d0       sf_register_machine_exported_symbols 00000001800375d0 f   flightControlSystem_sfun_registry.obj
 0001:000365f0       callCustomFcn              00000001800375f0 f   flightControlSystem_sfun_registry.obj
 0001:00036600       sf_machine_global_initializer 0000000180037600 f   flightControlSystem_sfun_registry.obj
 0001:00036670       mdlGetSimState             0000000180037670 f   flightControlSystem_sfun_registry.obj
 0001:000366b0       mdlSetSimState             00000001800376b0 f   flightControlSystem_sfun_registry.obj
 0001:00037000       ProcessMexSfunctionEveryCall 0000000180038000 f   flightControlSystem_sfun_registry.obj
 0001:00038180       __local_stdio_printf_options 0000000180039180 f i flightControlSystem_sfun_registry.obj
 0001:00038190       _vsnprintf_l               0000000180039190 f i flightControlSystem_sfun_registry.obj
 0001:00038210       _vsprintf_l                0000000180039210 f i flightControlSystem_sfun_registry.obj
 0001:00038260       sprintf                    0000000180039260 f i flightControlSystem_sfun_registry.obj
 0001:000382b0       mexfilerequiredapiversion  00000001800392b0 f   c_mexapi_version.obj
 0001:000382e0       ?get_size@?$typed_base_any_policy@H@anyimpl@cvflann@@UEAA_KXZ 00000001800392e0 f i extractSurfCore.obj
 0001:000382f0       ?type@?$typed_base_any_policy@H@anyimpl@cvflann@@UEAAAEBVtype_info@@XZ 00000001800392f0 f i extractSurfCore.obj
 0001:00038300       ?static_delete@?$small_any_policy@H@anyimpl@cvflann@@UEAAXPEAPEAX@Z 0000000180039300 f i extractSurfCore.obj
 0001:00038310       ?copy_from_value@?$small_any_policy@H@anyimpl@cvflann@@UEAAXPEBXPEAPEAX@Z 0000000180039310 f i extractSurfCore.obj
 0001:00038350       ?clone@?$small_any_policy@H@anyimpl@cvflann@@UEAAXPEBQEAXPEAPEAX@Z 0000000180039350 f i extractSurfCore.obj
 0001:00038370       ?move@?$small_any_policy@H@anyimpl@cvflann@@UEAAXPEBQEAXPEAPEAX@Z 0000000180039370 f i extractSurfCore.obj
 0001:00038390       ?get_value@?$small_any_policy@H@anyimpl@cvflann@@UEAAPEAXPEAPEAX@Z 0000000180039390 f i extractSurfCore.obj
 0001:000383a0       ?get_value@?$small_any_policy@H@anyimpl@cvflann@@UEAAPEBXPEBQEAX@Z 00000001800393a0 f i extractSurfCore.obj
 0001:000383b0       ?print@?$small_any_policy@H@anyimpl@cvflann@@UEAAXAEAV?$basic_ostream@DU?$char_traits@D@std@@@std@@PEBQEAX@Z 00000001800393b0 f i extractSurfCore.obj
 0001:000383e0       ??_G?$small_any_policy@H@anyimpl@cvflann@@UEAAPEAXI@Z 00000001800393e0 f i extractSurfCore.obj
 0001:000383e0       ??_E?$small_any_policy@H@anyimpl@cvflann@@UEAAPEAXI@Z 00000001800393e0 f i extractSurfCore.obj
 0001:00038420       ?get_size@?$typed_base_any_policy@M@anyimpl@cvflann@@UEAA_KXZ 0000000180039420 f i extractSurfCore.obj
 0001:00038430       ?type@?$typed_base_any_policy@M@anyimpl@cvflann@@UEAAAEBVtype_info@@XZ 0000000180039430 f i extractSurfCore.obj
 0001:00038440       ?static_delete@?$small_any_policy@M@anyimpl@cvflann@@UEAAXPEAPEAX@Z 0000000180039440 f i extractSurfCore.obj
 0001:00038450       ?copy_from_value@?$small_any_policy@M@anyimpl@cvflann@@UEAAXPEBXPEAPEAX@Z 0000000180039450 f i extractSurfCore.obj
 0001:00038490       ?clone@?$small_any_policy@M@anyimpl@cvflann@@UEAAXPEBQEAXPEAPEAX@Z 0000000180039490 f i extractSurfCore.obj
 0001:000384b0       ?move@?$small_any_policy@M@anyimpl@cvflann@@UEAAXPEBQEAXPEAPEAX@Z 00000001800394b0 f i extractSurfCore.obj
 0001:000384d0       ?get_value@?$small_any_policy@M@anyimpl@cvflann@@UEAAPEAXPEAPEAX@Z 00000001800394d0 f i extractSurfCore.obj
 0001:000384e0       ?get_value@?$small_any_policy@M@anyimpl@cvflann@@UEAAPEBXPEBQEAX@Z 00000001800394e0 f i extractSurfCore.obj
 0001:000384f0       ?print@?$small_any_policy@M@anyimpl@cvflann@@UEAAXAEAV?$basic_ostream@DU?$char_traits@D@std@@@std@@PEBQEAX@Z 00000001800394f0 f i extractSurfCore.obj
 0001:00038520       ??_E?$small_any_policy@M@anyimpl@cvflann@@UEAAPEAXI@Z 0000000180039520 f i extractSurfCore.obj
 0001:00038520       ??_G?$small_any_policy@M@anyimpl@cvflann@@UEAAPEAXI@Z 0000000180039520 f i extractSurfCore.obj
 0001:00038560       ?get_size@?$typed_base_any_policy@_N@anyimpl@cvflann@@UEAA_KXZ 0000000180039560 f i extractSurfCore.obj
 0001:00038570       ?type@?$typed_base_any_policy@_N@anyimpl@cvflann@@UEAAAEBVtype_info@@XZ 0000000180039570 f i extractSurfCore.obj
 0001:00038580       ?static_delete@?$small_any_policy@_N@anyimpl@cvflann@@UEAAXPEAPEAX@Z 0000000180039580 f i extractSurfCore.obj
 0001:00038590       ?copy_from_value@?$small_any_policy@_N@anyimpl@cvflann@@UEAAXPEBXPEAPEAX@Z 0000000180039590 f i extractSurfCore.obj
 0001:000385d0       ?clone@?$small_any_policy@_N@anyimpl@cvflann@@UEAAXPEBQEAXPEAPEAX@Z 00000001800395d0 f i extractSurfCore.obj
 0001:000385f0       ?move@?$small_any_policy@_N@anyimpl@cvflann@@UEAAXPEBQEAXPEAPEAX@Z 00000001800395f0 f i extractSurfCore.obj
 0001:00038610       ?get_value@?$small_any_policy@_N@anyimpl@cvflann@@UEAAPEAXPEAPEAX@Z 0000000180039610 f i extractSurfCore.obj
 0001:00038620       ?get_value@?$small_any_policy@_N@anyimpl@cvflann@@UEAAPEBXPEBQEAX@Z 0000000180039620 f i extractSurfCore.obj
 0001:00038630       ?print@?$small_any_policy@_N@anyimpl@cvflann@@UEAAXAEAV?$basic_ostream@DU?$char_traits@D@std@@@std@@PEBQEAX@Z 0000000180039630 f i extractSurfCore.obj
 0001:00038660       ??_E?$small_any_policy@_N@anyimpl@cvflann@@UEAAPEAXI@Z 0000000180039660 f i extractSurfCore.obj
 0001:00038660       ??_G?$small_any_policy@_N@anyimpl@cvflann@@UEAAPEAXI@Z 0000000180039660 f i extractSurfCore.obj
 0001:000386a0       ?get_size@?$typed_base_any_policy@I@anyimpl@cvflann@@UEAA_KXZ 00000001800396a0 f i extractSurfCore.obj
 0001:000386b0       ?type@?$typed_base_any_policy@I@anyimpl@cvflann@@UEAAAEBVtype_info@@XZ 00000001800396b0 f i extractSurfCore.obj
 0001:000386c0       ?static_delete@?$small_any_policy@I@anyimpl@cvflann@@UEAAXPEAPEAX@Z 00000001800396c0 f i extractSurfCore.obj
 0001:000386d0       ?copy_from_value@?$small_any_policy@I@anyimpl@cvflann@@UEAAXPEBXPEAPEAX@Z 00000001800396d0 f i extractSurfCore.obj
 0001:00038710       ?clone@?$small_any_policy@I@anyimpl@cvflann@@UEAAXPEBQEAXPEAPEAX@Z 0000000180039710 f i extractSurfCore.obj
 0001:00038730       ?move@?$small_any_policy@I@anyimpl@cvflann@@UEAAXPEBQEAXPEAPEAX@Z 0000000180039730 f i extractSurfCore.obj
 0001:00038750       ?get_value@?$small_any_policy@I@anyimpl@cvflann@@UEAAPEAXPEAPEAX@Z 0000000180039750 f i extractSurfCore.obj
 0001:00038760       ?get_value@?$small_any_policy@I@anyimpl@cvflann@@UEAAPEBXPEBQEAX@Z 0000000180039760 f i extractSurfCore.obj
 0001:00038770       ?print@?$small_any_policy@I@anyimpl@cvflann@@UEAAXAEAV?$basic_ostream@DU?$char_traits@D@std@@@std@@PEBQEAX@Z 0000000180039770 f i extractSurfCore.obj
 0001:000387a0       ??_G?$small_any_policy@I@anyimpl@cvflann@@UEAAPEAXI@Z 00000001800397a0 f i extractSurfCore.obj
 0001:000387a0       ??_E?$small_any_policy@I@anyimpl@cvflann@@UEAAPEAXI@Z 00000001800397a0 f i extractSurfCore.obj
 0001:000387e0       ?get_size@?$typed_base_any_policy@W4flann_centers_init_t@cvflann@@@anyimpl@cvflann@@UEAA_KXZ 00000001800397e0 f i extractSurfCore.obj
 0001:000387f0       ?type@?$typed_base_any_policy@W4flann_centers_init_t@cvflann@@@anyimpl@cvflann@@UEAAAEBVtype_info@@XZ 00000001800397f0 f i extractSurfCore.obj
 0001:00038800       ?static_delete@?$big_any_policy@W4flann_centers_init_t@cvflann@@@anyimpl@cvflann@@UEAAXPEAPEAX@Z 0000000180039800 f i extractSurfCore.obj
 0001:00038850       ?copy_from_value@?$big_any_policy@W4flann_centers_init_t@cvflann@@@anyimpl@cvflann@@UEAAXPEBXPEAPEAX@Z 0000000180039850 f i extractSurfCore.obj
 0001:000388b0       ?clone@?$big_any_policy@W4flann_centers_init_t@cvflann@@@anyimpl@cvflann@@UEAAXPEBQEAXPEAPEAX@Z 00000001800398b0 f i extractSurfCore.obj
 0001:00038920       ?move@?$big_any_policy@W4flann_centers_init_t@cvflann@@@anyimpl@cvflann@@UEAAXPEBQEAXPEAPEAX@Z 0000000180039920 f i extractSurfCore.obj
 0001:00038950       ?get_value@?$big_any_policy@W4flann_centers_init_t@cvflann@@@anyimpl@cvflann@@UEAAPEAXPEAPEAX@Z 0000000180039950 f i extractSurfCore.obj
 0001:00038970       ?get_value@?$big_any_policy@W4flann_centers_init_t@cvflann@@@anyimpl@cvflann@@UEAAPEBXPEBQEAX@Z 0000000180039970 f i extractSurfCore.obj
 0001:00038990       ?print@?$big_any_policy@W4flann_centers_init_t@cvflann@@@anyimpl@cvflann@@UEAAXAEAV?$basic_ostream@DU?$char_traits@D@std@@@std@@PEBQEAX@Z 0000000180039990 f i extractSurfCore.obj
 0001:000389c0       ??_E?$big_any_policy@W4flann_centers_init_t@cvflann@@@anyimpl@cvflann@@UEAAPEAXI@Z 00000001800399c0 f i extractSurfCore.obj
 0001:000389c0       ??_G?$big_any_policy@W4flann_centers_init_t@cvflann@@@anyimpl@cvflann@@UEAAPEAXI@Z 00000001800399c0 f i extractSurfCore.obj
 0001:00038a00       ?get_size@?$typed_base_any_policy@W4flann_algorithm_t@cvflann@@@anyimpl@cvflann@@UEAA_KXZ 0000000180039a00 f i extractSurfCore.obj
 0001:00038a10       ?type@?$typed_base_any_policy@W4flann_algorithm_t@cvflann@@@anyimpl@cvflann@@UEAAAEBVtype_info@@XZ 0000000180039a10 f i extractSurfCore.obj
 0001:00038a20       ?static_delete@?$big_any_policy@W4flann_algorithm_t@cvflann@@@anyimpl@cvflann@@UEAAXPEAPEAX@Z 0000000180039a20 f i extractSurfCore.obj
 0001:00038a70       ?copy_from_value@?$big_any_policy@W4flann_algorithm_t@cvflann@@@anyimpl@cvflann@@UEAAXPEBXPEAPEAX@Z 0000000180039a70 f i extractSurfCore.obj
 0001:00038ad0       ?clone@?$big_any_policy@W4flann_algorithm_t@cvflann@@@anyimpl@cvflann@@UEAAXPEBQEAXPEAPEAX@Z 0000000180039ad0 f i extractSurfCore.obj
 0001:00038b40       ?move@?$big_any_policy@W4flann_algorithm_t@cvflann@@@anyimpl@cvflann@@UEAAXPEBQEAXPEAPEAX@Z 0000000180039b40 f i extractSurfCore.obj
 0001:00038b70       ?get_value@?$big_any_policy@W4flann_algorithm_t@cvflann@@@anyimpl@cvflann@@UEAAPEAXPEAPEAX@Z 0000000180039b70 f i extractSurfCore.obj
 0001:00038b90       ?get_value@?$big_any_policy@W4flann_algorithm_t@cvflann@@@anyimpl@cvflann@@UEAAPEBXPEBQEAX@Z 0000000180039b90 f i extractSurfCore.obj
 0001:00038bb0       ?print@?$big_any_policy@W4flann_algorithm_t@cvflann@@@anyimpl@cvflann@@UEAAXAEAV?$basic_ostream@DU?$char_traits@D@std@@@std@@PEBQEAX@Z 0000000180039bb0 f i extractSurfCore.obj
 0001:00038be0       ??_E?$big_any_policy@W4flann_algorithm_t@cvflann@@@anyimpl@cvflann@@UEAAPEAXI@Z 0000000180039be0 f i extractSurfCore.obj
 0001:00038be0       ??_G?$big_any_policy@W4flann_algorithm_t@cvflann@@@anyimpl@cvflann@@UEAAPEAXI@Z 0000000180039be0 f i extractSurfCore.obj
 0001:00038c20       ?get_size@?$typed_base_any_policy@V?$basic_string@DU?$char_traits@D@std@@V?$allocator@D@2@@std@@@anyimpl@cvflann@@UEAA_KXZ 0000000180039c20 f i extractSurfCore.obj
 0001:00038c30       ?type@?$typed_base_any_policy@V?$basic_string@DU?$char_traits@D@std@@V?$allocator@D@2@@std@@@anyimpl@cvflann@@UEAAAEBVtype_info@@XZ 0000000180039c30 f i extractSurfCore.obj
 0001:00038c40       ?static_delete@?$big_any_policy@V?$basic_string@DU?$char_traits@D@std@@V?$allocator@D@2@@std@@@anyimpl@cvflann@@UEAAXPEAPEAX@Z 0000000180039c40 f i extractSurfCore.obj
 0001:00038ca0       ?copy_from_value@?$big_any_policy@V?$basic_string@DU?$char_traits@D@std@@V?$allocator@D@2@@std@@@anyimpl@cvflann@@UEAAXPEBXPEAPEAX@Z 0000000180039ca0 f i extractSurfCore.obj
 0001:00038d10       ?clone@?$big_any_policy@V?$basic_string@DU?$char_traits@D@std@@V?$allocator@D@2@@std@@@anyimpl@cvflann@@UEAAXPEBQEAXPEAPEAX@Z 0000000180039d10 f i extractSurfCore.obj
 0001:00038d80       ?move@?$big_any_policy@V?$basic_string@DU?$char_traits@D@std@@V?$allocator@D@2@@std@@@anyimpl@cvflann@@UEAAXPEBQEAXPEAPEAX@Z 0000000180039d80 f i extractSurfCore.obj
 0001:00038dc0       ?get_value@?$big_any_policy@V?$basic_string@DU?$char_traits@D@std@@V?$allocator@D@2@@std@@@anyimpl@cvflann@@UEAAPEAXPEAPEAX@Z 0000000180039dc0 f i extractSurfCore.obj
 0001:00038de0       ?get_value@?$big_any_policy@V?$basic_string@DU?$char_traits@D@std@@V?$allocator@D@2@@std@@@anyimpl@cvflann@@UEAAPEBXPEBQEAX@Z 0000000180039de0 f i extractSurfCore.obj
 0001:00038e00       ?print@?$big_any_policy@V?$basic_string@DU?$char_traits@D@std@@V?$allocator@D@2@@std@@@anyimpl@cvflann@@UEAAXAEAV?$basic_ostream@DU?$char_traits@D@std@@@std@@PEBQEAX@Z 0000000180039e00 f i extractSurfCore.obj
 0001:00038e40       ??_G?$big_any_policy@V?$basic_string@DU?$char_traits@D@std@@V?$allocator@D@2@@std@@@anyimpl@cvflann@@UEAAPEAXI@Z 0000000180039e40 f i extractSurfCore.obj
 0001:00038e40       ??_E?$big_any_policy@V?$basic_string@DU?$char_traits@D@std@@V?$allocator@D@2@@std@@@anyimpl@cvflann@@UEAAPEAXI@Z 0000000180039e40 f i extractSurfCore.obj
 0001:00038e80       ?get_size@?$typed_base_any_policy@Uempty_any@anyimpl@cvflann@@@anyimpl@cvflann@@UEAA_KXZ 0000000180039e80 f i extractSurfCore.obj
 0001:00038e90       ?type@?$typed_base_any_policy@Uempty_any@anyimpl@cvflann@@@anyimpl@cvflann@@UEAAAEBVtype_info@@XZ 0000000180039e90 f i extractSurfCore.obj
 0001:00038ea0       ?static_delete@?$big_any_policy@Uempty_any@anyimpl@cvflann@@@anyimpl@cvflann@@UEAAXPEAPEAX@Z 0000000180039ea0 f i extractSurfCore.obj
 0001:00038ef0       ?copy_from_value@?$big_any_policy@Uempty_any@anyimpl@cvflann@@@anyimpl@cvflann@@UEAAXPEBXPEAPEAX@Z 0000000180039ef0 f i extractSurfCore.obj
 0001:00038f50       ?clone@?$big_any_policy@Uempty_any@anyimpl@cvflann@@@anyimpl@cvflann@@UEAAXPEBQEAXPEAPEAX@Z 0000000180039f50 f i extractSurfCore.obj
 0001:00038fb0       ?move@?$big_any_policy@Uempty_any@anyimpl@cvflann@@@anyimpl@cvflann@@UEAAXPEBQEAXPEAPEAX@Z 0000000180039fb0 f i extractSurfCore.obj
 0001:00038fc0       ?get_value@?$big_any_policy@Uempty_any@anyimpl@cvflann@@@anyimpl@cvflann@@UEAAPEAXPEAPEAX@Z 0000000180039fc0 f i extractSurfCore.obj
 0001:00038fe0       ?get_value@?$big_any_policy@Uempty_any@anyimpl@cvflann@@@anyimpl@cvflann@@UEAAPEBXPEBQEAX@Z 0000000180039fe0 f i extractSurfCore.obj
 0001:00039000       ?print@?$big_any_policy@Uempty_any@anyimpl@cvflann@@@anyimpl@cvflann@@UEAAXAEAV?$basic_ostream@DU?$char_traits@D@std@@@std@@PEBQEAX@Z 000000018003a000 f i extractSurfCore.obj
 0001:00039030       ??_E?$big_any_policy@Uempty_any@anyimpl@cvflann@@@anyimpl@cvflann@@UEAAPEAXI@Z 000000018003a030 f i extractSurfCore.obj
 0001:00039030       ??_G?$big_any_policy@Uempty_any@anyimpl@cvflann@@@anyimpl@cvflann@@UEAAPEAXI@Z 000000018003a030 f i extractSurfCore.obj
 0001:00039070       ?get_size@?$typed_base_any_policy@PEBD@anyimpl@cvflann@@UEAA_KXZ 000000018003a070 f i extractSurfCore.obj
 0001:00039080       ?type@?$typed_base_any_policy@PEBD@anyimpl@cvflann@@UEAAAEBVtype_info@@XZ 000000018003a080 f i extractSurfCore.obj
 0001:00039090       ?static_delete@?$small_any_policy@PEBD@anyimpl@cvflann@@UEAAXPEAPEAX@Z 000000018003a090 f i extractSurfCore.obj
 0001:000390a0       ?copy_from_value@?$small_any_policy@PEBD@anyimpl@cvflann@@UEAAXPEBXPEAPEAX@Z 000000018003a0a0 f i extractSurfCore.obj
 0001:000390e0       ?clone@?$small_any_policy@PEBD@anyimpl@cvflann@@UEAAXPEBQEAXPEAPEAX@Z 000000018003a0e0 f i extractSurfCore.obj
 0001:00039100       ?move@?$small_any_policy@PEBD@anyimpl@cvflann@@UEAAXPEBQEAXPEAPEAX@Z 000000018003a100 f i extractSurfCore.obj
 0001:00039120       ?get_value@?$small_any_policy@PEBD@anyimpl@cvflann@@UEAAPEAXPEAPEAX@Z 000000018003a120 f i extractSurfCore.obj
 0001:00039130       ?get_value@?$small_any_policy@PEBD@anyimpl@cvflann@@UEAAPEBXPEBQEAX@Z 000000018003a130 f i extractSurfCore.obj
 0001:00039140       ?print@?$small_any_policy@PEBD@anyimpl@cvflann@@UEAAXAEAV?$basic_ostream@DU?$char_traits@D@std@@@std@@PEBQEAX@Z 000000018003a140 f i extractSurfCore.obj
 0001:00039170       ??_G?$small_any_policy@PEBD@anyimpl@cvflann@@UEAAPEAXI@Z 000000018003a170 f i extractSurfCore.obj
 0001:00039170       ??_E?$small_any_policy@PEBD@anyimpl@cvflann@@UEAAPEAXI@Z 000000018003a170 f i extractSurfCore.obj
 0001:000391f0       extractSurf_assignOutput   000000018003a1f0 f   extractSurfCore.obj
 0001:00039360       extractSurf_assignOutputRM 000000018003a360 f   extractSurfCore.obj
 0001:000394d0       extractSurf_compute        000000018003a4d0 f   extractSurfCore.obj
 0001:00039760       extractSurf_computeRM      000000018003a760 f   extractSurfCore.obj
 0001:000399f0       ?keyPoints2Fields@@YAXAEAV?$vector@VKeyPoint@cv@@V?$allocator@VKeyPoint@cv@@@std@@@std@@_NPEAM22PEAC2@Z 000000018003a9f0 f   extractSurfCore.obj
 0001:00039bc0       ?keyPoints2FieldsRM@@YAXAEAV?$vector@VKeyPoint@cv@@V?$allocator@VKeyPoint@cv@@@std@@@std@@_NPEAM22PEAC2@Z 000000018003abc0 f   extractSurfCore.obj
 0001:00039da0       ?struct2KeyPoints@@YAXPEAM00PEACAEAV?$vector@VKeyPoint@cv@@V?$allocator@VKeyPoint@cv@@@std@@@std@@H@Z 000000018003ada0 f   extractSurfCore.obj
 0001:00039f50       ?struct2KeyPointsRM@@YAXPEAM00PEACAEAV?$vector@VKeyPoint@cv@@V?$allocator@VKeyPoint@cv@@@std@@@std@@H@Z 000000018003af50 f   extractSurfCore.obj
 0001:0003a170       ??$?0$$V@?$_Compressed_pair@V?$allocator@D@std@@V?$_String_val@U?$_Simple_types@D@std@@@2@$00@std@@QEAA@U_Zero_then_variadic_args_t@1@@Z 000000018003b170 f i extractSurfCore.obj
 0001:0003a1a0       ??$?0$$V@?$_Compressed_pair@V?$allocator@VKeyPoint@cv@@@std@@V?$_Vector_val@U?$_Simple_types@VKeyPoint@cv@@@std@@@2@$00@std@@QEAA@U_Zero_then_variadic_args_t@1@@Z 000000018003b1a0 f i extractSurfCore.obj
 0001:0003a1d0       ??$?0$$V@?$_Ref_count_obj2@VMWSURF@cv@@@std@@QEAA@XZ 000000018003b1d0 f i extractSurfCore.obj
 0001:0003a220       ??$?0V?$allocator@D@std@@$$V@?$_Compressed_pair@V?$allocator@D@std@@V?$_String_val@U?$_Simple_types@D@std@@@2@$00@std@@QEAA@U_One_then_variadic_args_t@1@$$QEAV?$allocator@D@1@@Z 000000018003b220 f i extractSurfCore.obj
 0001:0003a260       ??$?0V?$allocator@VKeyPoint@cv@@@std@@$$V@?$_Compressed_pair@V?$allocator@VKeyPoint@cv@@@std@@V?$_Vector_val@U?$_Simple_types@VKeyPoint@cv@@@std@@@2@$00@std@@QEAA@U_One_then_variadic_args_t@1@$$QEAV?$allocator@VKeyPoint@cv@@@1@@Z 000000018003b260 f i extractSurfCore.obj
 0001:0003a2a0       ??$?6U?$char_traits@D@std@@@std@@YAAEAV?$basic_ostream@DU?$char_traits@D@std@@@0@AEAV10@PEBD@Z 000000018003b2a0 f i extractSurfCore.obj
 0001:0003a650       ??$_Allocate@$0BA@U_Default_allocate_traits@std@@$0A@@std@@YAPEAX_K@Z 000000018003b650 f i extractSurfCore.obj
 0001:0003a690       ??$_Allocate_manually_vector_aligned@U_Default_allocate_traits@std@@@std@@YAPEAX_K@Z 000000018003b690 f i extractSurfCore.obj
 0001:0003a720       ??$_Construct_in_place@PEADAEBQEAD@std@@YAXAEAPEADAEBQEAD@Z 000000018003b720 f i extractSurfCore.obj
 0001:0003a770       ??$_Construct_in_place@VMWSURF@cv@@$$V@std@@YAXAEAVMWSURF@cv@@@Z 000000018003b770 f i extractSurfCore.obj
 0001:0003a7c0       ??$_Convert_size@_K@std@@YA_K_K@Z 000000018003b7c0 f i extractSurfCore.obj
 0001:0003a7d0       ??$_Deallocate@$0BA@$0A@@std@@YAXPEAX_K@Z 000000018003b7d0 f i extractSurfCore.obj
 0001:0003a810       ??$_Destroy_in_place@PEAD@std@@YAXAEAPEAD@Z 000000018003b810 f i extractSurfCore.obj
 0001:0003a820       ??$_Destroy_in_place@VMWSURF@cv@@@std@@YAXAEAVMWSURF@cv@@@Z 000000018003b820 f i extractSurfCore.obj
 0001:0003a860       ??$_Destroy_range@V?$allocator@VKeyPoint@cv@@@std@@@std@@YAXPEAVKeyPoint@cv@@QEAV12@AEAV?$allocator@VKeyPoint@cv@@@0@@Z 000000018003b860 f i extractSurfCore.obj
 0001:0003a870       ??$_Emplace_back@AEAVKeyPoint@cv@@@?$_Uninitialized_backout_al@V?$allocator@VKeyPoint@cv@@@std@@@std@@QEAAXAEAVKeyPoint@cv@@@Z 000000018003b870 f i extractSurfCore.obj
 0001:0003a8d0       ??$_Emplace_back@VKeyPoint@cv@@@?$_Uninitialized_backout_al@V?$allocator@VKeyPoint@cv@@@std@@@std@@QEAAX$$QEAVKeyPoint@cv@@@Z 000000018003b8d0 f i extractSurfCore.obj
 0001:0003a930       ??$_Emplace_back_with_unused_capacity@AEBVKeyPoint@cv@@@?$vector@VKeyPoint@cv@@V?$allocator@VKeyPoint@cv@@@std@@@std@@AEAAXAEBVKeyPoint@cv@@@Z 000000018003b930 f i extractSurfCore.obj
 0001:0003a9e0       ??$_Emplace_reallocate@AEBVKeyPoint@cv@@@?$vector@VKeyPoint@cv@@V?$allocator@VKeyPoint@cv@@@std@@@std@@QEAAPEAVKeyPoint@cv@@QEAV23@AEBV23@@Z 000000018003b9e0 f i extractSurfCore.obj
 0001:0003ac10       ??$_Get_size_of_n@$00@std@@YA_K_K@Z 000000018003bc10 f i extractSurfCore.obj
 0001:0003ac30       ??$_Get_size_of_n@$0BM@@std@@YA_K_K@Z 000000018003bc30 f i extractSurfCore.obj
 0001:0003ac70       ??$_Get_unwrapped@AEBQEAVKeyPoint@cv@@@std@@YAPEAVKeyPoint@cv@@AEBQEAV12@@Z 000000018003bc70 f i extractSurfCore.obj
 0001:0003ac80       ??$_Getvals@_W@?$time_get@DV?$istreambuf_iterator@DU?$char_traits@D@std@@@std@@@std@@IEAAX_WAEBV_Locinfo@1@@Z 000000018003bc80 f i extractSurfCore.obj
 0001:0003adf0       ??$_Getvals@_W@?$time_get@_WV?$istreambuf_iterator@_WU?$char_traits@_W@std@@@std@@@std@@IEAAX_WAEBV_Locinfo@1@@Z 000000018003bdf0 f i extractSurfCore.obj
 0001:0003af60       ??$_Maklocstr@D@std@@YAPEADPEBDPEADAEBU_Cvtvec@@@Z 000000018003bf60 f i extractSurfCore.obj
 0001:0003b000       ??$_Maklocstr@_W@std@@YAPEA_WPEBDPEA_WAEBU_Cvtvec@@@Z 000000018003c000 f i extractSurfCore.obj
 0001:0003b1d0       ??$_Move_construct_from@VMWSURF@cv@@@?$_Ptr_base@VMWSURF@cv@@@std@@IEAAX$$QEAV01@@Z 000000018003c1d0 f i extractSurfCore.obj
 0001:0003b220       ??$_Pocca@V?$allocator@D@std@@@std@@YAXAEAV?$allocator@D@0@AEBV10@@Z 000000018003c220 f i extractSurfCore.obj
 0001:0003b230       ??$_Reallocate_for@V<lambda_66f57f934f28d61049862f64df852ff0>@@PEBD@?$basic_string@DU?$char_traits@D@std@@V?$allocator@D@2@@std@@AEAAAEAV01@_KV<lambda_66f57f934f28d61049862f64df852ff0>@@PEBD@Z 000000018003c230 f i extractSurfCore.obj
 0001:0003b350       ??$_Set_ptr_rep_and_enable_shared@VMWSURF@cv@@@?$shared_ptr@VMWSURF@cv@@@std@@AEAAXQEAVMWSURF@cv@@QEAV_Ref_count_base@1@@Z 000000018003c350 f i extractSurfCore.obj
 0001:0003b380       ??$_Ucopy@PEAVKeyPoint@cv@@@?$vector@VKeyPoint@cv@@V?$allocator@VKeyPoint@cv@@@std@@@std@@AEAAPEAVKeyPoint@cv@@PEAV23@00@Z 000000018003c380 f i extractSurfCore.obj
 0001:0003b3c0       ??$_Unfancy@D@std@@YAPEADPEAD@Z 000000018003c3c0 f i extractSurfCore.obj
 0001:0003b3d0       ??$_Unfancy@VKeyPoint@cv@@@std@@YAPEAVKeyPoint@cv@@PEAV12@@Z 000000018003c3d0 f i extractSurfCore.obj
 0001:0003b3e0       ??$_Uninitialized_copy@PEAVKeyPoint@cv@@V?$allocator@VKeyPoint@cv@@@std@@@std@@YAPEAVKeyPoint@cv@@QEAV12@0PEAV12@AEAV?$allocator@VKeyPoint@cv@@@0@@Z 000000018003c3e0 f i extractSurfCore.obj
 0001:0003b480       ??$_Uninitialized_move@PEAVKeyPoint@cv@@V?$allocator@VKeyPoint@cv@@@std@@@std@@YAPEAVKeyPoint@cv@@QEAV12@0PEAV12@AEAV?$allocator@VKeyPoint@cv@@@0@@Z 000000018003c480 f i extractSurfCore.obj
 0001:0003b530       ??$_Voidify_iter@PEAPEAD@std@@YAPEAXPEAPEAD@Z 000000018003c530 f i extractSurfCore.obj
 0001:0003b540       ??$_Voidify_iter@PEAVMWSURF@cv@@@std@@YAPEAXPEAVMWSURF@cv@@@Z 000000018003c540 f i extractSurfCore.obj
 0001:0003b550       ??$addressof@$$CBV?$basic_string@DU?$char_traits@D@std@@V?$allocator@D@2@@std@@@std@@YAPEBV?$basic_string@DU?$char_traits@D@std@@V?$allocator@D@2@@0@AEBV10@@Z 000000018003c550 f i extractSurfCore.obj
 0001:0003b560       ??$addressof@PEAD@std@@YAPEAPEADAEAPEAD@Z 000000018003c560 f i extractSurfCore.obj
 0001:0003b570       ??$addressof@VMWSURF@cv@@@std@@YAPEAVMWSURF@cv@@AEAV12@@Z 000000018003c570 f i extractSurfCore.obj
 0001:0003b580       ??$cArrayFromMat@M@@YAXPEAMAEBVMat@cv@@@Z 000000018003c580 f i extractSurfCore.obj
 0001:0003b7a0       ??$cArrayFromMat_RowMaj@M@@YAXPEAMAEBVMat@cv@@@Z 000000018003c7a0 f i extractSurfCore.obj
 0001:0003b8d0       ??$construct@VKeyPoint@cv@@AEAV12@@?$_Default_allocator_traits@V?$allocator@VKeyPoint@cv@@@std@@@std@@SAXAEAV?$allocator@VKeyPoint@cv@@@1@QEAVKeyPoint@cv@@AEAV34@@Z 000000018003c8d0 f i extractSurfCore.obj
 0001:0003b920       ??$construct@VKeyPoint@cv@@AEBV12@@?$_Default_allocator_traits@V?$allocator@VKeyPoint@cv@@@std@@@std@@SAXAEAV?$allocator@VKeyPoint@cv@@@1@QEAVKeyPoint@cv@@AEBV34@@Z 000000018003c920 f i extractSurfCore.obj
 0001:0003b970       ??$construct@VKeyPoint@cv@@V12@@?$_Default_allocator_traits@V?$allocator@VKeyPoint@cv@@@std@@@std@@SAXAEAV?$allocator@VKeyPoint@cv@@@1@QEAVKeyPoint@cv@@$$QEAV34@@Z 000000018003c970 f i extractSurfCore.obj
 0001:0003b9c0       ??$copyToArrayBGR_RowMaj@M@@YAXPEAM0HHH@Z 000000018003c9c0 f i extractSurfCore.obj
 0001:0003ba60       ??$copyToArray_RowMaj@M@@YAXPEAM0HH@Z 000000018003ca60 f i extractSurfCore.obj
 0001:0003baa0       ??$emplace_back@AEBVKeyPoint@cv@@@?$vector@VKeyPoint@cv@@V?$allocator@VKeyPoint@cv@@@std@@@std@@QEAAXAEBVKeyPoint@cv@@@Z 000000018003caa0 f i extractSurfCore.obj
 0001:0003bb20       ??$forward@AEAVKeyPoint@cv@@@std@@YAAEAVKeyPoint@cv@@AEAV12@@Z 000000018003cb20 f i extractSurfCore.obj
 0001:0003bb30       ??$forward@AEBQEAD@std@@YAAEBQEADAEBQEAD@Z 000000018003cb30 f i extractSurfCore.obj
 0001:0003bb40       ??$forward@AEBVKeyPoint@cv@@@std@@YAAEBVKeyPoint@cv@@AEBV12@@Z 000000018003cb40 f i extractSurfCore.obj
 0001:0003bb50       ??$forward@V?$allocator@D@std@@@std@@YA$$QEAV?$allocator@D@0@AEAV10@@Z 000000018003cb50 f i extractSurfCore.obj
 0001:0003bb60       ??$forward@V?$allocator@VKeyPoint@cv@@@std@@@std@@YA$$QEAV?$allocator@VKeyPoint@cv@@@0@AEAV10@@Z 000000018003cb60 f i extractSurfCore.obj
 0001:0003bb70       ??$forward@VKeyPoint@cv@@@std@@YA$$QEAVKeyPoint@cv@@AEAV12@@Z 000000018003cb70 f i extractSurfCore.obj
 0001:0003bb80       ??$make_shared@VMWSURF@cv@@$$V@std@@YA?AV?$shared_ptr@VMWSURF@cv@@@0@XZ 000000018003cb80 f i extractSurfCore.obj
 0001:0003bc40       ??$max@_K@std@@YAAEB_KAEB_K0@Z 000000018003cc40 f i extractSurfCore.obj
 0001:0003bc90       ??$min@_K@std@@YAAEB_KAEB_K0@Z 000000018003cc90 f i extractSurfCore.obj
 0001:0003bce0       ??$move@AEAM@std@@YA$$QEAMAEAM@Z 000000018003cce0 f i extractSurfCore.obj
 0001:0003bcf0       ??$move@AEAV?$shared_ptr@VMWSURF@cv@@@std@@@std@@YA$$QEAV?$shared_ptr@VMWSURF@cv@@@0@AEAV10@@Z 000000018003ccf0 f i extractSurfCore.obj
 0001:0003bd00       ??$move@AEAVKeyPoint@cv@@@std@@YA$$QEAVKeyPoint@cv@@AEAV12@@Z 000000018003cd00 f i extractSurfCore.obj
 0001:0003bd10       ??0?$Point_@M@cv@@QEAA@$$QEAV01@@Z 000000018003cd10 f i extractSurfCore.obj
 0001:0003bd70       ??0?$Point_@M@cv@@QEAA@AEBV01@@Z 000000018003cd70 f i extractSurfCore.obj
 0001:0003bdb0       ??0?$Point_@M@cv@@QEAA@MM@Z 000000018003cdb0 f i extractSurfCore.obj
 0001:0003bdf0       ??0?$Ptr@VMWSURF@cv@@@cv@@QEAA@$$QEAV?$shared_ptr@VMWSURF@cv@@@std@@@Z 000000018003cdf0 f i extractSurfCore.obj
 0001:0003be20       ??0?$Size_@H@cv@@QEAA@HH@Z 000000018003ce20 f i extractSurfCore.obj
 0001:0003be50       ??0?$_Ptr_base@VMWSURF@cv@@@std@@IEAA@XZ 000000018003ce50 f i extractSurfCore.obj
 0001:0003be80       ??0?$_String_val@U?$_Simple_types@D@std@@@std@@QEAA@XZ 000000018003ce80 f i extractSurfCore.obj
 0001:0003bec0       ??0?$_Uninitialized_backout_al@V?$allocator@VKeyPoint@cv@@@std@@@std@@QEAA@PEAVKeyPoint@cv@@AEAV?$allocator@VKeyPoint@cv@@@1@@Z 000000018003cec0 f i extractSurfCore.obj
 0001:0003bf00       ??0?$_Vector_val@U?$_Simple_types@VKeyPoint@cv@@@std@@@std@@QEAA@XZ 000000018003cf00 f i extractSurfCore.obj
 0001:0003bf40       ??0?$allocator@D@std@@QEAA@XZ 000000018003cf40 f i extractSurfCore.obj
 0001:0003bf50       ??0?$allocator@VKeyPoint@cv@@@std@@QEAA@XZ 000000018003cf50 f i extractSurfCore.obj
 0001:0003bf60       ??0?$basic_string@DU?$char_traits@D@std@@V?$allocator@D@2@@std@@QEAA@AEBV01@@Z 000000018003cf60 f i extractSurfCore.obj
 0001:0003bfe0       ??0?$basic_string@DU?$char_traits@D@std@@V?$allocator@D@2@@std@@QEAA@QEBD@Z 000000018003cfe0 f i extractSurfCore.obj
 0001:0003c050       ??0?$shared_ptr@VMWSURF@cv@@@std@@QEAA@$$QEAV01@@Z 000000018003d050 f i extractSurfCore.obj
 0001:0003c090       ??0?$shared_ptr@VMWSURF@cv@@@std@@QEAA@XZ 000000018003d090 f i extractSurfCore.obj
 0001:0003c0b0       ??0?$vector@VKeyPoint@cv@@V?$allocator@VKeyPoint@cv@@@std@@@std@@QEAA@AEBV01@@Z 000000018003d0b0 f i extractSurfCore.obj
 0001:0003c1c0       ??0?$vector@VKeyPoint@cv@@V?$allocator@VKeyPoint@cv@@@std@@@std@@QEAA@XZ 000000018003d1c0 f i extractSurfCore.obj
 0001:0003c200       ??0KeyPoint@cv@@QEAA@$$QEAV01@@Z 000000018003d200 f i extractSurfCore.obj
 0001:0003c290       ??0KeyPoint@cv@@QEAA@AEBV01@@Z 000000018003d290 f i extractSurfCore.obj
 0001:0003c320       ??0KeyPoint@cv@@QEAA@MMMMMHH@Z 000000018003d320 f i extractSurfCore.obj
 0001:0003c3b0       ??0Mat@cv@@QEAA@AEBV01@@Z  000000018003d3b0 f i extractSurfCore.obj
 0001:0003c550       ??0Mat@cv@@QEAA@HHHPEAX_K@Z 000000018003d550 f i extractSurfCore.obj
 0001:0003c890       ??0Mat@cv@@QEAA@XZ         000000018003d890 f i extractSurfCore.obj
 0001:0003c950       ??0MatSize@cv@@QEAA@PEAH@Z 000000018003d950 f i extractSurfCore.obj
 0001:0003c970       ??0MatStep@cv@@QEAA@XZ     000000018003d970 f i extractSurfCore.obj
 0001:0003c9c0       ??0MatStep@cv@@QEAA@_K@Z   000000018003d9c0 f i extractSurfCore.obj
 0001:0003ca20       ??0_Bxty@?$_String_val@U?$_Simple_types@D@std@@@std@@QEAA@XZ 000000018003da20 f i extractSurfCore.obj
 0001:0003ca30       ??0_Fake_proxy_ptr_impl@std@@QEAA@AEBU_Fake_allocator@1@AEBU_Container_base0@1@@Z 000000018003da30 f i extractSurfCore.obj
 0001:0003ca50       ??0_Ref_count_base@std@@IEAA@XZ 000000018003da50 f i extractSurfCore.obj
 0001:0003ca80       ??0_Sentry_base@?$basic_ostream@DU?$char_traits@D@std@@@std@@QEAA@AEAV12@@Z 000000018003da80 f i extractSurfCore.obj
 0001:0003caf0       ??0bad_alloc@std@@AEAA@QEBD@Z 000000018003daf0 f i extractSurfCore.obj
 0001:0003cb30       ??0bad_alloc@std@@QEAA@AEBV01@@Z 000000018003db30 f i extractSurfCore.obj
 0001:0003cb70       ??0bad_array_new_length@std@@QEAA@AEBV01@@Z 000000018003db70 f i extractSurfCore.obj
 0001:0003cbb0       ??0bad_array_new_length@std@@QEAA@XZ 000000018003dbb0 f i extractSurfCore.obj
 0001:0003cbf0       ??0exception@std@@QEAA@AEBV01@@Z 000000018003dbf0 f i extractSurfCore.obj
 0001:0003cc50       ??0exception@std@@QEAA@QEBDH@Z 000000018003dc50 f i extractSurfCore.obj
 0001:0003cca0       ??0sentry@?$basic_ostream@DU?$char_traits@D@std@@@std@@QEAA@AEAV12@@Z 000000018003dca0 f i extractSurfCore.obj
 0001:0003cd80       ??1?$Ptr@VMWSURF@cv@@@cv@@QEAA@XZ 000000018003dd80 f i extractSurfCore.obj
 0001:0003cda0       ??1?$_Compressed_pair@V?$allocator@D@std@@V?$_String_val@U?$_Simple_types@D@std@@@2@$00@std@@QEAA@XZ 000000018003dda0 f i extractSurfCore.obj
 0001:0003cdc0       ??1?$_Ref_count_obj2@VMWSURF@cv@@@std@@UEAA@XZ 000000018003ddc0 f i extractSurfCore.obj
 0001:0003cdf0       ??1?$_String_val@U?$_Simple_types@D@std@@@std@@QEAA@XZ 000000018003ddf0 f i extractSurfCore.obj
 0001:0003ce10       ??1?$_Tidy_guard@V?$vector@VKeyPoint@cv@@V?$allocator@VKeyPoint@cv@@@std@@@std@@@std@@QEAA@XZ 000000018003de10 f i extractSurfCore.obj
 0001:0003ce40       ??1?$_Uninitialized_backout_al@V?$allocator@VKeyPoint@cv@@@std@@@std@@QEAA@XZ 000000018003de40 f i extractSurfCore.obj
 0001:0003ce70       ??1?$basic_string@DU?$char_traits@D@std@@V?$allocator@D@2@@std@@QEAA@XZ 000000018003de70 f i extractSurfCore.obj
 0001:0003cea0       ??1?$big_any_policy@Uempty_any@anyimpl@cvflann@@@anyimpl@cvflann@@UEAA@XZ 000000018003dea0 f i extractSurfCore.obj
 0001:0003cec0       ??1?$big_any_policy@V?$basic_string@DU?$char_traits@D@std@@V?$allocator@D@2@@std@@@anyimpl@cvflann@@UEAA@XZ 000000018003dec0 f i extractSurfCore.obj
 0001:0003cee0       ??1?$big_any_policy@W4flann_algorithm_t@cvflann@@@anyimpl@cvflann@@UEAA@XZ 000000018003dee0 f i extractSurfCore.obj
 0001:0003cf00       ??1?$big_any_policy@W4flann_centers_init_t@cvflann@@@anyimpl@cvflann@@UEAA@XZ 000000018003df00 f i extractSurfCore.obj
 0001:0003cf20       ??1?$shared_ptr@VMWSURF@cv@@@std@@QEAA@XZ 000000018003df20 f i extractSurfCore.obj
 0001:0003cf40       ??1?$small_any_policy@H@anyimpl@cvflann@@UEAA@XZ 000000018003df40 f i extractSurfCore.obj
 0001:0003cf60       ??1?$small_any_policy@I@anyimpl@cvflann@@UEAA@XZ 000000018003df60 f i extractSurfCore.obj
 0001:0003cf80       ??1?$small_any_policy@M@anyimpl@cvflann@@UEAA@XZ 000000018003df80 f i extractSurfCore.obj
 0001:0003cfa0       ??1?$small_any_policy@PEBD@anyimpl@cvflann@@UEAA@XZ 000000018003dfa0 f i extractSurfCore.obj
 0001:0003cfc0       ??1?$small_any_policy@_N@anyimpl@cvflann@@UEAA@XZ 000000018003dfc0 f i extractSurfCore.obj
 0001:0003cfe0       ??1?$typed_base_any_policy@H@anyimpl@cvflann@@UEAA@XZ 000000018003dfe0 f i extractSurfCore.obj
 0001:0003d000       ??1?$typed_base_any_policy@I@anyimpl@cvflann@@UEAA@XZ 000000018003e000 f i extractSurfCore.obj
 0001:0003d020       ??1?$typed_base_any_policy@M@anyimpl@cvflann@@UEAA@XZ 000000018003e020 f i extractSurfCore.obj
 0001:0003d040       ??1?$typed_base_any_policy@PEBD@anyimpl@cvflann@@UEAA@XZ 000000018003e040 f i extractSurfCore.obj
 0001:0003d060       ??1?$typed_base_any_policy@Uempty_any@anyimpl@cvflann@@@anyimpl@cvflann@@UEAA@XZ 000000018003e060 f i extractSurfCore.obj
 0001:0003d080       ??1?$typed_base_any_policy@V?$basic_string@DU?$char_traits@D@std@@V?$allocator@D@2@@std@@@anyimpl@cvflann@@UEAA@XZ 000000018003e080 f i extractSurfCore.obj
 0001:0003d0a0       ??1?$typed_base_any_policy@W4flann_algorithm_t@cvflann@@@anyimpl@cvflann@@UEAA@XZ 000000018003e0a0 f i extractSurfCore.obj
 0001:0003d0c0       ??1?$typed_base_any_policy@W4flann_centers_init_t@cvflann@@@anyimpl@cvflann@@UEAA@XZ 000000018003e0c0 f i extractSurfCore.obj
 0001:0003d0e0       ??1?$typed_base_any_policy@_N@anyimpl@cvflann@@UEAA@XZ 000000018003e0e0 f i extractSurfCore.obj
 0001:0003d100       ??1?$vector@VKeyPoint@cv@@V?$allocator@VKeyPoint@cv@@@std@@@std@@QEAA@XZ 000000018003e100 f i extractSurfCore.obj
 0001:0003d120       ??1Mat@cv@@QEAA@XZ         000000018003e120 f i extractSurfCore.obj
 0001:0003d160       ??1_Bxty@?$_String_val@U?$_Simple_types@D@std@@@std@@QEAA@XZ 000000018003e160 f i extractSurfCore.obj
 0001:0003d170       ??1_Ref_count_base@std@@UEAA@XZ 000000018003e170 f i extractSurfCore.obj
 0001:0003d180       ??1_Sentry_base@?$basic_ostream@DU?$char_traits@D@std@@@std@@QEAA@XZ 000000018003e180 f i extractSurfCore.obj
 0001:0003d1e0       ??1bad_alloc@std@@UEAA@XZ  000000018003e1e0 f i extractSurfCore.obj
 0001:0003d200       ??1bad_array_new_length@std@@UEAA@XZ 000000018003e200 f i extractSurfCore.obj
 0001:0003d220       ??1base_any_policy@anyimpl@cvflann@@UEAA@XZ 000000018003e220 f i extractSurfCore.obj
 0001:0003d240       ??1exception@std@@UEAA@XZ  000000018003e240 f i extractSurfCore.obj
 0001:0003d270       ??1sentry@?$basic_ostream@DU?$char_traits@D@std@@@std@@QEAA@XZ 000000018003e270 f i extractSurfCore.obj
 0001:0003d2d0       ??2@YAPEAX_KPEAX@Z         000000018003e2d0 f i extractSurfCore.obj
 0001:0003d2e0       ??4?$basic_string@DU?$char_traits@D@std@@V?$allocator@D@2@@std@@QEAAAEAV01@AEBV01@@Z 000000018003e2e0 f i extractSurfCore.obj
 0001:0003d340       ??6anyimpl@cvflann@@YAAEAV?$basic_ostream@DU?$char_traits@D@std@@@std@@AEAV23@AEBUempty_any@01@@Z 000000018003e340 f i extractSurfCore.obj
 0001:0003d370       ??A?$vector@VKeyPoint@cv@@V?$allocator@VKeyPoint@cv@@@std@@@std@@QEAAAEAVKeyPoint@cv@@_K@Z 000000018003e370 f i extractSurfCore.obj
 0001:0003d3a0       ??AMatSize@cv@@QEBAAEBHH@Z 000000018003e3a0 f i extractSurfCore.obj
 0001:0003d3c0       ??AMatStep@cv@@QEAAAEA_KH@Z 000000018003e3c0 f i extractSurfCore.obj
 0001:0003d3e0       ??AMatStep@cv@@QEBAAEB_KH@Z 000000018003e3e0 f i extractSurfCore.obj
 0001:0003d400       ??Bsentry@?$basic_ostream@DU?$char_traits@D@std@@@std@@QEBA_NXZ 000000018003e400 f i extractSurfCore.obj
 0001:0003d410       ??C?$Ptr@VMWSURF@cv@@@cv@@QEBAPEAVMWSURF@1@XZ 000000018003e410 f i extractSurfCore.obj
 0001:0003d430       ??R<lambda_66f57f934f28d61049862f64df852ff0>@@QEBAXQEAD_KQEBD@Z 000000018003e430 f i extractSurfCore.obj
 0001:0003d490       ??RMatSize@cv@@QEBA?AV?$Size_@H@1@XZ 000000018003e490 f i extractSurfCore.obj
 0001:0003d4f0       ??_E?$_Ref_count_obj2@VMWSURF@cv@@@std@@UEAAPEAXI@Z 000000018003e4f0 f i extractSurfCore.obj
 0001:0003d4f0       ??_G?$_Ref_count_obj2@VMWSURF@cv@@@std@@UEAAPEAXI@Z 000000018003e4f0 f i extractSurfCore.obj
 0001:0003d530       ??_G?$basic_string@DU?$char_traits@D@std@@V?$allocator@D@2@@std@@QEAAPEAXI@Z 000000018003e530 f i extractSurfCore.obj
 0001:0003d570       ??_G?$vector@VKeyPoint@cv@@V?$allocator@VKeyPoint@cv@@@std@@@std@@QEAAPEAXI@Z 000000018003e570 f i extractSurfCore.obj
 0001:0003d5b0       ??_GMat@cv@@QEAAPEAXI@Z    000000018003e5b0 f i extractSurfCore.obj
 0001:0003d5f0       ??_Gbad_alloc@std@@UEAAPEAXI@Z 000000018003e5f0 f i extractSurfCore.obj
 0001:0003d5f0       ??_Ebad_alloc@std@@UEAAPEAXI@Z 000000018003e5f0 f i extractSurfCore.obj
 0001:0003d630       ??_Ebad_array_new_length@std@@UEAAPEAXI@Z 000000018003e630 f i extractSurfCore.obj
 0001:0003d630       ??_Gbad_array_new_length@std@@UEAAPEAXI@Z 000000018003e630 f i extractSurfCore.obj
 0001:0003d670       ??_Gbase_any_policy@anyimpl@cvflann@@UEAAPEAXI@Z 000000018003e670 f i extractSurfCore.obj
 0001:0003d670       ??_Ebase_any_policy@anyimpl@cvflann@@UEAAPEAXI@Z 000000018003e670 f i extractSurfCore.obj
 0001:0003d6b0       ??_Eexception@std@@UEAAPEAXI@Z 000000018003e6b0 f i extractSurfCore.obj
 0001:0003d6b0       ??_Gexception@std@@UEAAPEAXI@Z 000000018003e6b0 f i extractSurfCore.obj
 0001:0003d6f0       ?_Adjust_manually_vector_aligned@std@@YAXAEAPEAXAEA_K@Z 000000018003e6f0 f i extractSurfCore.obj
 0001:0003d790       ?_Alloc_proxy@_Container_base0@std@@QEAAXAEBU_Fake_allocator@2@@Z 000000018003e790 f i extractSurfCore.obj
 0001:0003d7a0       ?_Allocate@_Default_allocate_traits@std@@SAPEAX_K@Z 000000018003e7a0 f i extractSurfCore.obj
 0001:0003d7c0       ?_Buy_raw@?$vector@VKeyPoint@cv@@V?$allocator@VKeyPoint@cv@@@std@@@std@@AEAAX_K@Z 000000018003e7c0 f i extractSurfCore.obj
 0001:0003d860       ?_Calculate_growth@?$basic_string@DU?$char_traits@D@std@@V?$allocator@D@2@@std@@AEBA_K_K@Z 000000018003e860 f i extractSurfCore.obj
 0001:0003d8a0       ?_Calculate_growth@?$basic_string@DU?$char_traits@D@std@@V?$allocator@D@2@@std@@CA_K_K00@Z 000000018003e8a0 f i extractSurfCore.obj
 0001:0003d940       ?_Calculate_growth@?$vector@VKeyPoint@cv@@V?$allocator@VKeyPoint@cv@@@std@@@std@@AEBA_K_K@Z 000000018003e940 f i extractSurfCore.obj
 0001:0003d9d0       ?_Change_array@?$vector@VKeyPoint@cv@@V?$allocator@VKeyPoint@cv@@@std@@@std@@AEAAXQEAVKeyPoint@cv@@_K1@Z 000000018003e9d0 f i extractSurfCore.obj
 0001:0003dad0       ?_Construct_lv_contents@?$basic_string@DU?$char_traits@D@std@@V?$allocator@D@2@@std@@AEAAXAEBV12@@Z 000000018003ead0 f i extractSurfCore.obj
 0001:0003dc20       ?_Copy_assign@?$basic_string@DU?$char_traits@D@std@@V?$allocator@D@2@@std@@AEAAXAEBV12@U?$integral_constant@_N$0A@@2@@Z 000000018003ec20 f i extractSurfCore.obj
 0001:0003dc90       ?_Decref@?$_Ptr_base@VMWSURF@cv@@@std@@IEAAXXZ 000000018003ec90 f i extractSurfCore.obj
 0001:0003dcc0       ?_Decref@_Ref_count_base@std@@QEAAXXZ 000000018003ecc0 f i extractSurfCore.obj
 0001:0003dd10       ?_Decwref@_Ref_count_base@std@@QEAAXXZ 000000018003ed10 f i extractSurfCore.obj
 0001:0003dd50       ?_Delete_this@?$_Ref_count_obj2@VMWSURF@cv@@@std@@EEAAXXZ 000000018003ed50 f i extractSurfCore.obj
 0001:0003dda0       ?_Destroy@?$_Ref_count_obj2@VMWSURF@cv@@@std@@EEAAXXZ 000000018003eda0 f i extractSurfCore.obj
 0001:0003ddc0       ?_Destroy@?$vector@VKeyPoint@cv@@V?$allocator@VKeyPoint@cv@@@std@@@std@@AEAAXPEAVKeyPoint@cv@@0@Z 000000018003edc0 f i extractSurfCore.obj
 0001:0003de00       ?_Get_deleter@_Ref_count_base@std@@UEBAPEAXAEBVtype_info@@@Z 000000018003ee00 f i extractSurfCore.obj
 0001:0003de10       ?_Get_first@?$_Compressed_pair@V?$allocator@D@std@@V?$_String_val@U?$_Simple_types@D@std@@@2@$00@std@@QEAAAEAV?$allocator@D@2@XZ 000000018003ee10 f i extractSurfCore.obj
 0001:0003de20       ?_Get_first@?$_Compressed_pair@V?$allocator@D@std@@V?$_String_val@U?$_Simple_types@D@std@@@2@$00@std@@QEBAAEBV?$allocator@D@2@XZ 000000018003ee20 f i extractSurfCore.obj
 0001:0003de30       ?_Get_first@?$_Compressed_pair@V?$allocator@VKeyPoint@cv@@@std@@V?$_Vector_val@U?$_Simple_types@VKeyPoint@cv@@@std@@@2@$00@std@@QEAAAEAV?$allocator@VKeyPoint@cv@@@2@XZ 000000018003ee30 f i extractSurfCore.obj
 0001:0003de40       ?_Get_first@?$_Compressed_pair@V?$allocator@VKeyPoint@cv@@@std@@V?$_Vector_val@U?$_Simple_types@VKeyPoint@cv@@@std@@@2@$00@std@@QEBAAEBV?$allocator@VKeyPoint@cv@@@2@XZ 000000018003ee40 f i extractSurfCore.obj
 0001:0003de50       ?_Getal@?$basic_string@DU?$char_traits@D@std@@V?$allocator@D@2@@std@@AEAAAEAV?$allocator@D@2@XZ 000000018003ee50 f i extractSurfCore.obj
 0001:0003de70       ?_Getal@?$basic_string@DU?$char_traits@D@std@@V?$allocator@D@2@@std@@AEBAAEBV?$allocator@D@2@XZ 000000018003ee70 f i extractSurfCore.obj
 0001:0003de90       ?_Getal@?$vector@VKeyPoint@cv@@V?$allocator@VKeyPoint@cv@@@std@@@std@@AEAAAEAV?$allocator@VKeyPoint@cv@@@2@XZ 000000018003ee90 f i extractSurfCore.obj
 0001:0003deb0       ?_Getal@?$vector@VKeyPoint@cv@@V?$allocator@VKeyPoint@cv@@@std@@@std@@AEBAAEBV?$allocator@VKeyPoint@cv@@@2@XZ 000000018003eeb0 f i extractSurfCore.obj
 0001:0003ded0       ?_Large_string_engaged@?$_String_val@U?$_Simple_types@D@std@@@std@@QEBA_NXZ 000000018003eed0 f i extractSurfCore.obj
 0001:0003df00       ?_Maklocwcs@std@@YAPEA_WPEB_W@Z 000000018003ef00 f i extractSurfCore.obj
 0001:0003df60       ?_Myptr@?$_String_val@U?$_Simple_types@D@std@@@std@@QEAAPEADXZ 000000018003ef60 f i extractSurfCore.obj
 0001:0003dfa0       ?_Myptr@?$_String_val@U?$_Simple_types@D@std@@@std@@QEBAPEBDXZ 000000018003efa0 f i extractSurfCore.obj
 0001:0003dfe0       ?_Orphan_all@_Container_base0@std@@QEAAXXZ 000000018003efe0 f i extractSurfCore.obj
 0001:0003dff0       ?_Orphan_range@?$vector@VKeyPoint@cv@@V?$allocator@VKeyPoint@cv@@@std@@@std@@AEBAXPEAVKeyPoint@cv@@0@Z 000000018003eff0 f i extractSurfCore.obj
 0001:0003e000       ?_Release@?$_Uninitialized_backout_al@V?$allocator@VKeyPoint@cv@@@std@@@std@@QEAAPEAVKeyPoint@cv@@XZ 000000018003f000 f i extractSurfCore.obj
 0001:0003e020       ?_Release@_Fake_proxy_ptr_impl@std@@QEAAXXZ 000000018003f020 f i extractSurfCore.obj
 0001:0003e030       ?_Throw_bad_array_new_length@std@@YAXXZ 000000018003f030 f i extractSurfCore.obj
 0001:0003e060       ?_Tidy@?$vector@VKeyPoint@cv@@V?$allocator@VKeyPoint@cv@@@std@@@std@@AEAAXXZ 000000018003f060 f i extractSurfCore.obj
 0001:0003e140       ?_Tidy_deallocate@?$basic_string@DU?$char_traits@D@std@@V?$allocator@D@2@@std@@AEAAXXZ 000000018003f140 f i extractSurfCore.obj
 0001:0003e200       ?_Tidy_init@?$basic_string@DU?$char_traits@D@std@@V?$allocator@D@2@@std@@AEAAXXZ 000000018003f200 f i extractSurfCore.obj
 0001:0003e250       ?_Umove@?$vector@VKeyPoint@cv@@V?$allocator@VKeyPoint@cv@@@std@@@std@@AEAAPEAVKeyPoint@cv@@PEAV34@00@Z 000000018003f250 f i extractSurfCore.obj
 0001:0003e290       ?_Umove_if_noexcept1@?$vector@VKeyPoint@cv@@V?$allocator@VKeyPoint@cv@@@std@@@std@@AEAAXPEAVKeyPoint@cv@@00U?$integral_constant@_N$00@2@@Z 000000018003f290 f i extractSurfCore.obj
 0001:0003e2d0       ?_Umove_if_noexcept@?$vector@VKeyPoint@cv@@V?$allocator@VKeyPoint@cv@@@std@@@std@@AEAAXPEAVKeyPoint@cv@@00@Z 000000018003f2d0 f i extractSurfCore.obj
 0001:0003e330       ?_Xlen_string@std@@YAXXZ   000000018003f330 f i extractSurfCore.obj
 0001:0003e350       ?_Xlength@?$vector@VKeyPoint@cv@@V?$allocator@VKeyPoint@cv@@@std@@@std@@CAXXZ 000000018003f350 f i extractSurfCore.obj
 0001:0003e370       ?allocate@?$allocator@D@std@@QEAAPEAD_K@Z 000000018003f370 f i extractSurfCore.obj
 0001:0003e3a0       ?allocate@?$allocator@VKeyPoint@cv@@@std@@QEAAPEAVKeyPoint@cv@@_K@Z 000000018003f3a0 f i extractSurfCore.obj
 0001:0003e3d0       ?assign@?$_Narrow_char_traits@DH@std@@SAXAEADAEBD@Z 000000018003f3d0 f i extractSurfCore.obj
 0001:0003e3f0       ?assign@?$basic_string@DU?$char_traits@D@std@@V?$allocator@D@2@@std@@QEAAAEAV12@QEBD@Z 000000018003f3f0 f i extractSurfCore.obj
 0001:0003e430       ?assign@?$basic_string@DU?$char_traits@D@std@@V?$allocator@D@2@@std@@QEAAAEAV12@QEBD_K@Z 000000018003f430 f i extractSurfCore.obj
 0001:0003e4f0       ?c_str@?$basic_string@DU?$char_traits@D@std@@V?$allocator@D@2@@std@@QEBAPEBDXZ 000000018003f4f0 f i extractSurfCore.obj
 0001:0003e510       ?capacity@?$vector@VKeyPoint@cv@@V?$allocator@VKeyPoint@cv@@@std@@@std@@QEBA_KXZ 000000018003f510 f i extractSurfCore.obj
 0001:0003e550       ?channels@Mat@cv@@QEBAHXZ  000000018003f550 f i extractSurfCore.obj
 0001:0003e570       ?copy@?$_Char_traits@DH@std@@SAPEADQEADQEBD_K@Z 000000018003f570 f i extractSurfCore.obj
 0001:0003e5b0       ?deallocate@?$allocator@D@std@@QEAAXQEAD_K@Z 000000018003f5b0 f i extractSurfCore.obj
 0001:0003e5e0       ?deallocate@?$allocator@VKeyPoint@cv@@@std@@QEAAXQEAVKeyPoint@cv@@_K@Z 000000018003f5e0 f i extractSurfCore.obj
 0001:0003e610       ?empty@?$Ptr@VMWSURF@cv@@@cv@@QEBA_NXZ 000000018003f610 f i extractSurfCore.obj
 0001:0003e650       ?eof@?$_Narrow_char_traits@DH@std@@SAHXZ 000000018003f650 f i extractSurfCore.obj
 0001:0003e660       ?eq_int_type@?$_Narrow_char_traits@DH@std@@SA_NAEBH0@Z 000000018003f660 f i extractSurfCore.obj
 0001:0003e6a0       ?get@?$_Ptr_base@VMWSURF@cv@@@std@@IEBAPEAVMWSURF@cv@@XZ 000000018003f6a0 f i extractSurfCore.obj
 0001:0003e6b0       ?length@?$_Narrow_char_traits@DH@std@@SA_KQEBD@Z 000000018003f6b0 f i extractSurfCore.obj
 0001:0003e6d0       ?max@?$numeric_limits@_J@std@@SA_JXZ 000000018003f6d0 f i extractSurfCore.obj
 0001:0003e6e0       ?max_size@?$_Default_allocator_traits@V?$allocator@D@std@@@std@@SA_KAEBV?$allocator@D@2@@Z 000000018003f6e0 f i extractSurfCore.obj
 0001:0003e6f0       ?max_size@?$_Default_allocator_traits@V?$allocator@VKeyPoint@cv@@@std@@@std@@SA_KAEBV?$allocator@VKeyPoint@cv@@@2@@Z 000000018003f6f0 f i extractSurfCore.obj
 0001:0003e700       ?max_size@?$basic_string@DU?$char_traits@D@std@@V?$allocator@D@2@@std@@QEBA_KXZ 000000018003f700 f i extractSurfCore.obj
 0001:0003e770       ?max_size@?$vector@VKeyPoint@cv@@V?$allocator@VKeyPoint@cv@@@std@@@std@@QEBA_KXZ 000000018003f770 f i extractSurfCore.obj
 0001:0003e7c0       ?move@?$_Char_traits@DH@std@@SAPEADQEADQEBD_K@Z 000000018003f7c0 f i extractSurfCore.obj
 0001:0003e800       ?push_back@?$vector@VKeyPoint@cv@@V?$allocator@VKeyPoint@cv@@@std@@@std@@QEAAXAEBVKeyPoint@cv@@@Z 000000018003f800 f i extractSurfCore.obj
 0001:0003e830       ?release@Mat@cv@@QEAAXXZ   000000018003f830 f i extractSurfCore.obj
 0001:0003e8f0       ?select_on_container_copy_construction@?$_Default_allocator_traits@V?$allocator@D@std@@@std@@SA?AV?$allocator@D@2@AEBV32@@Z 000000018003f8f0 f i extractSurfCore.obj
 0001:0003e900       ?select_on_container_copy_construction@?$_Default_allocator_traits@V?$allocator@VKeyPoint@cv@@@std@@@std@@SA?AV?$allocator@VKeyPoint@cv@@@2@AEBV32@@Z 000000018003f900 f i extractSurfCore.obj
 0001:0003e910       ?size@?$vector@VKeyPoint@cv@@V?$allocator@VKeyPoint@cv@@@std@@@std@@QEBA_KXZ 000000018003f910 f i extractSurfCore.obj
 0001:0003e950       ?total@Mat@cv@@QEBA_KXZ    000000018003f950 f i extractSurfCore.obj
 0001:0003e9e0       ?what@exception@std@@UEBAPEBDXZ 000000018003f9e0 f i extractSurfCore.obj
 0001:0003ea20       wmemcpy                    000000018003fa20 f i extractSurfCore.obj
 0001:0003ea60       cvRectToBoundingBox        000000018003fa60 f   cgCommon.obj
 0001:0003eb80       cvRectToBoundingBoxRowMajor 000000018003fb80 f   cgCommon.obj
 0001:0003ec80       ??$addressof@$$CBV?$_Vector_val@U?$_Simple_types@V?$Rect_@H@cv@@@std@@@std@@@std@@YAPEBV?$_Vector_val@U?$_Simple_types@V?$Rect_@H@cv@@@std@@@0@AEBV10@@Z 000000018003fc80 f i cgCommon.obj
 0001:0003ec90       ??0?$_Vector_const_iterator@V?$_Vector_val@U?$_Simple_types@V?$Rect_@H@cv@@@std@@@std@@@std@@QEAA@PEAV?$Rect_@H@cv@@PEBU_Container_base0@1@@Z 000000018003fc90 f i cgCommon.obj
 0001:0003ecd0       ??8?$_Vector_const_iterator@V?$_Vector_val@U?$_Simple_types@V?$Rect_@H@cv@@@std@@@std@@@std@@QEBA_NAEBV01@@Z 000000018003fcd0 f i cgCommon.obj
 0001:0003ed20       ??9?$_Vector_const_iterator@V?$_Vector_val@U?$_Simple_types@V?$Rect_@H@cv@@@std@@@std@@@std@@QEBA_NAEBV01@@Z 000000018003fd20 f i cgCommon.obj
 0001:0003ed60       ??C?$_Vector_const_iterator@V?$_Vector_val@U?$_Simple_types@V?$Rect_@H@cv@@@std@@@std@@@std@@QEBAPEBV?$Rect_@H@cv@@XZ 000000018003fd60 f i cgCommon.obj
 0001:0003ed70       ??E?$_Vector_const_iterator@V?$_Vector_val@U?$_Simple_types@V?$Rect_@H@cv@@@std@@@std@@@std@@QEAAAEAV01@XZ 000000018003fd70 f i cgCommon.obj
 0001:0003ed90       ?_Adopt@_Iterator_base0@std@@QEAAXPEBX@Z 000000018003fd90 f i cgCommon.obj
 0001:0003eda0       ?_Compat@?$_Vector_const_iterator@V?$_Vector_val@U?$_Simple_types@V?$Rect_@H@cv@@@std@@@std@@@std@@QEBAXAEBV12@@Z 000000018003fda0 f i cgCommon.obj
 0001:0003edb0       ?begin@?$vector@V?$Rect_@H@cv@@V?$allocator@V?$Rect_@H@cv@@@std@@@std@@QEBA?AV?$_Vector_const_iterator@V?$_Vector_val@U?$_Simple_types@V?$Rect_@H@cv@@@std@@@std@@@2@XZ 000000018003fdb0 f i cgCommon.obj
 0001:0003ee00       ?end@?$vector@V?$Rect_@H@cv@@V?$allocator@V?$Rect_@H@cv@@@std@@@std@@QEBA?AV?$_Vector_const_iterator@V?$_Vector_val@U?$_Simple_types@V?$Rect_@H@cv@@@std@@@std@@@2@XZ 000000018003fe00 f i cgCommon.obj
 0001:0003ee50       ?size@?$vector@V?$Rect_@H@cv@@V?$allocator@V?$Rect_@H@cv@@@std@@@std@@QEBA_KXZ 000000018003fe50 f i cgCommon.obj
 0001:0003f040       ??0MWSURF@cv@@QEAA@XZ      0000000180040040 f   mwsurf.obj
 0001:0003f140       ??0MWSURF@cv@@QEAA@NHH_N0@Z 0000000180040140 f   mwsurf.obj
 0001:0003f250       ?descriptorSize@MWSURF@cv@@UEBAHXZ 0000000180040250 f   mwsurf.obj
 0001:0003f290       ?descriptorType@MWSURF@cv@@UEBAHXZ 0000000180040290 f   mwsurf.obj
 0001:0003f2b0       ?setUpright@MWSURF@cv@@QEAAX_N@Z 00000001800402b0 f   mwsurf.obj
 0001:0003f2d0       ?setExtended@MWSURF@cv@@QEAAX_N@Z 00000001800402d0 f   mwsurf.obj
 0001:0003f2f0       ?setThreshold@MWSURF@cv@@QEAAXN@Z 00000001800402f0 f   mwsurf.obj
 0001:0003f320       ?setNOctaves@MWSURF@cv@@QEAAXH@Z 0000000180040320 f   mwsurf.obj
 0001:0003f340       ?setNOctaveLayers@MWSURF@cv@@QEAAXH@Z 0000000180040340 f   mwsurf.obj
 0001:0003f360       ??RMWSURF@cv@@QEBAXAEBV_InputArray@1@0AEAV?$vector@VKeyPoint@cv@@V?$allocator@VKeyPoint@cv@@@std@@@std@@@Z 0000000180040360 f   mwsurf.obj
 0001:0003f3b0       ??RMWSURF@cv@@QEBAXAEBV_InputArray@1@0AEAV?$vector@VKeyPoint@cv@@V?$allocator@VKeyPoint@cv@@@std@@@std@@AEBV_OutputArray@1@_N@Z 00000001800403b0 f   mwsurf.obj
 0001:0003fe80       ?detect@MWSURF@cv@@QEBAXAEBVMat@2@AEAV?$vector@VKeyPoint@cv@@V?$allocator@VKeyPoint@cv@@@std@@@std@@0@Z 0000000180040e80 f   mwsurf.obj
 0001:0003fec0       ?compute@MWSURF@cv@@QEBAXAEBVMat@2@AEAV?$vector@VKeyPoint@cv@@V?$allocator@VKeyPoint@cv@@@std@@@std@@AEAV32@@Z 0000000180040ec0 f   mwsurf.obj
 0001:0003ff00       ?detectImpl@MWSURF@cv@@IEBAXAEBVMat@2@AEAV?$vector@VKeyPoint@cv@@V?$allocator@VKeyPoint@cv@@@std@@@std@@0@Z 0000000180040f00 f   mwsurf.obj
 0001:0003ff90       ?computeImpl@MWSURF@cv@@IEBAXAEBVMat@2@AEAV?$vector@VKeyPoint@cv@@V?$allocator@VKeyPoint@cv@@@std@@@std@@AEAV32@@Z 0000000180040f90 f   mwsurf.obj
 0001:000411b0       ?findMaximaInLayer@MWSURFFindInvoker@cv@@SAXAEBVMat@2@0AEBV?$vector@VMat@cv@@V?$allocator@VMat@cv@@@std@@@std@@1AEBV?$vector@HV?$allocator@H@std@@@5@AEAV?$vector@VKeyPoint@cv@@V?$allocator@VKeyPoint@cv@@@std@@@5@HHMH@Z 00000001800421b0 f   mwsurf.obj
 0001:00042450       ??$?0$$V@?$_Compressed_pair@V?$allocator@M@std@@V?$_Vector_val@U?$_Simple_types@M@std@@@2@$00@std@@QEAA@U_Zero_then_variadic_args_t@1@@Z 0000000180043450 f i mwsurf.obj
 0001:00042480       ??$?0$$V@?$_Compressed_pair@V?$allocator@V?$Point_@H@cv@@@std@@V?$_Vector_val@U?$_Simple_types@V?$Point_@H@cv@@@std@@@2@$00@std@@QEAA@U_Zero_then_variadic_args_t@1@@Z 0000000180043480 f i mwsurf.obj
 0001:000424b0       ??$?0AEAPEAVKeyPoint@cv@@AEAPEAV01@$0A@@?$pair@PEAVKeyPoint@cv@@PEAV12@@std@@QEAA@AEAPEAVKeyPoint@cv@@0@Z 00000001800434b0 f i mwsurf.obj
 0001:00042500       ??$?0AEBV?$allocator@H@std@@$$V@?$_Compressed_pair@V?$allocator@H@std@@V?$_Vector_val@U?$_Simple_types@H@std@@@2@$00@std@@QEAA@U_One_then_variadic_args_t@1@AEBV?$allocator@H@1@@Z 0000000180043500 f i mwsurf.obj
 0001:00042540       ??$?0AEBV?$allocator@VMat@cv@@@std@@$$V@?$_Compressed_pair@V?$allocator@VMat@cv@@@std@@V?$_Vector_val@U?$_Simple_types@VMat@cv@@@std@@@2@$00@std@@QEAA@U_One_then_variadic_args_t@1@AEBV?$allocator@VMat@cv@@@1@@Z 0000000180043540 f i mwsurf.obj
 0001:00042580       ??$?0U?$DefaultDeleter@UCvMat@@@cv@@AEAPEAUCvMat@@@?$_Compressed_pair@U?$DefaultDeleter@UCvMat@@@cv@@PEAUCvMat@@$00@std@@QEAA@U_One_then_variadic_args_t@1@$$QEAU?$DefaultDeleter@UCvMat@@@cv@@AEAPEAUCvMat@@@Z 0000000180043580 f i mwsurf.obj
 0001:000425c0       ??$?0UCvMat@@@?$Ptr@UCvMat@@@cv@@QEAA@AEBU?$integral_constant@_N$00@std@@PEAUCvMat@@@Z 00000001800435c0 f i mwsurf.obj
 0001:00042600       ??$?0UCvMat@@@?$Ptr@UCvMat@@@cv@@QEAA@PEAUCvMat@@@Z 0000000180043600 f i mwsurf.obj
 0001:00042630       ??$?0UCvMat@@U?$DefaultDeleter@UCvMat@@@cv@@$0A@@?$shared_ptr@UCvMat@@@std@@QEAA@PEAUCvMat@@U?$DefaultDeleter@UCvMat@@@cv@@@Z 0000000180043630 f i mwsurf.obj
 0001:00042680       ??$?BH@CvPoint@@QEBA?AV?$Point_@H@cv@@XZ 0000000180043680 f i mwsurf.obj
 0001:000426d0       ??$_Adl_verify_range@V?$_Vector_iterator@V?$_Vector_val@U?$_Simple_types@VKeyPoint@cv@@@std@@@std@@@std@@V12@@std@@YAXAEBV?$_Vector_iterator@V?$_Vector_val@U?$_Simple_types@VKeyPoint@cv@@@std@@@std@@@0@0@Z 00000001800436d0 f i mwsurf.obj
 0001:000426e0       ??$_Construct_n_copies_of_ty@U_Value_init_tag@std@@@?$vector@HV?$allocator@H@std@@@std@@AEAAX_KAEBU_Value_init_tag@1@@Z 00000001800436e0 f i mwsurf.obj
 0001:00042790       ??$_Construct_n_copies_of_ty@U_Value_init_tag@std@@@?$vector@VMat@cv@@V?$allocator@VMat@cv@@@std@@@std@@AEAAX_KAEBU_Value_init_tag@1@@Z 0000000180043790 f i mwsurf.obj
 0001:00042840       ??$_Copy_memmove@PEAMPEAM@std@@YAPEAMPEAM00@Z 0000000180043840 f i mwsurf.obj
 0001:000428b0       ??$_Destroy_range@V?$allocator@H@std@@@std@@YAXPEAHQEAHAEAV?$allocator@H@0@@Z 00000001800438b0 f i mwsurf.obj
 0001:000428c0       ??$_Destroy_range@V?$allocator@M@std@@@std@@YAXPEAMQEAMAEAV?$allocator@M@0@@Z 00000001800438c0 f i mwsurf.obj
 0001:000428d0       ??$_Destroy_range@V?$allocator@V?$Point_@H@cv@@@std@@@std@@YAXPEAV?$Point_@H@cv@@QEAV12@AEAV?$allocator@V?$Point_@H@cv@@@0@@Z 00000001800438d0 f i mwsurf.obj
 0001:000428e0       ??$_Destroy_range@V?$allocator@VMat@cv@@@std@@@std@@YAXPEAVMat@cv@@QEAV12@AEAV?$allocator@VMat@cv@@@0@@Z 00000001800438e0 f i mwsurf.obj
 0001:00042930       ??$_Emplace_back@$$V@?$_Uninitialized_backout_al@V?$allocator@V?$Point_@H@cv@@@std@@@std@@QEAAXXZ 0000000180043930 f i mwsurf.obj
 0001:00042980       ??$_Emplace_back@$$V@?$_Uninitialized_backout_al@V?$allocator@VKeyPoint@cv@@@std@@@std@@QEAAXXZ 0000000180043980 f i mwsurf.obj
 0001:000429d0       ??$_Emplace_back@$$V@?$_Uninitialized_backout_al@V?$allocator@VMat@cv@@@std@@@std@@QEAAXXZ 00000001800439d0 f i mwsurf.obj
 0001:00042a20       ??$_Emplace_back@V?$Point_@H@cv@@@?$_Uninitialized_backout_al@V?$allocator@V?$Point_@H@cv@@@std@@@std@@QEAAX$$QEAV?$Point_@H@cv@@@Z 0000000180043a20 f i mwsurf.obj
 0001:00042a80       ??$_Get_size_of_n@$03@std@@YA_K_K@Z 0000000180043a80 f i mwsurf.obj
 0001:00042ad0       ??$_Get_size_of_n@$07@std@@YA_K_K@Z 0000000180043ad0 f i mwsurf.obj
 0001:00042b20       ??$_Get_size_of_n@$0GA@@std@@YA_K_K@Z 0000000180043b20 f i mwsurf.obj
 0001:00042b60       ??$_Get_unwrapped@AEBQEAM@std@@YAPEAMAEBQEAM@Z 0000000180043b60 f i mwsurf.obj
 0001:00042b70       ??$_Get_unwrapped@AEBQEAV?$Point_@H@cv@@@std@@YAPEAV?$Point_@H@cv@@AEBQEAV12@@Z 0000000180043b70 f i mwsurf.obj
 0001:00042b80       ??$_Get_unwrapped@AEBV?$_Vector_iterator@V?$_Vector_val@U?$_Simple_types@VKeyPoint@cv@@@std@@@std@@@std@@@std@@YAPEAVKeyPoint@cv@@AEBV?$_Vector_iterator@V?$_Vector_val@U?$_Simple_types@VKeyPoint@cv@@@std@@@std@@@0@@Z 0000000180043b80 f i mwsurf.obj
 0001:00042ba0       ??$_Guess_median_unchecked@PEAVKeyPoint@cv@@UKeypointGreater@2@@std@@YAXPEAVKeyPoint@cv@@00UKeypointGreater@2@@Z 0000000180043ba0 f i mwsurf.obj
 0001:00042d00       ??$_Insertion_sort_unchecked@PEAVKeyPoint@cv@@UKeypointGreater@2@@std@@YAPEAVKeyPoint@cv@@QEAV12@0UKeypointGreater@2@@Z 0000000180043d00 f i mwsurf.obj
 0001:00042e50       ??$_Make_heap_unchecked@PEAVKeyPoint@cv@@UKeypointGreater@2@@std@@YAXPEAVKeyPoint@cv@@0UKeypointGreater@2@@Z 0000000180043e50 f i mwsurf.obj
 0001:00042f00       ??$_Med3_unchecked@PEAVKeyPoint@cv@@UKeypointGreater@2@@std@@YAXPEAVKeyPoint@cv@@00UKeypointGreater@2@@Z 0000000180043f00 f i mwsurf.obj
 0001:00042fa0       ??$_Move_backward_unchecked@PEAVKeyPoint@cv@@PEAV12@@std@@YAPEAVKeyPoint@cv@@PEAV12@00@Z 0000000180043fa0 f i mwsurf.obj
 0001:00043000       ??$_Next_iter@PEAVKeyPoint@cv@@@std@@YAPEAVKeyPoint@cv@@PEAV12@@Z 0000000180044000 f i mwsurf.obj
 0001:00043020       ??$_Partition_by_median_guess_unchecked@PEAVKeyPoint@cv@@UKeypointGreater@2@@std@@YA?AU?$pair@PEAVKeyPoint@cv@@PEAV12@@0@PEAVKeyPoint@cv@@0UKeypointGreater@3@@Z 0000000180044020 f i mwsurf.obj
 0001:000433e0       ??$_Pass_fn@UKeypointGreater@cv@@$0A@@std@@YA?AUKeypointGreater@cv@@U12@@Z 00000001800443e0 f i mwsurf.obj
 0001:000433f0       ??$_Pop_heap_hole_by_index@PEAVKeyPoint@cv@@V12@UKeypointGreater@2@@std@@YAXPEAVKeyPoint@cv@@_J1$$QEAV12@UKeypointGreater@2@@Z 00000001800443f0 f i mwsurf.obj
 0001:00043580       ??$_Pop_heap_hole_unchecked@PEAVKeyPoint@cv@@V12@UKeypointGreater@2@@std@@YAXPEAVKeyPoint@cv@@00$$QEAV12@UKeypointGreater@2@@Z 0000000180044580 f i mwsurf.obj
 0001:00043600       ??$_Pop_heap_unchecked@PEAVKeyPoint@cv@@UKeypointGreater@2@@std@@YAXPEAVKeyPoint@cv@@0UKeypointGreater@2@@Z 0000000180044600 f i mwsurf.obj
 0001:00043690       ??$_Prev_iter@PEAVKeyPoint@cv@@@std@@YAPEAVKeyPoint@cv@@PEAV12@@Z 0000000180044690 f i mwsurf.obj
 0001:000436b0       ??$_Push_heap_by_index@PEAVKeyPoint@cv@@V12@UKeypointGreater@2@@std@@YAXPEAVKeyPoint@cv@@_J1$$QEAV12@UKeypointGreater@2@@Z 00000001800446b0 f i mwsurf.obj
 0001:00043790       ??$_Resize@U_Value_init_tag@std@@@?$vector@MV?$allocator@M@std@@@std@@AEAAX_KAEBU_Value_init_tag@1@@Z 0000000180044790 f i mwsurf.obj
 0001:00043900       ??$_Resize@U_Value_init_tag@std@@@?$vector@V?$Point_@H@cv@@V?$allocator@V?$Point_@H@cv@@@std@@@std@@AEAAX_KAEBU_Value_init_tag@1@@Z 0000000180044900 f i mwsurf.obj
 0001:00043a70       ??$_Resize@U_Value_init_tag@std@@@?$vector@VKeyPoint@cv@@V?$allocator@VKeyPoint@cv@@@std@@@std@@AEAAX_KAEBU_Value_init_tag@1@@Z 0000000180044a70 f i mwsurf.obj
 0001:00043be0       ??$_Resize_reallocate@U_Value_init_tag@std@@@?$vector@MV?$allocator@M@std@@@std@@AEAAX_KAEBU_Value_init_tag@1@@Z 0000000180044be0 f i mwsurf.obj
 0001:00043d40       ??$_Resize_reallocate@U_Value_init_tag@std@@@?$vector@V?$Point_@H@cv@@V?$allocator@V?$Point_@H@cv@@@std@@@std@@AEAAX_KAEBU_Value_init_tag@1@@Z 0000000180044d40 f i mwsurf.obj
 0001:00043ea0       ??$_Resize_reallocate@U_Value_init_tag@std@@@?$vector@VKeyPoint@cv@@V?$allocator@VKeyPoint@cv@@@std@@@std@@AEAAX_KAEBU_Value_init_tag@1@@Z 0000000180044ea0 f i mwsurf.obj
 0001:00044000       ??$_Set_ptr_rep_and_enable_shared@UCvMat@@@?$shared_ptr@UCvMat@@@std@@AEAAXQEAUCvMat@@QEAV_Ref_count_base@1@@Z 0000000180045000 f i mwsurf.obj
 0001:00044030       ??$_Setpd@PEAUCvMat@@U?$DefaultDeleter@UCvMat@@@cv@@@?$shared_ptr@UCvMat@@@std@@AEAAXQEAUCvMat@@U?$DefaultDeleter@UCvMat@@@cv@@@Z 0000000180045030 f i mwsurf.obj
 0001:000440d0       ??$_Sort_heap_unchecked@PEAVKeyPoint@cv@@UKeypointGreater@2@@std@@YAXPEAVKeyPoint@cv@@0UKeypointGreater@2@@Z 00000001800450d0 f i mwsurf.obj
 0001:00044130       ??$_Sort_unchecked@PEAVKeyPoint@cv@@UKeypointGreater@2@@std@@YAXPEAVKeyPoint@cv@@0_JUKeypointGreater@2@@Z 0000000180045130 f i mwsurf.obj
 0001:00044290       ??$_Unfancy@H@std@@YAPEAHPEAH@Z 0000000180045290 f i mwsurf.obj
 0001:000442a0       ??$_Unfancy@M@std@@YAPEAMPEAM@Z 00000001800452a0 f i mwsurf.obj
 0001:000442b0       ??$_Unfancy@V?$Point_@H@cv@@@std@@YAPEAV?$Point_@H@cv@@PEAV12@@Z 00000001800452b0 f i mwsurf.obj
 0001:000442c0       ??$_Unfancy@VMat@cv@@@std@@YAPEAVMat@cv@@PEAV12@@Z 00000001800452c0 f i mwsurf.obj
 0001:000442d0       ??$_Uninitialized_move@PEAMV?$allocator@M@std@@@std@@YAPEAMQEAM0PEAMAEAV?$allocator@M@0@@Z 00000001800452d0 f i mwsurf.obj
 0001:00044350       ??$_Uninitialized_move@PEAV?$Point_@H@cv@@V?$allocator@V?$Point_@H@cv@@@std@@@std@@YAPEAV?$Point_@H@cv@@QEAV12@0PEAV12@AEAV?$allocator@V?$Point_@H@cv@@@0@@Z 0000000180045350 f i mwsurf.obj
 0001:00044400       ??$_Uninitialized_value_construct_n@V?$allocator@H@std@@@std@@YAPEAHPEAH_KAEAV?$allocator@H@0@@Z 0000000180045400 f i mwsurf.obj
 0001:00044450       ??$_Uninitialized_value_construct_n@V?$allocator@M@std@@@std@@YAPEAMPEAM_KAEAV?$allocator@M@0@@Z 0000000180045450 f i mwsurf.obj
 0001:000444a0       ??$_Uninitialized_value_construct_n@V?$allocator@V?$Point_@H@cv@@@std@@@std@@YAPEAV?$Point_@H@cv@@PEAV12@_KAEAV?$allocator@V?$Point_@H@cv@@@0@@Z 00000001800454a0 f i mwsurf.obj
 0001:00044510       ??$_Uninitialized_value_construct_n@V?$allocator@VKeyPoint@cv@@@std@@@std@@YAPEAVKeyPoint@cv@@PEAV12@_KAEAV?$allocator@VKeyPoint@cv@@@0@@Z 0000000180045510 f i mwsurf.obj
 0001:00044580       ??$_Uninitialized_value_construct_n@V?$allocator@VMat@cv@@@std@@@std@@YAPEAVMat@cv@@PEAV12@_KAEAV?$allocator@VMat@cv@@@0@@Z 0000000180045580 f i mwsurf.obj
 0001:000445f0       ??$_Zero_range@PEAH@std@@YAPEAHQEAH0@Z 00000001800455f0 f i mwsurf.obj
 0001:00044640       ??$_Zero_range@PEAM@std@@YAPEAMQEAM0@Z 0000000180045640 f i mwsurf.obj
 0001:00044690       ??$addressof@$$CBU?$DefaultDeleter@UCvMat@@@cv@@@std@@YAPEBU?$DefaultDeleter@UCvMat@@@cv@@AEBU12@@Z 0000000180045690 f i mwsurf.obj
 0001:000446a0       ??$addressof@V?$_Vector_val@U?$_Simple_types@VKeyPoint@cv@@@std@@@std@@@std@@YAPEAV?$_Vector_val@U?$_Simple_types@VKeyPoint@cv@@@std@@@0@AEAV10@@Z 00000001800456a0 f i mwsurf.obj
 0001:000446b0       ??$at@E@Mat@cv@@QEBAAEBEHH@Z 00000001800456b0 f i mwsurf.obj
 0001:00044700       ??$at@H@Mat@cv@@QEBAAEBHHH@Z 0000000180045700 f i mwsurf.obj
 0001:00044750       ??$at@M@Mat@cv@@QEAAAEAMHH@Z 0000000180045750 f i mwsurf.obj
 0001:000447a0       ??$at@M@Mat@cv@@QEBAAEBMHH@Z 00000001800457a0 f i mwsurf.obj
 0001:000447f0       ??$construct@V?$Point_@H@cv@@$$V@?$_Default_allocator_traits@V?$allocator@V?$Point_@H@cv@@@std@@@std@@SAXAEAV?$allocator@V?$Point_@H@cv@@@1@QEAV?$Point_@H@cv@@@Z 00000001800457f0 f i mwsurf.obj
 0001:00044830       ??$construct@V?$Point_@H@cv@@V12@@?$_Default_allocator_traits@V?$allocator@V?$Point_@H@cv@@@std@@@std@@SAXAEAV?$allocator@V?$Point_@H@cv@@@1@QEAV?$Point_@H@cv@@$$QEAV34@@Z 0000000180045830 f i mwsurf.obj
 0001:00044880       ??$construct@VKeyPoint@cv@@$$V@?$_Default_allocator_traits@V?$allocator@VKeyPoint@cv@@@std@@@std@@SAXAEAV?$allocator@VKeyPoint@cv@@@1@QEAVKeyPoint@cv@@@Z 0000000180045880 f i mwsurf.obj
 0001:000448c0       ??$construct@VMat@cv@@$$V@?$_Default_allocator_traits@V?$allocator@VMat@cv@@@std@@@std@@SAXAEAV?$allocator@VMat@cv@@@1@QEAVMat@cv@@@Z 00000001800458c0 f i mwsurf.obj
 0001:00044900       ??$destroy@VMat@cv@@@?$_Default_allocator_traits@V?$allocator@VMat@cv@@@std@@@std@@SAXAEAV?$allocator@VMat@cv@@@1@QEAVMat@cv@@@Z 0000000180045900 f i mwsurf.obj
 0001:00044920       ??$forward@AEAPEAUCvMat@@@std@@YAAEAPEAUCvMat@@AEAPEAU1@@Z 0000000180045920 f i mwsurf.obj
 0001:00044930       ??$forward@AEAPEAVKeyPoint@cv@@@std@@YAAEAPEAVKeyPoint@cv@@AEAPEAV12@@Z 0000000180045930 f i mwsurf.obj
 0001:00044940       ??$forward@AEBV?$allocator@H@std@@@std@@YAAEBV?$allocator@H@0@AEBV10@@Z 0000000180045940 f i mwsurf.obj
 0001:00044950       ??$forward@AEBV?$allocator@VMat@cv@@@std@@@std@@YAAEBV?$allocator@VMat@cv@@@0@AEBV10@@Z 0000000180045950 f i mwsurf.obj
 0001:00044960       ??$forward@U?$DefaultDeleter@UCvMat@@@cv@@@std@@YA$$QEAU?$DefaultDeleter@UCvMat@@@cv@@AEAU12@@Z 0000000180045960 f i mwsurf.obj
 0001:00044970       ??$forward@V?$Point_@H@cv@@@std@@YA$$QEAV?$Point_@H@cv@@AEAV12@@Z 0000000180045970 f i mwsurf.obj
 0001:00044980       ??$iter_swap@PEAVKeyPoint@cv@@PEAV12@@std@@YAXPEAVKeyPoint@cv@@0@Z 0000000180045980 f i mwsurf.obj
 0001:000449b0       ??$max@H@std@@YAAEBHAEBH0@Z 00000001800459b0 f i mwsurf.obj
 0001:00044a00       ??$max@M@std@@YAAEBMAEBM0@Z 0000000180045a00 f i mwsurf.obj
 0001:00044a50       ??$min@H@std@@YAAEBHAEBH0@Z 0000000180045a50 f i mwsurf.obj
 0001:00044aa0       ??$move@AEAH@std@@YA$$QEAHAEAH@Z 0000000180045aa0 f i mwsurf.obj
 0001:00044ab0       ??$move@AEAU?$DefaultDeleter@UCvMat@@@cv@@@std@@YA$$QEAU?$DefaultDeleter@UCvMat@@@cv@@AEAU12@@Z 0000000180045ab0 f i mwsurf.obj
 0001:00044ac0       ??$move@AEAV?$Point_@H@cv@@@std@@YA$$QEAV?$Point_@H@cv@@AEAV12@@Z 0000000180045ac0 f i mwsurf.obj
 0001:00044ad0       ??$ptr@H@Mat@cv@@QEBAPEBHH@Z 0000000180045ad0 f i mwsurf.obj
 0001:00044b10       ??$ptr@M@Mat@cv@@QEAAPEAMH@Z 0000000180045b10 f i mwsurf.obj
 0001:00044b50       ??$ptr@M@Mat@cv@@QEBAPEBMH@Z 0000000180045b50 f i mwsurf.obj
 0001:00044b90       ??$solve@$00@?$Matx@M$02$02@cv@@QEBA?AV?$Matx@M$02$00@1@AEBV21@H@Z 0000000180045b90 f i mwsurf.obj
 0001:00044c70       ??$sort@V?$_Vector_iterator@V?$_Vector_val@U?$_Simple_types@VKeyPoint@cv@@@std@@@std@@@std@@UKeypointGreater@cv@@@std@@YAXV?$_Vector_iterator@V?$_Vector_val@U?$_Simple_types@VKeyPoint@cv@@@std@@@std@@@0@0UKeypointGreater@cv@@@Z 0000000180045c70 f i mwsurf.obj
 0001:00044d00       ??$swap@VKeyPoint@cv@@$0A@@std@@YAXAEAVKeyPoint@cv@@0@Z 0000000180045d00 f i mwsurf.obj
 0001:00044d60       ??0?$Matx@M$02$00@cv@@QEAA@MMM@Z 0000000180045d60 f i mwsurf.obj
 0001:00044e00       ??0?$Matx@M$02$00@cv@@QEAA@PEBM@Z 0000000180045e00 f i mwsurf.obj
 0001:00044e50       ??0?$Matx@M$02$00@cv@@QEAA@XZ 0000000180045e50 f i mwsurf.obj
 0001:00044e90       ??0?$Matx@M$02$02@cv@@QEAA@MMMMMMMMM@Z 0000000180045e90 f i mwsurf.obj
 0001:00044fc0       ??0?$Point_@H@cv@@QEAA@$$QEAV01@@Z 0000000180045fc0 f i mwsurf.obj
 0001:00045010       ??0?$Point_@H@cv@@QEAA@HH@Z 0000000180046010 f i mwsurf.obj
 0001:00045040       ??0?$Point_@H@cv@@QEAA@XZ  0000000180046040 f i mwsurf.obj
 0001:00045070       ??0?$Size_@H@cv@@QEAA@XZ   0000000180046070 f i mwsurf.obj
 0001:000450a0       ??0?$Vec@M$02@cv@@QEAA@AEBV01@@Z 00000001800460a0 f i mwsurf.obj
 0001:000450d0       ??0?$Vec@M$02@cv@@QEAA@MMM@Z 00000001800460d0 f i mwsurf.obj
 0001:00045120       ??0?$_Ptr_base@UCvMat@@@std@@IEAA@XZ 0000000180046120 f i mwsurf.obj
 0001:00045150       ??0?$_Ref_count_resource@PEAUCvMat@@U?$DefaultDeleter@UCvMat@@@cv@@@std@@QEAA@PEAUCvMat@@U?$DefaultDeleter@UCvMat@@@cv@@@Z 0000000180046150 f i mwsurf.obj
 0001:000451c0       ??0?$_Temporary_owner_del@PEAUCvMat@@U?$DefaultDeleter@UCvMat@@@cv@@@std@@QEAA@QEAUCvMat@@AEAU?$DefaultDeleter@UCvMat@@@cv@@@Z 00000001800461c0 f i mwsurf.obj
 0001:00045200       ??0?$_Uninitialized_backout_al@V?$allocator@V?$Point_@H@cv@@@std@@@std@@QEAA@PEAV?$Point_@H@cv@@AEAV?$allocator@V?$Point_@H@cv@@@1@@Z 0000000180046200 f i mwsurf.obj
 0001:00045240       ??0?$_Uninitialized_backout_al@V?$allocator@VMat@cv@@@std@@@std@@QEAA@PEAVMat@cv@@AEAV?$allocator@VMat@cv@@@1@@Z 0000000180046240 f i mwsurf.obj
 0001:00045280       ??0?$_Vector_const_iterator@V?$_Vector_val@U?$_Simple_types@VKeyPoint@cv@@@std@@@std@@@std@@QEAA@PEAVKeyPoint@cv@@PEBU_Container_base0@1@@Z 0000000180046280 f i mwsurf.obj
 0001:000452c0       ??0?$_Vector_iterator@V?$_Vector_val@U?$_Simple_types@VKeyPoint@cv@@@std@@@std@@@std@@QEAA@PEAVKeyPoint@cv@@PEBU_Container_base0@1@@Z 00000001800462c0 f i mwsurf.obj
 0001:00045300       ??0?$_Vector_val@U?$_Simple_types@H@std@@@std@@QEAA@XZ 0000000180046300 f i mwsurf.obj
 0001:00045340       ??0?$_Vector_val@U?$_Simple_types@M@std@@@std@@QEAA@XZ 0000000180046340 f i mwsurf.obj
 0001:00045380       ??0?$_Vector_val@U?$_Simple_types@V?$Point_@H@cv@@@std@@@std@@QEAA@XZ 0000000180046380 f i mwsurf.obj
 0001:000453c0       ??0?$_Vector_val@U?$_Simple_types@VMat@cv@@@std@@@std@@QEAA@XZ 00000001800463c0 f i mwsurf.obj
 0001:00045400       ??0?$allocator@H@std@@QEAA@XZ 0000000180046400 f i mwsurf.obj
 0001:00045410       ??0?$allocator@M@std@@QEAA@XZ 0000000180046410 f i mwsurf.obj
 0001:00045420       ??0?$allocator@V?$Point_@H@cv@@@std@@QEAA@XZ 0000000180046420 f i mwsurf.obj
 0001:00045430       ??0?$allocator@VMat@cv@@@std@@QEAA@XZ 0000000180046430 f i mwsurf.obj
 0001:00045440       ??0?$lock_guard@Vrecursive_mutex@std@@@std@@QEAA@AEAVrecursive_mutex@1@@Z 0000000180046440 f i mwsurf.obj
 0001:00045480       ??0?$vector@HV?$allocator@H@std@@@std@@QEAA@_KAEBV?$allocator@H@1@@Z 0000000180046480 f i mwsurf.obj
 0001:000454d0       ??0?$vector@MV?$allocator@M@std@@@std@@QEAA@XZ 00000001800464d0 f i mwsurf.obj
 0001:00045510       ??0?$vector@V?$Point_@H@cv@@V?$allocator@V?$Point_@H@cv@@@std@@@std@@QEAA@XZ 0000000180046510 f i mwsurf.obj
 0001:00045550       ??0?$vector@VMat@cv@@V?$allocator@VMat@cv@@@std@@@std@@QEAA@_KAEBV?$allocator@VMat@cv@@@1@@Z 0000000180046550 f i mwsurf.obj
 0001:000455a0       ??0Feature2D@cv@@QEAA@XZ   00000001800465a0 f i mwsurf.obj
 0001:00045640       ??0KeyPoint@cv@@QEAA@XZ    0000000180046640 f i mwsurf.obj
 0001:000456b0       ??0MWSURFBuildInvoker@cv@@QEAA@AEBVMat@1@AEBV?$vector@HV?$allocator@H@std@@@std@@1AEAV?$vector@VMat@cv@@V?$allocator@VMat@cv@@@std@@@4@2@Z 00000001800466b0 f i mwsurf.obj
 0001:00045740       ??0MWSURFFindInvoker@cv@@QEAA@AEBVMat@1@0AEBV?$vector@VMat@cv@@V?$allocator@VMat@cv@@@std@@@std@@1AEBV?$vector@HV?$allocator@H@std@@@4@22AEAV?$vector@VKeyPoint@cv@@V?$allocator@VKeyPoint@cv@@@std@@@4@HM@Z 0000000180046740 f i mwsurf.obj
 0001:00045810       ??0MWSURFInvoker@cv@@QEAA@AEBVMat@1@0AEAV?$vector@VKeyPoint@cv@@V?$allocator@VKeyPoint@cv@@@std@@@std@@AEAV21@_N3@Z 0000000180046810 f i mwsurf.obj
 0001:00045c60       ??0MWSurfHF@cv@@QEAA@XZ    0000000180046c60 f i mwsurf.obj
 0001:00045cb0       ??0ParallelLoopBody@cv@@QEAA@XZ 0000000180046cb0 f i mwsurf.obj
 0001:00045cd0       ??0Range@cv@@QEAA@HH@Z     0000000180046cd0 f i mwsurf.obj
 0001:00045d00       ??0_InputArray@cv@@QEAA@AEBN@Z 0000000180046d00 f i mwsurf.obj
 0001:00045d60       ??0_InputArray@cv@@QEAA@AEBVMat@1@@Z 0000000180046d60 f i mwsurf.obj
 0001:00045da0       ??0_InputArray@cv@@QEAA@XZ 0000000180046da0 f i mwsurf.obj
 0001:00045de0       ??0_Mutex_base@std@@QEAA@H@Z 0000000180046de0 f i mwsurf.obj
 0001:00045e20       ??0_OutputArray@cv@@QEAA@AEAVMat@1@@Z 0000000180046e20 f i mwsurf.obj
 0001:00045e60       ??0recursive_mutex@std@@QEAA@XZ 0000000180046e60 f i mwsurf.obj
 0001:00045e90       ??1?$Ptr@UCvMat@@@cv@@QEAA@XZ 0000000180046e90 f i mwsurf.obj
 0001:00045eb0       ??1?$_Ref_count_resource@PEAUCvMat@@U?$DefaultDeleter@UCvMat@@@cv@@@std@@UEAA@XZ 0000000180046eb0 f i mwsurf.obj
 0001:00045ed0       ??1?$_Temporary_owner_del@PEAUCvMat@@U?$DefaultDeleter@UCvMat@@@cv@@@std@@QEAA@XZ 0000000180046ed0 f i mwsurf.obj
 0001:00045f10       ??1?$_Tidy_guard@V?$vector@HV?$allocator@H@std@@@std@@@std@@QEAA@XZ 0000000180046f10 f i mwsurf.obj
 0001:00045f40       ??1?$_Tidy_guard@V?$vector@VMat@cv@@V?$allocator@VMat@cv@@@std@@@std@@@std@@QEAA@XZ 0000000180046f40 f i mwsurf.obj
 0001:00045f70       ??1?$_Uninitialized_backout_al@V?$allocator@V?$Point_@H@cv@@@std@@@std@@QEAA@XZ 0000000180046f70 f i mwsurf.obj
 0001:00045fa0       ??1?$_Uninitialized_backout_al@V?$allocator@VMat@cv@@@std@@@std@@QEAA@XZ 0000000180046fa0 f i mwsurf.obj
 0001:00045fd0       ??1?$lock_guard@Vrecursive_mutex@std@@@std@@QEAA@XZ 0000000180046fd0 f i mwsurf.obj
 0001:00045ff0       ??1?$shared_ptr@UCvMat@@@std@@QEAA@XZ 0000000180046ff0 f i mwsurf.obj
 0001:00046010       ??1?$vector@HV?$allocator@H@std@@@std@@QEAA@XZ 0000000180047010 f i mwsurf.obj
 0001:00046030       ??1?$vector@MV?$allocator@M@std@@@std@@QEAA@XZ 0000000180047030 f i mwsurf.obj
 0001:00046050       ??1?$vector@V?$Point_@H@cv@@V?$allocator@V?$Point_@H@cv@@@std@@@std@@QEAA@XZ 0000000180047050 f i mwsurf.obj
 0001:00046070       ??1?$vector@VMat@cv@@V?$allocator@VMat@cv@@@std@@@std@@QEAA@XZ 0000000180047070 f i mwsurf.obj
 0001:00046090       ??1MWSURF@cv@@UEAA@XZ      0000000180047090 f i mwsurf.obj
 0001:000460b0       ??1MWSURFBuildInvoker@cv@@UEAA@XZ 00000001800470b0 f i mwsurf.obj
 0001:000460d0       ??1MWSURFFindInvoker@cv@@UEAA@XZ 00000001800470d0 f i mwsurf.obj
 0001:000460f0       ??1MWSURFInvoker@cv@@UEAA@XZ 00000001800470f0 f i mwsurf.obj
 0001:00046140       ??1_InputArray@cv@@QEAA@XZ 0000000180047140 f i mwsurf.obj
 0001:00046150       ??1_Mutex_base@std@@QEAA@XZ 0000000180047150 f i mwsurf.obj
 0001:00046180       ??1_OutputArray@cv@@QEAA@XZ 0000000180047180 f i mwsurf.obj
 0001:000461a0       ??1recursive_mutex@std@@QEAA@XZ 00000001800471a0 f i mwsurf.obj
 0001:000461c0       ??4?$Point_@H@cv@@QEAAAEAV01@$$QEAV01@@Z 00000001800471c0 f i mwsurf.obj
 0001:00046210       ??4?$Point_@M@cv@@QEAAAEAV01@$$QEAV01@@Z 0000000180047210 f i mwsurf.obj
 0001:00046270       ??4?$Point_@M@cv@@QEAAAEAV01@AEBV01@@Z 0000000180047270 f i mwsurf.obj
 0001:000462b0       ??4?$Size_@H@cv@@QEAAAEAV01@AEBV01@@Z 00000001800472b0 f i mwsurf.obj
 0001:000462e0       ??4KeyPoint@cv@@QEAAAEAV01@$$QEAV01@@Z 00000001800472e0 f i mwsurf.obj
 0001:00046370       ??4KeyPoint@cv@@QEAAAEAV01@AEBV01@@Z 0000000180047370 f i mwsurf.obj
 0001:00046400       ??4Mat@cv@@QEAAAEAV01@$$QEAV01@@Z 0000000180047400 f i mwsurf.obj
 0001:00046670       ??8type_info@@QEBA_NAEBV0@@Z 0000000180047670 f i mwsurf.obj
 0001:000466c0       ??A?$Vec@M$02@cv@@QEAAAEAMH@Z 00000001800476c0 f i mwsurf.obj
 0001:000466e0       ??A?$vector@HV?$allocator@H@std@@@std@@QEAAAEAH_K@Z 00000001800476e0 f i mwsurf.obj
 0001:00046710       ??A?$vector@HV?$allocator@H@std@@@std@@QEBAAEBH_K@Z 0000000180047710 f i mwsurf.obj
 0001:00046740       ??A?$vector@MV?$allocator@M@std@@@std@@QEAAAEAM_K@Z 0000000180047740 f i mwsurf.obj
 0001:00046770       ??A?$vector@MV?$allocator@M@std@@@std@@QEBAAEBM_K@Z 0000000180047770 f i mwsurf.obj
 0001:000467a0       ??A?$vector@V?$Point_@H@cv@@V?$allocator@V?$Point_@H@cv@@@std@@@std@@QEAAAEAV?$Point_@H@cv@@_K@Z 00000001800477a0 f i mwsurf.obj
 0001:000467d0       ??A?$vector@V?$Point_@H@cv@@V?$allocator@V?$Point_@H@cv@@@std@@@std@@QEBAAEBV?$Point_@H@cv@@_K@Z 00000001800477d0 f i mwsurf.obj
 0001:00046800       ??A?$vector@VMat@cv@@V?$allocator@VMat@cv@@@std@@@std@@QEAAAEAVMat@cv@@_K@Z 0000000180047800 f i mwsurf.obj
 0001:00046830       ??A?$vector@VMat@cv@@V?$allocator@VMat@cv@@@std@@@std@@QEBAAEBVMat@cv@@_K@Z 0000000180047830 f i mwsurf.obj
 0001:00046860       ??BMatStep@cv@@QEBA_KXZ    0000000180047860 f i mwsurf.obj
 0001:00046880       ??C?$Ptr@UCvMat@@@cv@@QEBAPEAUCvMat@@XZ 0000000180047880 f i mwsurf.obj
 0001:000468a0       ??R?$Matx@M$02$00@cv@@QEAAAEAMH@Z 00000001800478a0 f i mwsurf.obj
 0001:000468c0       ??R?$Matx@M$02$00@cv@@QEBAAEBMH@Z 00000001800478c0 f i mwsurf.obj
 0001:000468e0       ??R?$Matx@M$02$02@cv@@QEBAAEBMHH@Z 00000001800478e0 f i mwsurf.obj
 0001:00046910       ??R?$Matx_DetOp@M$02@internal@cv@@QEBANAEBV?$Matx@M$02$02@2@@Z 0000000180047910 f i mwsurf.obj
 0001:00046b90       ??R?$Matx_FastSolveOp@M$02$02$00@internal@cv@@QEBA_NAEBV?$Matx@M$02$02@2@AEBV?$Matx@M$02$00@2@AEAV42@H@Z 0000000180047b90 f i mwsurf.obj
 0001:000473e0       ??RKeypointGreater@cv@@QEBA_NAEBVKeyPoint@1@0@Z 00000001800483e0 f i mwsurf.obj
 0001:000474f0       ??RMWSURFBuildInvoker@cv@@UEBAXAEBVRange@1@@Z 00000001800484f0 f i mwsurf.obj
 0001:000475d0       ??RMWSURFFindInvoker@cv@@UEBAXAEBVRange@1@@Z 00000001800485d0 f i mwsurf.obj
 0001:000476c0       ??RMWSURFInvoker@cv@@UEBAXAEBVRange@1@@Z 00000001800486c0 f i mwsurf.obj
 0001:00048fc0       ??_DFeature2D@cv@@QEAAXXZ  0000000180049fc0 f i mwsurf.obj
 0001:00048ff0       ??_DMWSURF@cv@@QEAAXXZ     0000000180049ff0 f i mwsurf.obj
 0001:00049020       ??_EFeature2D@cv@@$4PPPPPPPM@A@EAAPEAXI@Z 000000018004a020 f i mwsurf.obj
 0001:0004902c       ??_EMWSURF@cv@@$4PPPPPPPM@A@EAAPEAXI@Z 000000018004a02c f i mwsurf.obj
 0001:00049040       ??_G?$_Ref_count_resource@PEAUCvMat@@U?$DefaultDeleter@UCvMat@@@cv@@@std@@UEAAPEAXI@Z 000000018004a040 f i mwsurf.obj
 0001:00049040       ??_E?$_Ref_count_resource@PEAUCvMat@@U?$DefaultDeleter@UCvMat@@@cv@@@std@@UEAAPEAXI@Z 000000018004a040 f i mwsurf.obj
 0001:00049080       ??_EFeature2D@cv@@UEAAPEAXI@Z 000000018004a080 f i mwsurf.obj
 0001:00049080       ??_GFeature2D@cv@@UEAAPEAXI@Z 000000018004a080 f i mwsurf.obj
 0001:000490d0       ??_EMWSURF@cv@@UEAAPEAXI@Z 000000018004a0d0 f i mwsurf.obj
 0001:000490d0       ??_GMWSURF@cv@@UEAAPEAXI@Z 000000018004a0d0 f i mwsurf.obj
 0001:00049120       ??_GMWSURFBuildInvoker@cv@@UEAAPEAXI@Z 000000018004a120 f i mwsurf.obj
 0001:00049120       ??_EMWSURFBuildInvoker@cv@@UEAAPEAXI@Z 000000018004a120 f i mwsurf.obj
 0001:00049160       ??_EMWSURFFindInvoker@cv@@UEAAPEAXI@Z 000000018004a160 f i mwsurf.obj
 0001:00049160       ??_GMWSURFFindInvoker@cv@@UEAAPEAXI@Z 000000018004a160 f i mwsurf.obj
 0001:000491a0       ??_GMWSURFInvoker@cv@@UEAAPEAXI@Z 000000018004a1a0 f i mwsurf.obj
 0001:000491a0       ??_EMWSURFInvoker@cv@@UEAAPEAXI@Z 000000018004a1a0 f i mwsurf.obj
 0001:000491e0       ??_GParallelLoopBody@cv@@UEAAPEAXI@Z 000000018004a1e0 f i mwsurf.obj
 0001:000491e0       ??_EParallelLoopBody@cv@@UEAAPEAXI@Z 000000018004a1e0 f i mwsurf.obj
 0001:00049220       ??_H@YAXPEAX_K1P6APEAX0@Z@Z 000000018004a220 f i mwsurf.obj
 0001:00049280       ?_Buy_nonzero@?$vector@HV?$allocator@H@std@@@std@@AEAAX_K@Z 000000018004a280 f i mwsurf.obj
 0001:000492c0       ?_Buy_nonzero@?$vector@VMat@cv@@V?$allocator@VMat@cv@@@std@@@std@@AEAAX_K@Z 000000018004a2c0 f i mwsurf.obj
 0001:00049300       ?_Buy_raw@?$vector@HV?$allocator@H@std@@@std@@AEAAX_K@Z 000000018004a300 f i mwsurf.obj
 0001:00049390       ?_Buy_raw@?$vector@VMat@cv@@V?$allocator@VMat@cv@@@std@@@std@@AEAAX_K@Z 000000018004a390 f i mwsurf.obj
 0001:00049430       ?_Calculate_growth@?$vector@MV?$allocator@M@std@@@std@@AEBA_K_K@Z 000000018004a430 f i mwsurf.obj
 0001:000494c0       ?_Calculate_growth@?$vector@V?$Point_@H@cv@@V?$allocator@V?$Point_@H@cv@@@std@@@std@@AEBA_K_K@Z 000000018004a4c0 f i mwsurf.obj
 0001:00049550       ?_Change_array@?$vector@MV?$allocator@M@std@@@std@@AEAAXQEAM_K1@Z 000000018004a550 f i mwsurf.obj
 0001:00049650       ?_Change_array@?$vector@V?$Point_@H@cv@@V?$allocator@V?$Point_@H@cv@@@std@@@std@@AEAAXQEAV?$Point_@H@cv@@_K1@Z 000000018004a650 f i mwsurf.obj
 0001:00049750       ?_Check_C_return@std@@YAHH@Z 000000018004a750 f i mwsurf.obj
 0001:00049780       ?_Decref@?$_Ptr_base@UCvMat@@@std@@IEAAXXZ 000000018004a780 f i mwsurf.obj
 0001:000497b0       ?_Delete_this@?$_Ref_count_resource@PEAUCvMat@@U?$DefaultDeleter@UCvMat@@@cv@@@std@@EEAAXXZ 000000018004a7b0 f i mwsurf.obj
 0001:00049800       ?_Destroy@?$_Ref_count_resource@PEAUCvMat@@U?$DefaultDeleter@UCvMat@@@cv@@@std@@EEAAXXZ 000000018004a800 f i mwsurf.obj
 0001:00049840       ?_Destroy@?$vector@HV?$allocator@H@std@@@std@@AEAAXPEAH0@Z 000000018004a840 f i mwsurf.obj
 0001:00049880       ?_Destroy@?$vector@MV?$allocator@M@std@@@std@@AEAAXPEAM0@Z 000000018004a880 f i mwsurf.obj
 0001:000498c0       ?_Destroy@?$vector@V?$Point_@H@cv@@V?$allocator@V?$Point_@H@cv@@@std@@@std@@AEAAXPEAV?$Point_@H@cv@@0@Z 000000018004a8c0 f i mwsurf.obj
 0001:00049900       ?_Destroy@?$vector@VMat@cv@@V?$allocator@VMat@cv@@@std@@@std@@AEAAXPEAVMat@cv@@0@Z 000000018004a900 f i mwsurf.obj
 0001:00049940       ?_Get_deleter@?$_Ref_count_resource@PEAUCvMat@@U?$DefaultDeleter@UCvMat@@@cv@@@std@@UEBAPEAXAEBVtype_info@@@Z 000000018004a940 f i mwsurf.obj
 0001:00049990       ?_Get_first@?$_Compressed_pair@U?$DefaultDeleter@UCvMat@@@cv@@PEAUCvMat@@$00@std@@QEAAAEAU?$DefaultDeleter@UCvMat@@@cv@@XZ 000000018004a990 f i mwsurf.obj
 0001:000499a0       ?_Get_first@?$_Compressed_pair@U?$DefaultDeleter@UCvMat@@@cv@@PEAUCvMat@@$00@std@@QEBAAEBU?$DefaultDeleter@UCvMat@@@cv@@XZ 000000018004a9a0 f i mwsurf.obj
 0001:000499b0       ?_Get_first@?$_Compressed_pair@V?$allocator@H@std@@V?$_Vector_val@U?$_Simple_types@H@std@@@2@$00@std@@QEAAAEAV?$allocator@H@2@XZ 000000018004a9b0 f i mwsurf.obj
 0001:000499c0       ?_Get_first@?$_Compressed_pair@V?$allocator@H@std@@V?$_Vector_val@U?$_Simple_types@H@std@@@2@$00@std@@QEBAAEBV?$allocator@H@2@XZ 000000018004a9c0 f i mwsurf.obj
 0001:000499d0       ?_Get_first@?$_Compressed_pair@V?$allocator@M@std@@V?$_Vector_val@U?$_Simple_types@M@std@@@2@$00@std@@QEAAAEAV?$allocator@M@2@XZ 000000018004a9d0 f i mwsurf.obj
 0001:000499e0       ?_Get_first@?$_Compressed_pair@V?$allocator@M@std@@V?$_Vector_val@U?$_Simple_types@M@std@@@2@$00@std@@QEBAAEBV?$allocator@M@2@XZ 000000018004a9e0 f i mwsurf.obj
 0001:000499f0       ?_Get_first@?$_Compressed_pair@V?$allocator@V?$Point_@H@cv@@@std@@V?$_Vector_val@U?$_Simple_types@V?$Point_@H@cv@@@std@@@2@$00@std@@QEAAAEAV?$allocator@V?$Point_@H@cv@@@2@XZ 000000018004a9f0 f i mwsurf.obj
 0001:00049a00       ?_Get_first@?$_Compressed_pair@V?$allocator@V?$Point_@H@cv@@@std@@V?$_Vector_val@U?$_Simple_types@V?$Point_@H@cv@@@std@@@2@$00@std@@QEBAAEBV?$allocator@V?$Point_@H@cv@@@2@XZ 000000018004aa00 f i mwsurf.obj
 0001:00049a10       ?_Get_first@?$_Compressed_pair@V?$allocator@VMat@cv@@@std@@V?$_Vector_val@U?$_Simple_types@VMat@cv@@@std@@@2@$00@std@@QEAAAEAV?$allocator@VMat@cv@@@2@XZ 000000018004aa10 f i mwsurf.obj
 0001:00049a20       ?_Get_first@?$_Compressed_pair@V?$allocator@VMat@cv@@@std@@V?$_Vector_val@U?$_Simple_types@VMat@cv@@@std@@@2@$00@std@@QEBAAEBV?$allocator@VMat@cv@@@2@XZ 000000018004aa20 f i mwsurf.obj
 0001:00049a30       ?_Getal@?$vector@HV?$allocator@H@std@@@std@@AEAAAEAV?$allocator@H@2@XZ 000000018004aa30 f i mwsurf.obj
 0001:00049a50       ?_Getal@?$vector@HV?$allocator@H@std@@@std@@AEBAAEBV?$allocator@H@2@XZ 000000018004aa50 f i mwsurf.obj
 0001:00049a70       ?_Getal@?$vector@MV?$allocator@M@std@@@std@@AEAAAEAV?$allocator@M@2@XZ 000000018004aa70 f i mwsurf.obj
 0001:00049a90       ?_Getal@?$vector@MV?$allocator@M@std@@@std@@AEBAAEBV?$allocator@M@2@XZ 000000018004aa90 f i mwsurf.obj
 0001:00049ab0       ?_Getal@?$vector@V?$Point_@H@cv@@V?$allocator@V?$Point_@H@cv@@@std@@@std@@AEAAAEAV?$allocator@V?$Point_@H@cv@@@2@XZ 000000018004aab0 f i mwsurf.obj
 0001:00049ad0       ?_Getal@?$vector@V?$Point_@H@cv@@V?$allocator@V?$Point_@H@cv@@@std@@@std@@AEBAAEBV?$allocator@V?$Point_@H@cv@@@2@XZ 000000018004aad0 f i mwsurf.obj
 0001:00049af0       ?_Getal@?$vector@VMat@cv@@V?$allocator@VMat@cv@@@std@@@std@@AEAAAEAV?$allocator@VMat@cv@@@2@XZ 000000018004aaf0 f i mwsurf.obj
 0001:00049b10       ?_Getal@?$vector@VMat@cv@@V?$allocator@VMat@cv@@@std@@@std@@AEBAAEBV?$allocator@VMat@cv@@@2@XZ 000000018004ab10 f i mwsurf.obj
 0001:00049b30       ?_Mymtx@_Mutex_base@std@@AEAAPEAU_Mtx_internal_imp_t@@XZ 000000018004ab30 f i mwsurf.obj
 0001:00049b40       ?_Orphan_range@?$vector@MV?$allocator@M@std@@@std@@AEBAXPEAM0@Z 000000018004ab40 f i mwsurf.obj
 0001:00049b50       ?_Orphan_range@?$vector@V?$Point_@H@cv@@V?$allocator@V?$Point_@H@cv@@@std@@@std@@AEBAXPEAV?$Point_@H@cv@@0@Z 000000018004ab50 f i mwsurf.obj
 0001:00049b60       ?_Release@?$_Uninitialized_backout_al@V?$allocator@V?$Point_@H@cv@@@std@@@std@@QEAAPEAV?$Point_@H@cv@@XZ 000000018004ab60 f i mwsurf.obj
 0001:00049b80       ?_Release@?$_Uninitialized_backout_al@V?$allocator@VMat@cv@@@std@@@std@@QEAAPEAVMat@cv@@XZ 000000018004ab80 f i mwsurf.obj
 0001:00049ba0       ?_Tidy@?$vector@HV?$allocator@H@std@@@std@@AEAAXXZ 000000018004aba0 f i mwsurf.obj
 0001:00049c70       ?_Tidy@?$vector@MV?$allocator@M@std@@@std@@AEAAXXZ 000000018004ac70 f i mwsurf.obj
 0001:00049d40       ?_Tidy@?$vector@V?$Point_@H@cv@@V?$allocator@V?$Point_@H@cv@@@std@@@std@@AEAAXXZ 000000018004ad40 f i mwsurf.obj
 0001:00049e10       ?_Tidy@?$vector@VMat@cv@@V?$allocator@VMat@cv@@@std@@@std@@AEAAXXZ 000000018004ae10 f i mwsurf.obj
 0001:00049ef0       ?_Ufill@?$vector@HV?$allocator@H@std@@@std@@AEAAPEAHPEAH_KU_Value_init_tag@2@@Z 000000018004aef0 f i mwsurf.obj
 0001:00049f30       ?_Ufill@?$vector@MV?$allocator@M@std@@@std@@AEAAPEAMPEAM_KU_Value_init_tag@2@@Z 000000018004af30 f i mwsurf.obj
 0001:00049f70       ?_Ufill@?$vector@V?$Point_@H@cv@@V?$allocator@V?$Point_@H@cv@@@std@@@std@@AEAAPEAV?$Point_@H@cv@@PEAV34@_KU_Value_init_tag@2@@Z 000000018004af70 f i mwsurf.obj
 0001:00049fb0       ?_Ufill@?$vector@VKeyPoint@cv@@V?$allocator@VKeyPoint@cv@@@std@@@std@@AEAAPEAVKeyPoint@cv@@PEAV34@_KU_Value_init_tag@2@@Z 000000018004afb0 f i mwsurf.obj
 0001:00049ff0       ?_Ufill@?$vector@VMat@cv@@V?$allocator@VMat@cv@@@std@@@std@@AEAAPEAVMat@cv@@PEAV34@_KU_Value_init_tag@2@@Z 000000018004aff0 f i mwsurf.obj
 0001:0004a030       ?_Umove_if_noexcept1@?$vector@MV?$allocator@M@std@@@std@@AEAAXPEAM00U?$integral_constant@_N$00@2@@Z 000000018004b030 f i mwsurf.obj
 0001:0004a070       ?_Umove_if_noexcept1@?$vector@V?$Point_@H@cv@@V?$allocator@V?$Point_@H@cv@@@std@@@std@@AEAAXPEAV?$Point_@H@cv@@00U?$integral_constant@_N$00@2@@Z 000000018004b070 f i mwsurf.obj
 0001:0004a0b0       ?_Umove_if_noexcept@?$vector@MV?$allocator@M@std@@@std@@AEAAXPEAM00@Z 000000018004b0b0 f i mwsurf.obj
 0001:0004a110       ?_Umove_if_noexcept@?$vector@V?$Point_@H@cv@@V?$allocator@V?$Point_@H@cv@@@std@@@std@@AEAAXPEAV?$Point_@H@cv@@00@Z 000000018004b110 f i mwsurf.obj
 0001:0004a170       ?_Unwrapped@?$_Vector_iterator@V?$_Vector_val@U?$_Simple_types@VKeyPoint@cv@@@std@@@std@@@std@@QEBAPEAVKeyPoint@cv@@XZ 000000018004b170 f i mwsurf.obj
 0001:0004a190       ?_Xlength@?$vector@HV?$allocator@H@std@@@std@@CAXXZ 000000018004b190 f i mwsurf.obj
 0001:0004a1b0       ?_Xlength@?$vector@MV?$allocator@M@std@@@std@@CAXXZ 000000018004b1b0 f i mwsurf.obj
 0001:0004a1d0       ?_Xlength@?$vector@V?$Point_@H@cv@@V?$allocator@V?$Point_@H@cv@@@std@@@std@@CAXXZ 000000018004b1d0 f i mwsurf.obj
 0001:0004a1f0       ?_Xlength@?$vector@VMat@cv@@V?$allocator@VMat@cv@@@std@@@std@@CAXXZ 000000018004b1f0 f i mwsurf.obj
 0001:0004a210       ?abs@@YAMM@Z               000000018004b210 f i mwsurf.obj
 0001:0004a230       ?all@?$Matx@M$02$00@cv@@SA?AV12@M@Z 000000018004b230 f i mwsurf.obj
 0001:0004a2c0       ?all@Range@cv@@SA?AV12@XZ  000000018004b2c0 f i mwsurf.obj
 0001:0004a2f0       ?allocate@?$allocator@H@std@@QEAAPEAH_K@Z 000000018004b2f0 f i mwsurf.obj
 0001:0004a320       ?allocate@?$allocator@M@std@@QEAAPEAM_K@Z 000000018004b320 f i mwsurf.obj
 0001:0004a350       ?allocate@?$allocator@V?$Point_@H@cv@@@std@@QEAAPEAV?$Point_@H@cv@@_K@Z 000000018004b350 f i mwsurf.obj
 0001:0004a380       ?allocate@?$allocator@VMat@cv@@@std@@QEAAPEAVMat@cv@@_K@Z 000000018004b380 f i mwsurf.obj
 0001:0004a3b0       ?begin@?$vector@VKeyPoint@cv@@V?$allocator@VKeyPoint@cv@@@std@@@std@@QEAA?AV?$_Vector_iterator@V?$_Vector_val@U?$_Simple_types@VKeyPoint@cv@@@std@@@std@@@2@XZ 000000018004b3b0 f i mwsurf.obj
 0001:0004a400       ?calcHaarPattern@cv@@YAMPEBHPEBUMWSurfHF@1@H@Z 000000018004b400 f i mwsurf.obj
 0001:0004a4e0       ?capacity@?$vector@MV?$allocator@M@std@@@std@@QEBA_KXZ 000000018004b4e0 f i mwsurf.obj
 0001:0004a510       ?capacity@?$vector@V?$Point_@H@cv@@V?$allocator@V?$Point_@H@cv@@@std@@@std@@QEBA_KXZ 000000018004b510 f i mwsurf.obj
 0001:0004a540       ?clear@?$vector@VKeyPoint@cv@@V?$allocator@VKeyPoint@cv@@@std@@@std@@QEAAXXZ 000000018004b540 f i mwsurf.obj
 0001:0004a5b0       ?clear@Algorithm@cv@@UEAAXXZ 000000018004b5b0 f i mwsurf.obj
 0001:0004a5c0       ?cos@@YAMM@Z               000000018004b5c0 f i mwsurf.obj
 0001:0004a5e0       ?create@Mat@cv@@QEAAXHHH@Z 000000018004b5e0 f i mwsurf.obj
 0001:0004a680       ?deallocate@?$allocator@H@std@@QEAAXQEAH_K@Z 000000018004b680 f i mwsurf.obj
 0001:0004a6b0       ?deallocate@?$allocator@M@std@@QEAAXQEAM_K@Z 000000018004b6b0 f i mwsurf.obj
 0001:0004a6e0       ?deallocate@?$allocator@V?$Point_@H@cv@@@std@@QEAAXQEAV?$Point_@H@cv@@_K@Z 000000018004b6e0 f i mwsurf.obj
 0001:0004a710       ?deallocate@?$allocator@VMat@cv@@@std@@QEAAXQEAVMat@cv@@_K@Z 000000018004b710 f i mwsurf.obj
 0001:0004a740       ?depth@Mat@cv@@QEBAHXZ     000000018004b740 f i mwsurf.obj
 0001:0004a750       ?elemSize@Mat@cv@@QEBA_KXZ 000000018004b750 f i mwsurf.obj
 0001:0004a7a0       ?empty@Feature2D@cv@@$4PPPPPPPM@A@EBA_NXZ 000000018004b7a0 f i mwsurf.obj
 0001:0004a7ac       ?empty@Feature2D@cv@@$4PPPPPPPM@BI@EBA_NXZ 000000018004b7ac f i mwsurf.obj
 0001:0004a7c0       ?empty@Mat@cv@@QEBA_NXZ    000000018004b7c0 f i mwsurf.obj
 0001:0004a810       ?end@?$vector@VKeyPoint@cv@@V?$allocator@VKeyPoint@cv@@@std@@@std@@QEAA?AV?$_Vector_iterator@V?$_Vector_val@U?$_Simple_types@VKeyPoint@cv@@@std@@@std@@@2@XZ 000000018004b810 f i mwsurf.obj
 0001:0004a860       ?fabs@@YAMM@Z              000000018004b860 f i mwsurf.obj
 0001:0004a880       ?get@?$_Ptr_base@UCvMat@@@std@@IEBAPEAUCvMat@@XZ 000000018004b880 f i mwsurf.obj
 0001:0004a890       ?getDefaultName@Feature2D@cv@@$4PPPPPPPM@A@EBA?AV?$basic_string@DU?$char_traits@D@std@@V?$allocator@D@2@@std@@XZ 000000018004b890 f i mwsurf.obj
 0001:0004a89c       ?getDefaultName@Feature2D@cv@@$4PPPPPPPM@BI@EBA?AV?$basic_string@DU?$char_traits@D@std@@V?$allocator@D@2@@std@@XZ 000000018004b89c f i mwsurf.obj
 0001:0004a8b0       ?getMat@_InputArray@cv@@QEBA?AVMat@2@H@Z 000000018004b8b0 f i mwsurf.obj
 0001:0004a940       ?init@_InputArray@cv@@IEAAXHPEBX@Z 000000018004b940 f i mwsurf.obj
 0001:0004a970       ?init@_InputArray@cv@@IEAAXHPEBXV?$Size_@H@2@@Z 000000018004b970 f i mwsurf.obj
 0001:0004a9c0       ?lock@_Mutex_base@std@@QEAAXXZ 000000018004b9c0 f i mwsurf.obj
 0001:0004a9f0       ?max_size@?$_Default_allocator_traits@V?$allocator@H@std@@@std@@SA_KAEBV?$allocator@H@2@@Z 000000018004b9f0 f i mwsurf.obj
 0001:0004aa00       ?max_size@?$_Default_allocator_traits@V?$allocator@M@std@@@std@@SA_KAEBV?$allocator@M@2@@Z 000000018004ba00 f i mwsurf.obj
 0001:0004aa10       ?max_size@?$_Default_allocator_traits@V?$allocator@V?$Point_@H@cv@@@std@@@std@@SA_KAEBV?$allocator@V?$Point_@H@cv@@@2@@Z 000000018004ba10 f i mwsurf.obj
 0001:0004aa20       ?max_size@?$_Default_allocator_traits@V?$allocator@VMat@cv@@@std@@@std@@SA_KAEBV?$allocator@VMat@cv@@@2@@Z 000000018004ba20 f i mwsurf.obj
 0001:0004aa30       ?max_size@?$vector@HV?$allocator@H@std@@@std@@QEBA_KXZ 000000018004ba30 f i mwsurf.obj
 0001:0004aa80       ?max_size@?$vector@MV?$allocator@M@std@@@std@@QEBA_KXZ 000000018004ba80 f i mwsurf.obj
 0001:0004aad0       ?max_size@?$vector@V?$Point_@H@cv@@V?$allocator@V?$Point_@H@cv@@@std@@@std@@QEBA_KXZ 000000018004bad0 f i mwsurf.obj
 0001:0004ab20       ?max_size@?$vector@VMat@cv@@V?$allocator@VMat@cv@@@std@@@std@@QEBA_KXZ 000000018004bb20 f i mwsurf.obj
 0001:0004ab70       ?ptr@Mat@cv@@QEAAPEAEH@Z   000000018004bb70 f i mwsurf.obj
 0001:0004aba4       ?read@Feature2D@cv@@$4PPPPPPPM@A@EAAXAEBVFileNode@2@@Z 000000018004bba4 f i mwsurf.obj
 0001:0004abb0       ?read@Feature2D@cv@@$4PPPPPPPM@BI@EAAXAEBVFileNode@2@@Z 000000018004bbb0 f i mwsurf.obj
 0001:0004abc0       ?resize@?$vector@MV?$allocator@M@std@@@std@@QEAAX_K@Z 000000018004bbc0 f i mwsurf.obj
 0001:0004abf0       ?resize@?$vector@V?$Point_@H@cv@@V?$allocator@V?$Point_@H@cv@@@std@@@std@@QEAAX_K@Z 000000018004bbf0 f i mwsurf.obj
 0001:0004ac20       ?resize@?$vector@VKeyPoint@cv@@V?$allocator@VKeyPoint@cv@@@std@@@std@@QEAAX_K@Z 000000018004bc20 f i mwsurf.obj
 0001:0004ac50       ?rowRange@Mat@cv@@QEBA?AV12@HH@Z 000000018004bc50 f i mwsurf.obj
 0001:0004acd0       ?sin@@YAMM@Z               000000018004bcd0 f i mwsurf.obj
 0001:0004acf0       ?solve@?$Matx@M$02$02@cv@@QEBA?AV?$Vec@M$02@2@AEBV32@H@Z 000000018004bcf0 f i mwsurf.obj
 0001:0004ad60       ?type@Mat@cv@@QEBAHXZ      000000018004bd60 f i mwsurf.obj
 0001:0004ad80       ?unlock@_Mutex_base@std@@QEAAXXZ 000000018004bd80 f i mwsurf.obj
 0001:0004ada0       ?write@Feature2D@cv@@$4PPPPPPPM@A@EBAXAEAVFileStorage@2@@Z 000000018004bda0 f i mwsurf.obj
 0001:0004adac       ?write@Feature2D@cv@@$4PPPPPPPM@BI@EBAXAEAVFileStorage@2@@Z 000000018004bdac f i mwsurf.obj
 0001:0004adc0       ?zeros@?$Matx@M$02$00@cv@@SA?AV12@XZ 000000018004bdc0 f i mwsurf.obj
 0001:0004ade0       fabsf                      000000018004bde0 f i mwsurf.obj
 0001:0004ae00       fastHessianDetector_uint8  000000018004be00 f   fastHessianDetectorCore.obj
 0001:0004b040       fastHessianDetector_keyPoints2field 000000018004c040 f   fastHessianDetectorCore.obj
 0001:0004b1a0       fastHessianDetector_keyPoints2fieldRM 000000018004c1a0 f   fastHessianDetectorCore.obj
 0001:0004b300       fastHessianDetector_deleteKeypoint 000000018004c300 f   fastHessianDetectorCore.obj
 0001:0004b350       ?limitNumOctavesCore@@YAHH_K0@Z 000000018004c350 f   fastHessianDetectorCore.obj
 0001:0004b420       ?configureSURFDetectorCore@@YAXU?$Ptr@VMWSURF@cv@@@cv@@HHH_K1@Z 000000018004c420 f   fastHessianDetectorCore.obj
 0001:0004b510       ??$_Copy_construct_from@VMWSURF@cv@@@?$_Ptr_base@VMWSURF@cv@@@std@@IEAAXAEBV?$shared_ptr@VMWSURF@cv@@@1@@Z 000000018004c510 f i fastHessianDetectorCore.obj
 0001:0004b550       ??0?$Ptr@VMWSURF@cv@@@cv@@QEAA@AEBU01@@Z 000000018004c550 f i fastHessianDetectorCore.obj
 0001:0004b580       ??0?$shared_ptr@VMWSURF@cv@@@std@@QEAA@AEBV01@@Z 000000018004c580 f i fastHessianDetectorCore.obj
 0001:0004b5c0       ?_Incref@?$_Ptr_base@VMWSURF@cv@@@std@@IEBAXXZ 000000018004c5c0 f i fastHessianDetectorCore.obj
 0001:0004b5f0       ?_Incref@_Ref_count_base@std@@QEAAXXZ 000000018004c5f0 f i fastHessianDetectorCore.obj
 0001:0004b610       getBitfieldFromFloat       000000018004c610 f   half_type.obj
 0001:0004b640       getFloatFromBitfield       000000018004c640 f   half_type.obj
 0001:0004b670       getBitfieldFromHalf        000000018004c670 f   half_type.obj
 0001:0004b690       getHalfFromBitfield        000000018004c690 f   half_type.obj
 0001:0004b6c0       halfToFloat                000000018004c6c0 f   half_type.obj
 0001:0004b770       halfToDouble               000000018004c770 f   half_type.obj
 0001:0004b7a0       floatToHalf                000000018004c7a0 f   half_type.obj
 0001:0004ba00       doubleToHalf               000000018004ca00 f   half_type.obj
 0001:0004bced       rgb2gray_tbb_uint8         000000018004cced f   libmwrgb2gray_tbb:libmwrgb2gray_tbb.dll
 0001:0004bcf3       jpegreader_uint8           000000018004ccf3 f   libmwjpegreader:libmwjpegreader.dll
 0001:0004bcf9       ComputeMetric_ssd_single   000000018004ccf9 f   libmwComputeMetric:libmwComputeMetric.dll
 0001:0004bcff       ?fastFree@cv@@YAXPEAX@Z    000000018004ccff f   opencv_core420:opencv_core420.dll
 0001:0004bd05       ?error@cv@@YAXHAEBV?$basic_string@DU?$char_traits@D@std@@V?$allocator@D@2@@std@@PEBD1H@Z 000000018004cd05 f   opencv_core420:opencv_core420.dll
 0001:0004bd0b       ?deallocate@Mat@cv@@QEAAXXZ 000000018004cd0b f   opencv_core420:opencv_core420.dll
 0001:0004bd11       ?copySize@Mat@cv@@QEAAXAEBV12@@Z 000000018004cd11 f   opencv_core420:opencv_core420.dll
 0001:0004bd17       ?updateContinuityFlag@Mat@cv@@QEAAXXZ 000000018004cd17 f   opencv_core420:opencv_core420.dll
 0001:0004bd1d       ?fastAtan2@cv@@YAMMM@Z     000000018004cd1d f   opencv_core420:opencv_core420.dll
 0001:0004bd23       ?getMat_@_InputArray@cv@@QEBA?AVMat@2@H@Z 000000018004cd23 f   opencv_core420:opencv_core420.dll
 0001:0004bd29       ?kind@_InputArray@cv@@QEBA?AW4KindFlag@12@XZ 000000018004cd29 f   opencv_core420:opencv_core420.dll
 0001:0004bd2f       ?type@_InputArray@cv@@QEBAHH@Z 000000018004cd2f f   opencv_core420:opencv_core420.dll
 0001:0004bd35       ?needed@_OutputArray@cv@@QEBA_NXZ 000000018004cd35 f   opencv_core420:opencv_core420.dll
 0001:0004bd3b       ?create@_OutputArray@cv@@QEBAXHHHH_NW4DepthMask@12@@Z 000000018004cd3b f   opencv_core420:opencv_core420.dll
 0001:0004bd41       ?noArray@cv@@YAAEBV_InputOutputArray@1@XZ 000000018004cd41 f   opencv_core420:opencv_core420.dll
 0001:0004bd47       ??0Mat@cv@@QEAA@AEBV01@AEBVRange@1@1@Z 000000018004cd47 f   opencv_core420:opencv_core420.dll
 0001:0004bd4d       ?copyTo@Mat@cv@@QEBAXAEBV_OutputArray@2@@Z 000000018004cd4d f   opencv_core420:opencv_core420.dll
 0001:0004bd53       ?reshape@Mat@cv@@QEBA?AV12@HH@Z 000000018004cd53 f   opencv_core420:opencv_core420.dll
 0001:0004bd59       ?create@Mat@cv@@QEAAXHPEBHH@Z 000000018004cd59 f   opencv_core420:opencv_core420.dll
 0001:0004bd5f       ?min@cv@@YAXAEBV_InputArray@1@0AEBV_OutputArray@1@@Z 000000018004cd5f f   opencv_core420:opencv_core420.dll
 0001:0004bd65       ??0Algorithm@cv@@QEAA@XZ   000000018004cd65 f   opencv_core420:opencv_core420.dll
 0001:0004bd6b       ??1Algorithm@cv@@UEAA@XZ   000000018004cd6b f   opencv_core420:opencv_core420.dll
 0001:0004bd71       ?save@Algorithm@cv@@UEBAXAEBV?$basic_string@DU?$char_traits@D@std@@V?$allocator@D@2@@std@@@Z 000000018004cd71 f   opencv_core420:opencv_core420.dll
 0001:0004bd77       ??1ParallelLoopBody@cv@@UEAA@XZ 000000018004cd77 f   opencv_core420:opencv_core420.dll
 0001:0004bd7d       ?parallel_for_@cv@@YAXAEBVRange@1@AEBVParallelLoopBody@1@N@Z 000000018004cd7d f   opencv_core420:opencv_core420.dll
 0001:0004bd83       cvCreateMat                000000018004cd83 f   opencv_core420:opencv_core420.dll
 0001:0004bd89       cvCartToPolar              000000018004cd89 f   opencv_core420:opencv_core420.dll
 0001:0004bd8f       ??R?$DefaultDeleter@UCvMat@@@cv@@QEBAXPEAUCvMat@@@Z 000000018004cd8f f   opencv_core420:opencv_core420.dll
 0001:0004bd95       ?getGaussianKernel@cv@@YA?AVMat@1@HNH@Z 000000018004cd95 f   opencv_imgproc420:opencv_imgproc420.dll
 0001:0004bd9b       ?resize@cv@@YAXAEBV_InputArray@1@AEBV_OutputArray@1@V?$Size_@H@1@NNH@Z 000000018004cd9b f   opencv_imgproc420:opencv_imgproc420.dll
 0001:0004bda1       ?integral@cv@@YAXAEBV_InputArray@1@AEBV_OutputArray@1@H@Z 000000018004cda1 f   opencv_imgproc420:opencv_imgproc420.dll
 0001:0004bda7       ?cvtColor@cv@@YAXAEBV_InputArray@1@AEBV_OutputArray@1@HH@Z 000000018004cda7 f   opencv_imgproc420:opencv_imgproc420.dll
 0001:0004bdad       ??1Feature2D@cv@@UEAA@XZ   000000018004cdad f   opencv_features2d420:opencv_features2d420.dll
 0001:0004bdb3       ?detect@Feature2D@cv@@UEAAXAEBV_InputArray@2@AEAV?$vector@VKeyPoint@cv@@V?$allocator@VKeyPoint@cv@@@std@@@std@@0@Z 000000018004cdb3 f   opencv_features2d420:opencv_features2d420.dll
 0001:0004bdb9       ?detect@Feature2D@cv@@UEAAXAEBV_InputArray@2@AEAV?$vector@V?$vector@VKeyPoint@cv@@V?$allocator@VKeyPoint@cv@@@std@@@std@@V?$allocator@V?$vector@VKeyPoint@cv@@V?$allocator@VKeyPoint@cv@@@std@@@std@@@2@@std@@0@Z 000000018004cdb9 f   opencv_features2d420:opencv_features2d420.dll
 0001:0004bdbf       ?compute@Feature2D@cv@@UEAAXAEBV_InputArray@2@AEAV?$vector@VKeyPoint@cv@@V?$allocator@VKeyPoint@cv@@@std@@@std@@AEBV_OutputArray@2@@Z 000000018004cdbf f   opencv_features2d420:opencv_features2d420.dll
 0001:0004bdc5       ?compute@Feature2D@cv@@UEAAXAEBV_InputArray@2@AEAV?$vector@V?$vector@VKeyPoint@cv@@V?$allocator@VKeyPoint@cv@@@std@@@std@@V?$allocator@V?$vector@VKeyPoint@cv@@V?$allocator@VKeyPoint@cv@@@std@@@std@@@2@@std@@AEBV_OutputArray@2@@Z 000000018004cdc5 f   opencv_features2d420:opencv_features2d420.dll
 0001:0004bdcb       ?detectAndCompute@Feature2D@cv@@UEAAXAEBV_InputArray@2@0AEAV?$vector@VKeyPoint@cv@@V?$allocator@VKeyPoint@cv@@@std@@@std@@AEBV_OutputArray@2@_N@Z 000000018004cdcb f   opencv_features2d420:opencv_features2d420.dll
 0001:0004bdd1       ?descriptorSize@Feature2D@cv@@UEBAHXZ 000000018004cdd1 f   opencv_features2d420:opencv_features2d420.dll
 0001:0004bdd7       ?descriptorType@Feature2D@cv@@UEBAHXZ 000000018004cdd7 f   opencv_features2d420:opencv_features2d420.dll
 0001:0004bddd       ?defaultNorm@Feature2D@cv@@UEBAHXZ 000000018004cddd f   opencv_features2d420:opencv_features2d420.dll
 0001:0004bde3       ?write@Feature2D@cv@@UEBAXAEAVFileStorage@2@@Z 000000018004cde3 f   opencv_features2d420:opencv_features2d420.dll
 0001:0004bde9       ?read@Feature2D@cv@@UEAAXAEBVFileNode@2@@Z 000000018004cde9 f   opencv_features2d420:opencv_features2d420.dll
 0001:0004bdef       ?empty@Feature2D@cv@@UEBA_NXZ 000000018004cdef f   opencv_features2d420:opencv_features2d420.dll
 0001:0004bdf5       ?getDefaultName@Feature2D@cv@@UEBA?AV?$basic_string@DU?$char_traits@D@std@@V?$allocator@D@2@@std@@XZ 000000018004cdf5 f   opencv_features2d420:opencv_features2d420.dll
 0001:0004bdfb       sf_load_rtw_optimization_info 000000018004cdfb f   sf_runtime:sf_runtime.dll
 0001:0004be01       sf_mex_decode              000000018004ce01 f   sf_runtime:sf_runtime.dll
 0001:0004be07       sf_init_ChartRunTimeInfo   000000018004ce07 f   sf_runtime:sf_runtime.dll
 0001:0004be0d       sf_free_ChartRunTimeInfo   000000018004ce0d f   sf_runtime:sf_runtime.dll
 0001:0004be13       sfrtGetEmlrtCtx            000000018004ce13 f   sf_runtime:sf_runtime.dll
 0001:0004be19       sfrtGetCovrtInstance       000000018004ce19 f   sf_runtime:sf_runtime.dll
 0001:0004be1f       sf_get_chart_instance_ptr  000000018004ce1f f   sf_runtime:sf_runtime.dll
 0001:0004be25       sim_mode_is_rtw_gen        000000018004ce25 f   sf_runtime:sf_runtime.dll
 0001:0004be2b       sim_mode_is_external       000000018004ce2b f   sf_runtime:sf_runtime.dll
 0001:0004be31       sf_clear_rtw_identifier    000000018004ce31 f   sf_runtime:sf_runtime.dll
 0001:0004be37       sf_get_time                000000018004ce37 f   sf_runtime:sf_runtime.dll
 0001:0004be3d       sfDoAnimationWrapper       000000018004ce3d f   sf_runtime:sf_runtime.dll
 0001:0004be43       setDataBrowseFcn           000000018004ce43 f   sf_runtime:sf_runtime.dll
 0001:0004be49       setLegacyDebuggerFlag      000000018004ce49 f   sf_runtime:sf_runtime.dll
 0001:0004be4f       setDebuggerFlag            000000018004ce4f f   sf_runtime:sf_runtime.dll
 0001:0004be55       sf_warn_if_symbolic_dimension_param_changed 000000018004ce55 f   sf_runtime:sf_runtime.dll
 0001:0004be5b       sf_set_work_widths         000000018004ce5b f   sf_runtime:sf_runtime.dll
 0001:0004be61       sfListenerCacheSimStruct   000000018004ce61 f   sf_runtime:sf_runtime.dll
 0001:0004be67       sfListenerLightTerminate   000000018004ce67 f   sf_runtime:sf_runtime.dll
 0001:0004be6d       sfListenerInitializeRuntimeVars 000000018004ce6d f   sf_runtime:sf_runtime.dll
 0001:0004be73       sf_mex_call                000000018004ce73 f   sf_runtime:sf_runtime.dll
 0001:0004be79       sf_mex_error_message       000000018004ce79 f   sf_runtime:sf_runtime.dll
 0001:0004be7f       sf_mex_create              000000018004ce7f f   sf_runtime:sf_runtime.dll
 0001:0004be85       sf_mex_createcellmatrix    000000018004ce85 f   sf_runtime:sf_runtime.dll
 0001:0004be8b       sf_mex_setcell             000000018004ce8b f   sf_runtime:sf_runtime.dll
 0001:0004be91       sf_mex_getcell             000000018004ce91 f   sf_runtime:sf_runtime.dll
 0001:0004be97       sf_mex_assign              000000018004ce97 f   sf_runtime:sf_runtime.dll
 0001:0004be9d       sf_mex_dup                 000000018004ce9d f   sf_runtime:sf_runtime.dll
 0001:0004bea3       sf_mex_destroy             000000018004cea3 f   sf_runtime:sf_runtime.dll
 0001:0004bea9       sf_mex_import              000000018004cea9 f   sf_runtime:sf_runtime.dll
 0001:0004beaf       ssGetInputPortSignal_wrapper 000000018004ceaf f   sf_runtime:sf_runtime.dll
 0001:0004beb5       ssGetOutputPortSignal_wrapper 000000018004ceb5 f   sf_runtime:sf_runtime.dll
 0001:0004bebb       sf_data_saturate_error     000000018004cebb f   sf_runtime:sf_runtime.dll
 0001:0004bec1       sf_get_ChartInfoStruct_CodeGen 000000018004cec1 f   sf_runtime:sf_runtime.dll
 0001:0004bec7       sf_get_hasSeparateUpdateOutputs 000000018004cec7 f   sf_runtime:sf_runtime.dll
 0001:0004becd       callMdlMethodAndReportError 000000018004cecd f   sf_runtime:sf_runtime.dll
 0001:0004bed3       call_sf_machine_global_method_dispatcher 000000018004ced3 f   sf_runtime:sf_runtime.dll
 0001:0004bed9       getRuntimeInstanceInfoAsVoid 000000018004ced9 f   sf_runtime:sf_runtime.dll
 0001:0004bedf       sf_mex_error_direct_call   000000018004cedf f   sf_runtime:sf_runtime.dll
 0001:0004bee5       sf_clear_error_manager_info 000000018004cee5 f   sf_runtime:sf_runtime.dll
 0001:0004beeb       mxIsChar_800               000000018004ceeb f   libmx:libmx.dll
 0001:0004bef1       mxGetScalar_800            000000018004cef1 f   libmx:libmx.dll
 0001:0004bef7       mxGetPr_800                000000018004cef7 f   libmx:libmx.dll
 0001:0004befd       mxDestroyArray_800         000000018004cefd f   libmx:libmx.dll
 0001:0004bf03       mxCreateDoubleMatrix_800   000000018004cf03 f   libmx:libmx.dll
 0001:0004bf09       mxGetString_800            000000018004cf09 f   libmx:libmx.dll
 0001:0004bf0f       mxDuplicateArray_800       000000018004cf0f f   libmx:libmx.dll
 0001:0004bf15       mxSetCell_800              000000018004cf15 f   libmx:libmx.dll
 0001:0004bf1b       mxSetField_800             000000018004cf1b f   libmx:libmx.dll
 0001:0004bf21       mxCreateString_800         000000018004cf21 f   libmx:libmx.dll
 0001:0004bf27       mxCreateCellMatrix_800     000000018004cf27 f   libmx:libmx.dll
 0001:0004bf2d       mxCreateStructMatrix_800   000000018004cf2d f   libmx:libmx.dll
 0001:0004bf33       mxGetInf_800               000000018004cf33 f   libmx:libmx.dll
 0001:0004bf39       mxGetNaN_800               000000018004cf39 f   libmx:libmx.dll
 0001:0004bf3f       mxCalloc_800               000000018004cf3f f   libmx:libmx.dll
 0001:0004bf45       mxGetM_800                 000000018004cf45 f   libmx:libmx.dll
 0001:0004bf4b       mxGetClassID_800           000000018004cf4b f   libmx:libmx.dll
 0001:0004bf51       mxIsNumeric_800            000000018004cf51 f   libmx:libmx.dll
 0001:0004bf57       mxIsComplex_800            000000018004cf57 f   libmx:libmx.dll
 0001:0004bf5d       mxGetN_800                 000000018004cf5d f   libmx:libmx.dll
 0001:0004bf63       mxCreateDoubleScalar_800   000000018004cf63 f   libmx:libmx.dll
 0001:0004bf69       mexMakeArrayPersistent_800 000000018004cf69 f   libmex:libmex.dll
 0001:0004bf6f       mexErrMsgTxt_800           000000018004cf6f f   libmex:libmex.dll
 0001:0004bf75       mexWarnMsgTxt_800          000000018004cf75 f   libmex:libmex.dll
 0001:0004bf7b       mexCallMATLAB_800          000000018004cf7b f   libmex:libmex.dll
 0001:0004bf81       mexLock_800                000000018004cf81 f   libmex:libmex.dll
 0001:0004bf87       mexUnlock_800              000000018004cf87 f   libmex:libmex.dll
 0001:0004bf8d       mexIsLocked_800            000000018004cf8d f   libmex:libmex.dll
 0001:0004bf93       utMalloc                   000000018004cf93 f   libut:libut.dll
 0001:0004bf99       utFree                     000000018004cf99 f   libut:libut.dll
 0001:0004bf9f       muDoubleScalarFloor        000000018004cf9f f   libmwmathutil:libmwmathutil.dll
 0001:0004bfa5       muDoubleScalarRound        000000018004cfa5 f   libmwmathutil:libmwmathutil.dll
 0001:0004bfab       muDoubleScalarLog          000000018004cfab f   libmwmathutil:libmwmathutil.dll
 0001:0004bfb1       muSingleScalarRound        000000018004cfb1 f   libmwmathutil:libmwmathutil.dll
 0001:0004bfb7       muSingleScalarSqrt         000000018004cfb7 f   libmwmathutil:libmwmathutil.dll
 0001:0004bfbd       muSingleScalarIsNaN        000000018004cfbd f   libmwmathutil:libmwmathutil.dll
 0001:0004bfc3       muSingleScalarIsInf        000000018004cfc3 f   libmwmathutil:libmwmathutil.dll
 0001:0004bfc9       emlrtLicenseCheckR2012b    000000018004cfc9 f   libemlrt:libemlrt.dll
 0001:0004bfcf       emlrtDynamicBoundsCheckR2012b 000000018004cfcf f   libemlrt:libemlrt.dll
 0001:0004bfd5       emlrtSizeMulR2012b         000000018004cfd5 f   libemlrt:libemlrt.dll
 0001:0004bfdb       emlrtNonNegativeCheckR2012b 000000018004cfdb f   libemlrt:libemlrt.dll
 0001:0004bfe1       emlrtMallocMex             000000018004cfe1 f   libemlrt:libemlrt.dll
 0001:0004bfe7       emlrtCallocMex             000000018004cfe7 f   libemlrt:libemlrt.dll
 0001:0004bfed       emlrtFreeMex               000000018004cfed f   libemlrt:libemlrt.dll
 0001:0004bff3       emlrtHeapAllocationErrorR2012b 000000018004cff3 f   libemlrt:libemlrt.dll
 0001:0004bff9       emlrtSubAssignSizeCheckR2012b 000000018004cff9 f   libemlrt:libemlrt.dll
 0001:0004bfff       emlrtSubAssignSizeCheck1dR2017a 000000018004cfff f   libemlrt:libemlrt.dll
 0001:0004c005       covrtCreateStateflowInstanceData 000000018004d005 f   libcovrt:libcovrt.dll
 0001:0004c00b       covrtDeleteStateflowInstanceData 000000018004d00b f   libcovrt:libcovrt.dll
 0001:0004c011       covrtTransInitFcn          000000018004d011 f   libcovrt:libcovrt.dll
 0001:0004c017       covrtStateInitFcn          000000018004d017 f   libcovrt:libcovrt.dll
 0001:0004c01d       covrtChartInitFcn          000000018004d01d f   libcovrt:libcovrt.dll
 0001:0004c023       covrtSigUpdateFcn          000000018004d023 f   libcovrt:libcovrt.dll
 0001:0004c029       covrtEmlInitFcn            000000018004d029 f   libcovrt:libcovrt.dll
 0001:0004c02f       covrtEmlFcnInitFcn         000000018004d02f f   libcovrt:libcovrt.dll
 0001:0004c035       covrtEmlFcnEval            000000018004d035 f   libcovrt:libcovrt.dll
 0001:0004c03c       __raise_securityfailure    000000018004d03c f   MSVCRT:gs_report.obj
 0001:0004c070       __report_gsfailure         000000018004d070 f   MSVCRT:gs_report.obj
 0001:0004c144       __report_rangecheckfailure 000000018004d144 f   MSVCRT:gs_report.obj
 0001:0004c158       __report_securityfailure   000000018004d158 f   MSVCRT:gs_report.obj
 0001:0004c1f4       __report_securityfailureEx 000000018004d1f4 f   MSVCRT:gs_report.obj
 0001:0004c3e8       __GSHandlerCheck           000000018004d3e8 f   MSVCRT:gshandler.obj
 0001:0004c408       __GSHandlerCheckCommon     000000018004d408 f   MSVCRT:gshandler.obj
 0001:0004c480       __security_check_cookie    000000018004d480 f   MSVCRT:amdsecgs.obj
 0001:0004c4c0       _alloca_probe              000000018004d4c0 f   MSVCRT:chkstk.obj
 0001:0004c4c0       __chkstk                   000000018004d4c0 f   MSVCRT:chkstk.obj
 0001:0004c514       ??1type_info@@UEAA@XZ      000000018004d514 f   MSVCRT:std_type_info_static.obj
 0001:0004c520       ??_Etype_info@@UEAAPEAXI@Z 000000018004d520 f i MSVCRT:std_type_info_static.obj
 0001:0004c520       ??_Gtype_info@@UEAAPEAXI@Z 000000018004d520 f i MSVCRT:std_type_info_static.obj
 0001:0004c54c       ??2@YAPEAX_K@Z             000000018004d54c f   MSVCRT:new_scalar.obj
 0001:0004c588       ??3@YAXPEAX_K@Z            000000018004d588 f   MSVCRT:delete_scalar_size.obj
 0001:0004c590       ?configure_argv@__scrt_narrow_argv_policy@@SAHXZ 000000018004d590 f i MSVCRT:utility.obj
 0001:0004c5f0       ?initialize_environment@__scrt_narrow_environment_policy@@SAHXZ 000000018004d5f0 f i MSVCRT:utility.obj
 0001:0004c628       NtCurrentTeb               000000018004d628 f i MSVCRT:utility.obj
 0001:0004c634       __scrt_acquire_startup_lock 000000018004d634 f   MSVCRT:utility.obj
 0001:0004c670       __scrt_dllmain_after_initialize_c 000000018004d670 f   MSVCRT:utility.obj
 0001:0004c6a4       __scrt_dllmain_before_initialize_c 000000018004d6a4 f   MSVCRT:utility.obj
 0001:0004c6bc       __scrt_dllmain_crt_thread_attach 000000018004d6bc f   MSVCRT:utility.obj
 0001:0004c6e4       __scrt_dllmain_crt_thread_detach 000000018004d6e4 f   MSVCRT:utility.obj
 0001:0004c6fc       __scrt_dllmain_exception_filter 000000018004d6fc f   MSVCRT:utility.obj
 0001:0004c75c       __scrt_dllmain_uninitialize_c 000000018004d75c f   MSVCRT:utility.obj
 0001:0004c78c       __scrt_dllmain_uninitialize_critical 000000018004d78c f   MSVCRT:utility.obj
 0001:0004c7a0       __scrt_initialize_crt      000000018004d7a0 f   MSVCRT:utility.obj
 0001:0004c7ec       __scrt_initialize_onexit_tables 000000018004d7ec f   MSVCRT:utility.obj
 0001:0004c878       __scrt_is_nonwritable_in_current_image 000000018004d878 f   MSVCRT:utility.obj
 0001:0004c910       __scrt_release_startup_lock 000000018004d910 f   MSVCRT:utility.obj
 0001:0004c934       __scrt_uninitialize_crt    000000018004d934 f   MSVCRT:utility.obj
 0001:0004c960       _onexit                    000000018004d960 f   MSVCRT:utility.obj
 0001:0004c99c       at_quick_exit              000000018004d99c f   MSVCRT:utility.obj
 0001:0004c9bc       atexit                     000000018004d9bc f   MSVCRT:utility.obj
 0001:0004c9d4       __GSHandlerCheck_EH4       000000018004d9d4 f   MSVCRT:gshandlereh4.obj
 0001:0004cd90       _CRT_INIT                  000000018004dd90 f   MSVCRT:dll_dllmain.obj
 0001:0004cd98       _DllMainCRTStartup         000000018004dd98 f   MSVCRT:dll_dllmain.obj
 0001:0004cdd8       ??0bad_alloc@std@@QEAA@XZ  000000018004ddd8 f i MSVCRT:throw_bad_alloc.obj
 0001:0004cdf8       ?__scrt_throw_std_bad_alloc@@YAXXZ 000000018004ddf8 f   MSVCRT:throw_bad_alloc.obj
 0001:0004ce18       ?__scrt_throw_std_bad_array_new_length@@YAXXZ 000000018004de18 f   MSVCRT:throw_bad_alloc.obj
 0001:0004ce38       ??3@YAXPEAX@Z              000000018004de38 f   MSVCRT:delete_scalar.obj
 0001:0004ce40       __isa_available_init       000000018004de40 f   MSVCRT:cpu_disp.obj
 0001:0004cfe4       _get_startup_argv_mode     000000018004dfe4 f   MSVCRT:argv_mode.obj
 0001:0004cfec       __scrt_is_ucrt_dll_in_use  000000018004dfec f   MSVCRT:ucrt_detection.obj
 0001:0004cff8       __crt_debugger_hook        000000018004dff8 f   MSVCRT:utility_desktop.obj
 0001:0004d000       __scrt_fastfail            000000018004e000 f   MSVCRT:utility_desktop.obj
 0001:0004d14c       __scrt_get_show_window_mode 000000018004e14c f   MSVCRT:utility_desktop.obj
 0001:0004d188       __scrt_initialize_mta      000000018004e188 f   MSVCRT:utility_desktop.obj
 0001:0004d190       __scrt_initialize_winrt    000000018004e190 f   MSVCRT:utility_desktop.obj
 0001:0004d194       __scrt_is_managed_app      000000018004e194 f   MSVCRT:utility_desktop.obj
 0001:0004d1e8       __scrt_set_unhandled_exception_filter 000000018004e1e8 f   MSVCRT:utility_desktop.obj
 0001:0004d1f8       __scrt_exe_initialize_mta  000000018004e1f8 f   MSVCRT:utility_desktop.obj
 0001:0004d1f8       __scrt_stub_for_initialize_mta 000000018004e1f8 f   MSVCRT:utility_desktop.obj
 0001:0004d1fc       __scrt_unhandled_exception_filter 000000018004e1fc f   MSVCRT:utility_desktop.obj
 0001:0004d258       _guard_check_icall_nop     000000018004e258 f i MSVCRT:guard_support.obj
 0001:0004d25c       ReadNoFence64              000000018004e25c f i MSVCRT:guard_support.obj
 0001:0004d260       ReadPointerNoFence         000000018004e260 f i MSVCRT:guard_support.obj
 0001:0004d264       __castguard_check_failure_debugbreak 000000018004e264 f i MSVCRT:guard_support.obj
 0001:0004d280       __castguard_check_failure_fastfail 000000018004e280 f i MSVCRT:guard_support.obj
 0001:0004d2a4       __castguard_check_failure_nop 000000018004e2a4 f i MSVCRT:guard_support.obj
 0001:0004d2a8       __castguard_check_failure_os_handled 000000018004e2a8 f i MSVCRT:guard_support.obj
 0001:0004d308       __castguard_slow_path_check_debugbreak 000000018004e308 f i MSVCRT:guard_support.obj
 0001:0004d33c       __castguard_slow_path_check_fastfail 000000018004e33c f i MSVCRT:guard_support.obj
 0001:0004d378       __castguard_slow_path_check_nop 000000018004e378 f i MSVCRT:guard_support.obj
 0001:0004d37c       __castguard_slow_path_check_os_handled 000000018004e37c f i MSVCRT:guard_support.obj
 0001:0004d3f0       _guard_icall_checks_enforced 000000018004e3f0 f i MSVCRT:guard_support.obj
 0001:0004d408       _guard_rf_checks_enforced  000000018004e408 f i MSVCRT:guard_support.obj
 0001:0004d478       __security_init_cookie     000000018004e478 f   MSVCRT:gs_support.obj
 0001:0004d524       DllMain                    000000018004e524 f   MSVCRT:dll_dllmain_stub.obj
 0001:0004d548       ?__scrt_initialize_type_info@@YAXXZ 000000018004e548 f   MSVCRT:tncleanup.obj
 0001:0004d558       ?__scrt_uninitialize_type_info@@YAXXZ 000000018004e558 f   MSVCRT:tncleanup.obj
 0001:0004d564       __local_stdio_scanf_options 000000018004e564 f i MSVCRT:default_local_stdio_options.obj
 0001:0004d56c       __scrt_initialize_default_local_stdio_options 000000018004e56c f   MSVCRT:default_local_stdio_options.obj
 0001:0004d588       __scrt_get_dyn_tls_init_callback 000000018004e588 f   MSVCRT:dyn_tls_init.obj
 0001:0004d590       _RTC_Initialize            000000018004e590 f   MSVCRT:initsect.obj
 0001:0004d5cc       _RTC_Terminate             000000018004e5cc f   MSVCRT:initsect.obj
 0001:0004d610       ?_Xbad_alloc@std@@YAXXZ    000000018004e610 f   msvcprt:MSVCP140.dll
 0001:0004d616       ?_Xlength_error@std@@YAXPEBD@Z 000000018004e616 f   msvcprt:MSVCP140.dll
 0001:0004d61c       ?uncaught_exception@std@@YA_NXZ 000000018004e61c f   msvcprt:MSVCP140.dll
 0001:0004d622       _Mbrtowc                   000000018004e622 f   msvcprt:MSVCP140.dll
 0001:0004d628       ?_Getcvt@_Locinfo@std@@QEBA?AU_Cvtvec@@XZ 000000018004e628 f   msvcprt:MSVCP140.dll
 0001:0004d62e       ?_Getdays@_Locinfo@std@@QEBAPEBDXZ 000000018004e62e f   msvcprt:MSVCP140.dll
 0001:0004d634       ?_Getmonths@_Locinfo@std@@QEBAPEBDXZ 000000018004e634 f   msvcprt:MSVCP140.dll
 0001:0004d63a       ?_W_Getdays@_Locinfo@std@@QEBAPEBGXZ 000000018004e63a f   msvcprt:MSVCP140.dll
 0001:0004d640       ?_W_Getmonths@_Locinfo@std@@QEBAPEBGXZ 000000018004e640 f   msvcprt:MSVCP140.dll
 0001:0004d646       ?good@ios_base@std@@QEBA_NXZ 000000018004e646 f   msvcprt:MSVCP140.dll
 0001:0004d64c       ?flags@ios_base@std@@QEBAHXZ 000000018004e64c f   msvcprt:MSVCP140.dll
 0001:0004d652       ?width@ios_base@std@@QEBA_JXZ 000000018004e652 f   msvcprt:MSVCP140.dll
 0001:0004d658       ?width@ios_base@std@@QEAA_J_J@Z 000000018004e658 f   msvcprt:MSVCP140.dll
 0001:0004d65e       ?sputc@?$basic_streambuf@DU?$char_traits@D@std@@@std@@QEAAHD@Z 000000018004e65e f   msvcprt:MSVCP140.dll
 0001:0004d664       ?sputn@?$basic_streambuf@DU?$char_traits@D@std@@@std@@QEAA_JPEBD_J@Z 000000018004e664 f   msvcprt:MSVCP140.dll
 0001:0004d66a       ?setstate@?$basic_ios@DU?$char_traits@D@std@@@std@@QEAAXH_N@Z 000000018004e66a f   msvcprt:MSVCP140.dll
 0001:0004d670       ?tie@?$basic_ios@DU?$char_traits@D@std@@@std@@QEBAPEAV?$basic_ostream@DU?$char_traits@D@std@@@2@XZ 000000018004e670 f   msvcprt:MSVCP140.dll
 0001:0004d676       ?rdbuf@?$basic_ios@DU?$char_traits@D@std@@@std@@QEBAPEAV?$basic_streambuf@DU?$char_traits@D@std@@@2@XZ 000000018004e676 f   msvcprt:MSVCP140.dll
 0001:0004d67c       ?fill@?$basic_ios@DU?$char_traits@D@std@@@std@@QEBADXZ 000000018004e67c f   msvcprt:MSVCP140.dll
 0001:0004d682       ?_Osfx@?$basic_ostream@DU?$char_traits@D@std@@@std@@QEAAXXZ 000000018004e682 f   msvcprt:MSVCP140.dll
 0001:0004d688       ??6?$basic_ostream@DU?$char_traits@D@std@@@std@@QEAAAEAV01@_N@Z 000000018004e688 f   msvcprt:MSVCP140.dll
 0001:0004d68e       ??6?$basic_ostream@DU?$char_traits@D@std@@@std@@QEAAAEAV01@H@Z 000000018004e68e f   msvcprt:MSVCP140.dll
 0001:0004d694       ??6?$basic_ostream@DU?$char_traits@D@std@@@std@@QEAAAEAV01@I@Z 000000018004e694 f   msvcprt:MSVCP140.dll
 0001:0004d69a       ??6?$basic_ostream@DU?$char_traits@D@std@@@std@@QEAAAEAV01@M@Z 000000018004e69a f   msvcprt:MSVCP140.dll
 0001:0004d6a0       ?flush@?$basic_ostream@DU?$char_traits@D@std@@@std@@QEAAAEAV12@XZ 000000018004e6a0 f   msvcprt:MSVCP140.dll
 0001:0004d6a6       _Mtx_init_in_situ          000000018004e6a6 f   msvcprt:MSVCP140.dll
 0001:0004d6ac       _Mtx_destroy_in_situ       000000018004e6ac f   msvcprt:MSVCP140.dll
 0001:0004d6b2       _Mtx_lock                  000000018004e6b2 f   msvcprt:MSVCP140.dll
 0001:0004d6b8       _Mtx_unlock                000000018004e6b8 f   msvcprt:MSVCP140.dll
 0001:0004d6be       ?_Throw_C_error@std@@YAXH@Z 000000018004e6be f   msvcprt:MSVCP140.dll
 0001:0004d6c4       RtlCaptureContext          000000018004e6c4 f   kernel32:KERNEL32.dll
 0001:0004d6ca       RtlLookupFunctionEntry     000000018004e6ca f   kernel32:KERNEL32.dll
 0001:0004d6d0       RtlVirtualUnwind           000000018004e6d0 f   kernel32:KERNEL32.dll
 0001:0004d6d6       UnhandledExceptionFilter   000000018004e6d6 f   kernel32:KERNEL32.dll
 0001:0004d6dc       SetUnhandledExceptionFilter 000000018004e6dc f   kernel32:KERNEL32.dll
 0001:0004d6e2       GetCurrentProcess          000000018004e6e2 f   kernel32:KERNEL32.dll
 0001:0004d6e8       TerminateProcess           000000018004e6e8 f   kernel32:KERNEL32.dll
 0001:0004d6ee       IsProcessorFeaturePresent  000000018004e6ee f   kernel32:KERNEL32.dll
 0001:0004d6f4       IsDebuggerPresent          000000018004e6f4 f   kernel32:KERNEL32.dll
 0001:0004d6fa       GetStartupInfoW            000000018004e6fa f   kernel32:KERNEL32.dll
 0001:0004d700       GetModuleHandleW           000000018004e700 f   kernel32:KERNEL32.dll
 0001:0004d706       QueryPerformanceCounter    000000018004e706 f   kernel32:KERNEL32.dll
 0001:0004d70c       GetCurrentProcessId        000000018004e70c f   kernel32:KERNEL32.dll
 0001:0004d712       GetCurrentThreadId         000000018004e712 f   kernel32:KERNEL32.dll
 0001:0004d718       GetSystemTimeAsFileTime    000000018004e718 f   kernel32:KERNEL32.dll
 0001:0004d71e       DisableThreadLibraryCalls  000000018004e71e f   kernel32:KERNEL32.dll
 0001:0004d724       InitializeSListHead        000000018004e724 f   kernel32:KERNEL32.dll
 0001:0004d72a       memcpy                     000000018004e72a f   vcruntime:VCRUNTIME140.dll
 0001:0004d730       memset                     000000018004e730 f   vcruntime:VCRUNTIME140.dll
 0001:0004d736       _purecall                  000000018004e736 f   vcruntime:VCRUNTIME140.dll
 0001:0004d73c       memmove                    000000018004e73c f   vcruntime:VCRUNTIME140.dll
 0001:0004d742       __std_exception_copy       000000018004e742 f   vcruntime:VCRUNTIME140.dll
 0001:0004d748       __std_exception_destroy    000000018004e748 f   vcruntime:VCRUNTIME140.dll
 0001:0004d74e       _CxxThrowException         000000018004e74e f   vcruntime:VCRUNTIME140.dll
 0001:0004d754       __CxxFrameHandler4         000000018004e754 f   vcruntime:VCRUNTIME140_1.dll
 0001:0004d75a       __std_type_info_compare    000000018004e75a f   vcruntime:VCRUNTIME140.dll
 0001:0004d760       __C_specific_handler       000000018004e760 f   vcruntime:VCRUNTIME140.dll
 0001:0004d766       __current_exception        000000018004e766 f   vcruntime:VCRUNTIME140.dll
 0001:0004d76c       __current_exception_context 000000018004e76c f   vcruntime:VCRUNTIME140.dll
 0001:0004d772       __std_type_info_destroy_list 000000018004e772 f   vcruntime:VCRUNTIME140.dll
 0001:0004d778       strcmp                     000000018004e778 f   ucrt:api-ms-win-crt-string-l1-1-0.dll
 0001:0004d77e       strcat                     000000018004e77e f   ucrt:api-ms-win-crt-string-l1-1-0.dll
 0001:0004d784       frexp                      000000018004e784 f   ucrt:api-ms-win-crt-math-l1-1-0.dll
 0001:0004d78a       __stdio_common_vsprintf    000000018004e78a f   ucrt:api-ms-win-crt-stdio-l1-1-0.dll
 0001:0004d790       free                       000000018004e790 f   ucrt:api-ms-win-crt-heap-l1-1-0.dll
 0001:0004d796       malloc                     000000018004e796 f   ucrt:api-ms-win-crt-heap-l1-1-0.dll
 0001:0004d79c       strlen                     000000018004e79c f   ucrt:api-ms-win-crt-string-l1-1-0.dll
 0001:0004d7a2       _invalid_parameter_noinfo_noreturn 000000018004e7a2 f   ucrt:api-ms-win-crt-runtime-l1-1-0.dll
 0001:0004d7a8       calloc                     000000018004e7a8 f   ucrt:api-ms-win-crt-heap-l1-1-0.dll
 0001:0004d7ae       wcslen                     000000018004e7ae f   ucrt:api-ms-win-crt-string-l1-1-0.dll
 0001:0004d7b4       abs                        000000018004e7b4 f   ucrt:api-ms-win-crt-utility-l1-1-0.dll
 0001:0004d7ba       fabs                       000000018004e7ba f   ucrt:api-ms-win-crt-math-l1-1-0.dll
 0001:0004d7c0       sqrt                       000000018004e7c0 f   ucrt:api-ms-win-crt-math-l1-1-0.dll
 0001:0004d7c6       cosf                       000000018004e7c6 f   ucrt:api-ms-win-crt-math-l1-1-0.dll
 0001:0004d7cc       sinf                       000000018004e7cc f   ucrt:api-ms-win-crt-math-l1-1-0.dll
 0001:0004d7d2       _wassert                   000000018004e7d2 f   ucrt:api-ms-win-crt-runtime-l1-1-0.dll
 0001:0004d7d8       _callnewh                  000000018004e7d8 f   ucrt:api-ms-win-crt-heap-l1-1-0.dll
 0001:0004d7de       _seh_filter_dll            000000018004e7de f   ucrt:api-ms-win-crt-runtime-l1-1-0.dll
 0001:0004d7e4       _configure_narrow_argv     000000018004e7e4 f   ucrt:api-ms-win-crt-runtime-l1-1-0.dll
 0001:0004d7ea       _initialize_narrow_environment 000000018004e7ea f   ucrt:api-ms-win-crt-runtime-l1-1-0.dll
 0001:0004d7f0       _initialize_onexit_table   000000018004e7f0 f   ucrt:api-ms-win-crt-runtime-l1-1-0.dll
 0001:0004d7f6       _register_onexit_function  000000018004e7f6 f   ucrt:api-ms-win-crt-runtime-l1-1-0.dll
 0001:0004d7fc       _execute_onexit_table      000000018004e7fc f   ucrt:api-ms-win-crt-runtime-l1-1-0.dll
 0001:0004d802       _crt_atexit                000000018004e802 f   ucrt:api-ms-win-crt-runtime-l1-1-0.dll
 0001:0004d808       _crt_at_quick_exit         000000018004e808 f   ucrt:api-ms-win-crt-runtime-l1-1-0.dll
 0001:0004d80e       _cexit                     000000018004e80e f   ucrt:api-ms-win-crt-runtime-l1-1-0.dll
 0001:0004d814       _initterm                  000000018004e814 f   ucrt:api-ms-win-crt-runtime-l1-1-0.dll
 0001:0004d81a       _initterm_e                000000018004e81a f   ucrt:api-ms-win-crt-runtime-l1-1-0.dll
 0001:0004d820       terminate                  000000018004e820 f   ucrt:api-ms-win-crt-runtime-l1-1-0.dll
 0001:0004d828       __acrt_initialize          000000018004e828 f   MSVCRT:ucrt_stubs.obj
 0001:0004d828       __scrt_stub_for_acrt_initialize 000000018004e828 f   MSVCRT:ucrt_stubs.obj
 0001:0004d828       __vcrt_initialize          000000018004e828 f   MSVCRT:ucrt_stubs.obj
 0001:0004d82c       __acrt_thread_attach       000000018004e82c f   MSVCRT:ucrt_stubs.obj
 0001:0004d82c       __vcrt_thread_attach       000000018004e82c f   MSVCRT:ucrt_stubs.obj
 0001:0004d82c       __scrt_stub_for_acrt_thread_attach 000000018004e82c f   MSVCRT:ucrt_stubs.obj
 0001:0004d830       __acrt_thread_detach       000000018004e830 f   MSVCRT:ucrt_stubs.obj
 0001:0004d830       __scrt_stub_for_acrt_thread_detach 000000018004e830 f   MSVCRT:ucrt_stubs.obj
 0001:0004d830       __vcrt_thread_detach       000000018004e830 f   MSVCRT:ucrt_stubs.obj
 0001:0004d834       __vcrt_uninitialize        000000018004e834 f   MSVCRT:ucrt_stubs.obj
 0001:0004d834       __acrt_uninitialize        000000018004e834 f   MSVCRT:ucrt_stubs.obj
 0001:0004d834       __scrt_stub_for_acrt_uninitialize 000000018004e834 f   MSVCRT:ucrt_stubs.obj
 0001:0004d838       __scrt_stub_for_acrt_uninitialize_critical 000000018004e838 f   MSVCRT:ucrt_stubs.obj
 0001:0004d838       __vcrt_uninitialize_critical 000000018004e838 f   MSVCRT:ucrt_stubs.obj
 0001:0004d838       __acrt_uninitialize_critical 000000018004e838 f   MSVCRT:ucrt_stubs.obj
 0001:0004d83c       __scrt_stub_for_is_c_termination_complete 000000018004e83c f   MSVCRT:ucrt_stubs.obj
 0001:0004d83c       _is_c_termination_complete 000000018004e83c f   MSVCRT:ucrt_stubs.obj
 0001:0004d850       _guard_dispatch_icall_nop  000000018004e850 f   MSVCRT:guard_dispatch.obj
 0001:0004d870       _guard_xfg_dispatch_icall_nop 000000018004e870 f   MSVCRT:guard_xfg_dispatch.obj
 0002:00000000       __imp_RtlVirtualUnwind     0000000180050000     kernel32:KERNEL32.dll
 0002:00000008       __imp_InitializeSListHead  0000000180050008     kernel32:KERNEL32.dll
 0002:00000010       __imp_DisableThreadLibraryCalls 0000000180050010     kernel32:KERNEL32.dll
 0002:00000018       __imp_GetSystemTimeAsFileTime 0000000180050018     kernel32:KERNEL32.dll
 0002:00000020       __imp_GetCurrentThreadId   0000000180050020     kernel32:KERNEL32.dll
 0002:00000028       __imp_GetCurrentProcessId  0000000180050028     kernel32:KERNEL32.dll
 0002:00000030       __imp_QueryPerformanceCounter 0000000180050030     kernel32:KERNEL32.dll
 0002:00000038       __imp_GetModuleHandleW     0000000180050038     kernel32:KERNEL32.dll
 0002:00000040       __imp_GetStartupInfoW      0000000180050040     kernel32:KERNEL32.dll
 0002:00000048       __imp_IsDebuggerPresent    0000000180050048     kernel32:KERNEL32.dll
 0002:00000050       __imp_IsProcessorFeaturePresent 0000000180050050     kernel32:KERNEL32.dll
 0002:00000058       __imp_TerminateProcess     0000000180050058     kernel32:KERNEL32.dll
 0002:00000060       __imp_GetCurrentProcess    0000000180050060     kernel32:KERNEL32.dll
 0002:00000068       __imp_SetUnhandledExceptionFilter 0000000180050068     kernel32:KERNEL32.dll
 0002:00000070       __imp_UnhandledExceptionFilter 0000000180050070     kernel32:KERNEL32.dll
 0002:00000078       __imp_RtlLookupFunctionEntry 0000000180050078     kernel32:KERNEL32.dll
 0002:00000080       __imp_RtlCaptureContext    0000000180050080     kernel32:KERNEL32.dll
 0002:00000088       \177KERNEL32_NULL_THUNK_DATA 0000000180050088     kernel32:KERNEL32.dll
 0002:00000090       __imp_?fill@?$basic_ios@DU?$char_traits@D@std@@@std@@QEBADXZ 0000000180050090     msvcprt:MSVCP140.dll
 0002:00000098       __imp_?_Osfx@?$basic_ostream@DU?$char_traits@D@std@@@std@@QEAAXXZ 0000000180050098     msvcprt:MSVCP140.dll
 0002:000000a0       __imp_??6?$basic_ostream@DU?$char_traits@D@std@@@std@@QEAAAEAV01@_N@Z 00000001800500a0     msvcprt:MSVCP140.dll
 0002:000000a8       __imp_??6?$basic_ostream@DU?$char_traits@D@std@@@std@@QEAAAEAV01@H@Z 00000001800500a8     msvcprt:MSVCP140.dll
 0002:000000b0       __imp_??6?$basic_ostream@DU?$char_traits@D@std@@@std@@QEAAAEAV01@I@Z 00000001800500b0     msvcprt:MSVCP140.dll
 0002:000000b8       __imp_?rdbuf@?$basic_ios@DU?$char_traits@D@std@@@std@@QEBAPEAV?$basic_streambuf@DU?$char_traits@D@std@@@2@XZ 00000001800500b8     msvcprt:MSVCP140.dll
 0002:000000c0       __imp_?flush@?$basic_ostream@DU?$char_traits@D@std@@@std@@QEAAAEAV12@XZ 00000001800500c0     msvcprt:MSVCP140.dll
 0002:000000c8       __imp__Mtx_init_in_situ    00000001800500c8     msvcprt:MSVCP140.dll
 0002:000000d0       __imp__Mtx_destroy_in_situ 00000001800500d0     msvcprt:MSVCP140.dll
 0002:000000d8       __imp__Mtx_lock            00000001800500d8     msvcprt:MSVCP140.dll
 0002:000000e0       __imp__Mtx_unlock          00000001800500e0     msvcprt:MSVCP140.dll
 0002:000000e8       __imp_?_Throw_C_error@std@@YAXH@Z 00000001800500e8     msvcprt:MSVCP140.dll
 0002:000000f0       __imp_?tie@?$basic_ios@DU?$char_traits@D@std@@@std@@QEBAPEAV?$basic_ostream@DU?$char_traits@D@std@@@2@XZ 00000001800500f0     msvcprt:MSVCP140.dll
 0002:000000f8       __imp_?setstate@?$basic_ios@DU?$char_traits@D@std@@@std@@QEAAXH_N@Z 00000001800500f8     msvcprt:MSVCP140.dll
 0002:00000100       __imp_?sputn@?$basic_streambuf@DU?$char_traits@D@std@@@std@@QEAA_JPEBD_J@Z 0000000180050100     msvcprt:MSVCP140.dll
 0002:00000108       __imp_?sputc@?$basic_streambuf@DU?$char_traits@D@std@@@std@@QEAAHD@Z 0000000180050108     msvcprt:MSVCP140.dll
 0002:00000110       __imp_?width@ios_base@std@@QEAA_J_J@Z 0000000180050110     msvcprt:MSVCP140.dll
 0002:00000118       __imp_?width@ios_base@std@@QEBA_JXZ 0000000180050118     msvcprt:MSVCP140.dll
 0002:00000120       __imp_?flags@ios_base@std@@QEBAHXZ 0000000180050120     msvcprt:MSVCP140.dll
 0002:00000128       __imp_?good@ios_base@std@@QEBA_NXZ 0000000180050128     msvcprt:MSVCP140.dll
 0002:00000130       __imp_?_W_Getmonths@_Locinfo@std@@QEBAPEBGXZ 0000000180050130     msvcprt:MSVCP140.dll
 0002:00000138       __imp_?_W_Getdays@_Locinfo@std@@QEBAPEBGXZ 0000000180050138     msvcprt:MSVCP140.dll
 0002:00000140       __imp_?_Getmonths@_Locinfo@std@@QEBAPEBDXZ 0000000180050140     msvcprt:MSVCP140.dll
 0002:00000148       __imp__Mbrtowc             0000000180050148     msvcprt:MSVCP140.dll
 0002:00000150       __imp_?uncaught_exception@std@@YA_NXZ 0000000180050150     msvcprt:MSVCP140.dll
 0002:00000158       __imp_?_Xlength_error@std@@YAXPEBD@Z 0000000180050158     msvcprt:MSVCP140.dll
 0002:00000160       __imp_?_Xbad_alloc@std@@YAXXZ 0000000180050160     msvcprt:MSVCP140.dll
 0002:00000168       __imp_?_Getdays@_Locinfo@std@@QEBAPEBDXZ 0000000180050168     msvcprt:MSVCP140.dll
 0002:00000170       __imp_??6?$basic_ostream@DU?$char_traits@D@std@@@std@@QEAAAEAV01@M@Z 0000000180050170     msvcprt:MSVCP140.dll
 0002:00000178       __imp_?_Getcvt@_Locinfo@std@@QEBA?AU_Cvtvec@@XZ 0000000180050178     msvcprt:MSVCP140.dll
 0002:00000180       \177MSVCP140_NULL_THUNK_DATA 0000000180050180     msvcprt:MSVCP140.dll
 0002:00000188       __imp__CxxThrowException   0000000180050188     vcruntime:VCRUNTIME140.dll
 0002:00000190       __imp_memmove              0000000180050190     vcruntime:VCRUNTIME140.dll
 0002:00000198       __imp__purecall            0000000180050198     vcruntime:VCRUNTIME140.dll
 0002:000001a0       __imp_memset               00000001800501a0     vcruntime:VCRUNTIME140.dll
 0002:000001a8       __imp_memcpy               00000001800501a8     vcruntime:VCRUNTIME140.dll
 0002:000001b0       __imp___std_exception_copy 00000001800501b0     vcruntime:VCRUNTIME140.dll
 0002:000001b8       __imp___std_type_info_compare 00000001800501b8     vcruntime:VCRUNTIME140.dll
 0002:000001c0       __imp___C_specific_handler 00000001800501c0     vcruntime:VCRUNTIME140.dll
 0002:000001c8       __imp___current_exception  00000001800501c8     vcruntime:VCRUNTIME140.dll
 0002:000001d0       __imp___current_exception_context 00000001800501d0     vcruntime:VCRUNTIME140.dll
 0002:000001d8       __imp___std_type_info_destroy_list 00000001800501d8     vcruntime:VCRUNTIME140.dll
 0002:000001e0       __imp___std_exception_destroy 00000001800501e0     vcruntime:VCRUNTIME140.dll
 0002:000001e8       \177VCRUNTIME140_NULL_THUNK_DATA 00000001800501e8     vcruntime:VCRUNTIME140.dll
 0002:000001f0       __imp___CxxFrameHandler4   00000001800501f0     vcruntime:VCRUNTIME140_1.dll
 0002:000001f8       \177VCRUNTIME140_1_NULL_THUNK_DATA 00000001800501f8     vcruntime:VCRUNTIME140_1.dll
 0002:00000200       __imp__callnewh            0000000180050200     ucrt:api-ms-win-crt-heap-l1-1-0.dll
 0002:00000208       __imp_calloc               0000000180050208     ucrt:api-ms-win-crt-heap-l1-1-0.dll
 0002:00000210       __imp_free                 0000000180050210     ucrt:api-ms-win-crt-heap-l1-1-0.dll
 0002:00000218       __imp_malloc               0000000180050218     ucrt:api-ms-win-crt-heap-l1-1-0.dll
 0002:00000220       \177api-ms-win-crt-heap-l1-1-0_NULL_THUNK_DATA 0000000180050220     ucrt:api-ms-win-crt-heap-l1-1-0.dll
 0002:00000228       __imp_sqrt                 0000000180050228     ucrt:api-ms-win-crt-math-l1-1-0.dll
 0002:00000230       __imp_fabs                 0000000180050230     ucrt:api-ms-win-crt-math-l1-1-0.dll
 0002:00000238       __imp_frexp                0000000180050238     ucrt:api-ms-win-crt-math-l1-1-0.dll
 0002:00000240       __imp_cosf                 0000000180050240     ucrt:api-ms-win-crt-math-l1-1-0.dll
 0002:00000248       __imp_sinf                 0000000180050248     ucrt:api-ms-win-crt-math-l1-1-0.dll
 0002:00000250       \177api-ms-win-crt-math-l1-1-0_NULL_THUNK_DATA 0000000180050250     ucrt:api-ms-win-crt-math-l1-1-0.dll
 0002:00000258       __imp__invalid_parameter_noinfo_noreturn 0000000180050258     ucrt:api-ms-win-crt-runtime-l1-1-0.dll
 0002:00000260       __imp_terminate            0000000180050260     ucrt:api-ms-win-crt-runtime-l1-1-0.dll
 0002:00000268       __imp__initterm            0000000180050268     ucrt:api-ms-win-crt-runtime-l1-1-0.dll
 0002:00000270       __imp__initterm_e          0000000180050270     ucrt:api-ms-win-crt-runtime-l1-1-0.dll
 0002:00000278       __imp__wassert             0000000180050278     ucrt:api-ms-win-crt-runtime-l1-1-0.dll
 0002:00000280       __imp__cexit               0000000180050280     ucrt:api-ms-win-crt-runtime-l1-1-0.dll
 0002:00000288       __imp__seh_filter_dll      0000000180050288     ucrt:api-ms-win-crt-runtime-l1-1-0.dll
 0002:00000290       __imp__configure_narrow_argv 0000000180050290     ucrt:api-ms-win-crt-runtime-l1-1-0.dll
 0002:00000298       __imp__crt_at_quick_exit   0000000180050298     ucrt:api-ms-win-crt-runtime-l1-1-0.dll
 0002:000002a0       __imp__initialize_onexit_table 00000001800502a0     ucrt:api-ms-win-crt-runtime-l1-1-0.dll
 0002:000002a8       __imp__register_onexit_function 00000001800502a8     ucrt:api-ms-win-crt-runtime-l1-1-0.dll
 0002:000002b0       __imp__execute_onexit_table 00000001800502b0     ucrt:api-ms-win-crt-runtime-l1-1-0.dll
 0002:000002b8       __imp__crt_atexit          00000001800502b8     ucrt:api-ms-win-crt-runtime-l1-1-0.dll
 0002:000002c0       __imp__initialize_narrow_environment 00000001800502c0     ucrt:api-ms-win-crt-runtime-l1-1-0.dll
 0002:000002c8       \177api-ms-win-crt-runtime-l1-1-0_NULL_THUNK_DATA 00000001800502c8     ucrt:api-ms-win-crt-runtime-l1-1-0.dll
 0002:000002d0       __imp___stdio_common_vsprintf 00000001800502d0     ucrt:api-ms-win-crt-stdio-l1-1-0.dll
 0002:000002d8       \177api-ms-win-crt-stdio-l1-1-0_NULL_THUNK_DATA 00000001800502d8     ucrt:api-ms-win-crt-stdio-l1-1-0.dll
 0002:000002e0       __imp_strcat               00000001800502e0     ucrt:api-ms-win-crt-string-l1-1-0.dll
 0002:000002e8       __imp_strcmp               00000001800502e8     ucrt:api-ms-win-crt-string-l1-1-0.dll
 0002:000002f0       __imp_strlen               00000001800502f0     ucrt:api-ms-win-crt-string-l1-1-0.dll
 0002:000002f8       __imp_wcslen               00000001800502f8     ucrt:api-ms-win-crt-string-l1-1-0.dll
 0002:00000300       \177api-ms-win-crt-string-l1-1-0_NULL_THUNK_DATA 0000000180050300     ucrt:api-ms-win-crt-string-l1-1-0.dll
 0002:00000308       __imp_abs                  0000000180050308     ucrt:api-ms-win-crt-utility-l1-1-0.dll
 0002:00000310       \177api-ms-win-crt-utility-l1-1-0_NULL_THUNK_DATA 0000000180050310     ucrt:api-ms-win-crt-utility-l1-1-0.dll
 0002:00000318       __imp_covrtEmlInitFcn      0000000180050318     libcovrt:libcovrt.dll
 0002:00000320       __imp_covrtDeleteStateflowInstanceData 0000000180050320     libcovrt:libcovrt.dll
 0002:00000328       __imp_covrtTransInitFcn    0000000180050328     libcovrt:libcovrt.dll
 0002:00000330       __imp_covrtStateInitFcn    0000000180050330     libcovrt:libcovrt.dll
 0002:00000338       __imp_covrtChartInitFcn    0000000180050338     libcovrt:libcovrt.dll
 0002:00000340       __imp_covrtEmlFcnEval      0000000180050340     libcovrt:libcovrt.dll
 0002:00000348       __imp_covrtEmlFcnInitFcn   0000000180050348     libcovrt:libcovrt.dll
 0002:00000350       __imp_covrtCreateStateflowInstanceData 0000000180050350     libcovrt:libcovrt.dll
 0002:00000358       __imp_covrtSigUpdateFcn    0000000180050358     libcovrt:libcovrt.dll
 0002:00000360       \177libcovrt_NULL_THUNK_DATA 0000000180050360     libcovrt:libcovrt.dll
 0002:00000368       __imp_emlrtNonNegativeCheckR2012b 0000000180050368     libemlrt:libemlrt.dll
 0002:00000370       __imp_emlrtMallocMex       0000000180050370     libemlrt:libemlrt.dll
 0002:00000378       __imp_emlrtCallocMex       0000000180050378     libemlrt:libemlrt.dll
 0002:00000380       __imp_emlrtSizeMulR2012b   0000000180050380     libemlrt:libemlrt.dll
 0002:00000388       __imp_emlrtFreeMex         0000000180050388     libemlrt:libemlrt.dll
 0002:00000390       __imp_emlrtLicenseCheckR2012b 0000000180050390     libemlrt:libemlrt.dll
 0002:00000398       __imp_emlrtHeapAllocationErrorR2012b 0000000180050398     libemlrt:libemlrt.dll
 0002:000003a0       __imp_emlrtSubAssignSizeCheckR2012b 00000001800503a0     libemlrt:libemlrt.dll
 0002:000003a8       __imp_emlrtSubAssignSizeCheck1dR2017a 00000001800503a8     libemlrt:libemlrt.dll
 0002:000003b0       __imp_emlrtDynamicBoundsCheckR2012b 00000001800503b0     libemlrt:libemlrt.dll
 0002:000003b8       \177libemlrt_NULL_THUNK_DATA 00000001800503b8     libemlrt:libemlrt.dll
 0002:000003c0       __imp_mexLock_800          00000001800503c0     libmex:libmex.dll
 0002:000003c8       __imp_mexCallMATLAB_800    00000001800503c8     libmex:libmex.dll
 0002:000003d0       __imp_mexWarnMsgTxt_800    00000001800503d0     libmex:libmex.dll
 0002:000003d8       __imp_mexErrMsgTxt_800     00000001800503d8     libmex:libmex.dll
 0002:000003e0       __imp_mexMakeArrayPersistent_800 00000001800503e0     libmex:libmex.dll
 0002:000003e8       __imp_mexIsLocked_800      00000001800503e8     libmex:libmex.dll
 0002:000003f0       __imp_mexUnlock_800        00000001800503f0     libmex:libmex.dll
 0002:000003f8       \177libmex_NULL_THUNK_DATA 00000001800503f8     libmex:libmex.dll
 0002:00000400       __imp_ComputeMetric_ssd_single 0000000180050400     libmwComputeMetric:libmwComputeMetric.dll
 0002:00000408       \177libmwComputeMetric_NULL_THUNK_DATA 0000000180050408     libmwComputeMetric:libmwComputeMetric.dll
 0002:00000410       __imp_jpegreader_uint8     0000000180050410     libmwjpegreader:libmwjpegreader.dll
 0002:00000418       \177libmwjpegreader_NULL_THUNK_DATA 0000000180050418     libmwjpegreader:libmwjpegreader.dll
 0002:00000420       __imp_muDoubleScalarFloor  0000000180050420     libmwmathutil:libmwmathutil.dll
 0002:00000428       __imp_muSingleScalarRound  0000000180050428     libmwmathutil:libmwmathutil.dll
 0002:00000430       __imp_muSingleScalarSqrt   0000000180050430     libmwmathutil:libmwmathutil.dll
 0002:00000438       __imp_muSingleScalarIsInf  0000000180050438     libmwmathutil:libmwmathutil.dll
 0002:00000440       __imp_muDoubleScalarRound  0000000180050440     libmwmathutil:libmwmathutil.dll
 0002:00000448       __imp_muSingleScalarIsNaN  0000000180050448     libmwmathutil:libmwmathutil.dll
 0002:00000450       __imp_muDoubleScalarLog    0000000180050450     libmwmathutil:libmwmathutil.dll
 0002:00000458       \177libmwmathutil_NULL_THUNK_DATA 0000000180050458     libmwmathutil:libmwmathutil.dll
 0002:00000460       __imp_rgb2gray_tbb_uint8   0000000180050460     libmwrgb2gray_tbb:libmwrgb2gray_tbb.dll
 0002:00000468       \177libmwrgb2gray_tbb_NULL_THUNK_DATA 0000000180050468     libmwrgb2gray_tbb:libmwrgb2gray_tbb.dll
 0002:00000470       __imp_mxIsChar_800         0000000180050470     libmx:libmx.dll
 0002:00000478       __imp_mxGetScalar_800      0000000180050478     libmx:libmx.dll
 0002:00000480       __imp_mxCreateDoubleScalar_800 0000000180050480     libmx:libmx.dll
 0002:00000488       __imp_mxGetN_800           0000000180050488     libmx:libmx.dll
 0002:00000490       __imp_mxIsComplex_800      0000000180050490     libmx:libmx.dll
 0002:00000498       __imp_mxIsNumeric_800      0000000180050498     libmx:libmx.dll
 0002:000004a0       __imp_mxGetClassID_800     00000001800504a0     libmx:libmx.dll
 0002:000004a8       __imp_mxGetM_800           00000001800504a8     libmx:libmx.dll
 0002:000004b0       __imp_mxCalloc_800         00000001800504b0     libmx:libmx.dll
 0002:000004b8       __imp_mxGetNaN_800         00000001800504b8     libmx:libmx.dll
 0002:000004c0       __imp_mxGetInf_800         00000001800504c0     libmx:libmx.dll
 0002:000004c8       __imp_mxCreateStructMatrix_800 00000001800504c8     libmx:libmx.dll
 0002:000004d0       __imp_mxCreateCellMatrix_800 00000001800504d0     libmx:libmx.dll
 0002:000004d8       __imp_mxCreateString_800   00000001800504d8     libmx:libmx.dll
 0002:000004e0       __imp_mxSetField_800       00000001800504e0     libmx:libmx.dll
 0002:000004e8       __imp_mxSetCell_800        00000001800504e8     libmx:libmx.dll
 0002:000004f0       __imp_mxDuplicateArray_800 00000001800504f0     libmx:libmx.dll
 0002:000004f8       __imp_mxGetString_800      00000001800504f8     libmx:libmx.dll
 0002:00000500       __imp_mxCreateDoubleMatrix_800 0000000180050500     libmx:libmx.dll
 0002:00000508       __imp_mxDestroyArray_800   0000000180050508     libmx:libmx.dll
 0002:00000510       __imp_mxGetPr_800          0000000180050510     libmx:libmx.dll
 0002:00000518       \177libmx_NULL_THUNK_DATA  0000000180050518     libmx:libmx.dll
 0002:00000520       __imp_utFree               0000000180050520     libut:libut.dll
 0002:00000528       __imp_utMalloc             0000000180050528     libut:libut.dll
 0002:00000530       \177libut_NULL_THUNK_DATA  0000000180050530     libut:libut.dll
 0002:00000538       __imp_?fastFree@cv@@YAXPEAX@Z 0000000180050538     opencv_core420:opencv_core420.dll
 0002:00000540       __imp_?error@cv@@YAXHAEBV?$basic_string@DU?$char_traits@D@std@@V?$allocator@D@2@@std@@PEBD1H@Z 0000000180050540     opencv_core420:opencv_core420.dll
 0002:00000548       __imp_?deallocate@Mat@cv@@QEAAXXZ 0000000180050548     opencv_core420:opencv_core420.dll
 0002:00000550       __imp_?copySize@Mat@cv@@QEAAXAEBV12@@Z 0000000180050550     opencv_core420:opencv_core420.dll
 0002:00000558       __imp_?updateContinuityFlag@Mat@cv@@QEAAXXZ 0000000180050558     opencv_core420:opencv_core420.dll
 0002:00000560       __imp_?fastAtan2@cv@@YAMMM@Z 0000000180050560     opencv_core420:opencv_core420.dll
 0002:00000568       __imp_?getMat_@_InputArray@cv@@QEBA?AVMat@2@H@Z 0000000180050568     opencv_core420:opencv_core420.dll
 0002:00000570       __imp_?kind@_InputArray@cv@@QEBA?AW4KindFlag@12@XZ 0000000180050570     opencv_core420:opencv_core420.dll
 0002:00000578       __imp_?type@_InputArray@cv@@QEBAHH@Z 0000000180050578     opencv_core420:opencv_core420.dll
 0002:00000580       __imp_?needed@_OutputArray@cv@@QEBA_NXZ 0000000180050580     opencv_core420:opencv_core420.dll
 0002:00000588       __imp_?create@_OutputArray@cv@@QEBAXHHHH_NW4DepthMask@12@@Z 0000000180050588     opencv_core420:opencv_core420.dll
 0002:00000590       __imp_?noArray@cv@@YAAEBV_InputOutputArray@1@XZ 0000000180050590     opencv_core420:opencv_core420.dll
 0002:00000598       __imp_??0Mat@cv@@QEAA@AEBV01@AEBVRange@1@1@Z 0000000180050598     opencv_core420:opencv_core420.dll
 0002:000005a0       __imp_?copyTo@Mat@cv@@QEBAXAEBV_OutputArray@2@@Z 00000001800505a0     opencv_core420:opencv_core420.dll
 0002:000005a8       __imp_?reshape@Mat@cv@@QEBA?AV12@HH@Z 00000001800505a8     opencv_core420:opencv_core420.dll
 0002:000005b0       __imp_?create@Mat@cv@@QEAAXHPEBHH@Z 00000001800505b0     opencv_core420:opencv_core420.dll
 0002:000005b8       __imp_?min@cv@@YAXAEBV_InputArray@1@0AEBV_OutputArray@1@@Z 00000001800505b8     opencv_core420:opencv_core420.dll
 0002:000005c0       __imp_??0Algorithm@cv@@QEAA@XZ 00000001800505c0     opencv_core420:opencv_core420.dll
 0002:000005c8       __imp_??1Algorithm@cv@@UEAA@XZ 00000001800505c8     opencv_core420:opencv_core420.dll
 0002:000005d0       __imp_?save@Algorithm@cv@@UEBAXAEBV?$basic_string@DU?$char_traits@D@std@@V?$allocator@D@2@@std@@@Z 00000001800505d0     opencv_core420:opencv_core420.dll
 0002:000005d8       __imp_??1ParallelLoopBody@cv@@UEAA@XZ 00000001800505d8     opencv_core420:opencv_core420.dll
 0002:000005e0       __imp_?parallel_for_@cv@@YAXAEBVRange@1@AEBVParallelLoopBody@1@N@Z 00000001800505e0     opencv_core420:opencv_core420.dll
 0002:000005e8       __imp_cvCreateMat          00000001800505e8     opencv_core420:opencv_core420.dll
 0002:000005f0       __imp_cvCartToPolar        00000001800505f0     opencv_core420:opencv_core420.dll
 0002:000005f8       __imp_??R?$DefaultDeleter@UCvMat@@@cv@@QEBAXPEAUCvMat@@@Z 00000001800505f8     opencv_core420:opencv_core420.dll
 0002:00000600       \177opencv_core420_NULL_THUNK_DATA 0000000180050600     opencv_core420:opencv_core420.dll
 0002:00000608       __imp_??1Feature2D@cv@@UEAA@XZ 0000000180050608     opencv_features2d420:opencv_features2d420.dll
 0002:00000610       __imp_?detect@Feature2D@cv@@UEAAXAEBV_InputArray@2@AEAV?$vector@VKeyPoint@cv@@V?$allocator@VKeyPoint@cv@@@std@@@std@@0@Z 0000000180050610     opencv_features2d420:opencv_features2d420.dll
 0002:00000618       __imp_?detect@Feature2D@cv@@UEAAXAEBV_InputArray@2@AEAV?$vector@V?$vector@VKeyPoint@cv@@V?$allocator@VKeyPoint@cv@@@std@@@std@@V?$allocator@V?$vector@VKeyPoint@cv@@V?$allocator@VKeyPoint@cv@@@std@@@std@@@2@@std@@0@Z 0000000180050618     opencv_features2d420:opencv_features2d420.dll
 0002:00000620       __imp_?compute@Feature2D@cv@@UEAAXAEBV_InputArray@2@AEAV?$vector@VKeyPoint@cv@@V?$allocator@VKeyPoint@cv@@@std@@@std@@AEBV_OutputArray@2@@Z 0000000180050620     opencv_features2d420:opencv_features2d420.dll
 0002:00000628       __imp_?compute@Feature2D@cv@@UEAAXAEBV_InputArray@2@AEAV?$vector@V?$vector@VKeyPoint@cv@@V?$allocator@VKeyPoint@cv@@@std@@@std@@V?$allocator@V?$vector@VKeyPoint@cv@@V?$allocator@VKeyPoint@cv@@@std@@@std@@@2@@std@@AEBV_OutputArray@2@@Z 0000000180050628     opencv_features2d420:opencv_features2d420.dll
 0002:00000630       __imp_?detectAndCompute@Feature2D@cv@@UEAAXAEBV_InputArray@2@0AEAV?$vector@VKeyPoint@cv@@V?$allocator@VKeyPoint@cv@@@std@@@std@@AEBV_OutputArray@2@_N@Z 0000000180050630     opencv_features2d420:opencv_features2d420.dll
 0002:00000638       __imp_?descriptorSize@Feature2D@cv@@UEBAHXZ 0000000180050638     opencv_features2d420:opencv_features2d420.dll
 0002:00000640       __imp_?descriptorType@Feature2D@cv@@UEBAHXZ 0000000180050640     opencv_features2d420:opencv_features2d420.dll
 0002:00000648       __imp_?defaultNorm@Feature2D@cv@@UEBAHXZ 0000000180050648     opencv_features2d420:opencv_features2d420.dll
 0002:00000650       __imp_?write@Feature2D@cv@@UEBAXAEAVFileStorage@2@@Z 0000000180050650     opencv_features2d420:opencv_features2d420.dll
 0002:00000658       __imp_?read@Feature2D@cv@@UEAAXAEBVFileNode@2@@Z 0000000180050658     opencv_features2d420:opencv_features2d420.dll
 0002:00000660       __imp_?empty@Feature2D@cv@@UEBA_NXZ 0000000180050660     opencv_features2d420:opencv_features2d420.dll
 0002:00000668       __imp_?getDefaultName@Feature2D@cv@@UEBA?AV?$basic_string@DU?$char_traits@D@std@@V?$allocator@D@2@@std@@XZ 0000000180050668     opencv_features2d420:opencv_features2d420.dll
 0002:00000670       \177opencv_features2d420_NULL_THUNK_DATA 0000000180050670     opencv_features2d420:opencv_features2d420.dll
 0002:00000678       __imp_?resize@cv@@YAXAEBV_InputArray@1@AEBV_OutputArray@1@V?$Size_@H@1@NNH@Z 0000000180050678     opencv_imgproc420:opencv_imgproc420.dll
 0002:00000680       __imp_?integral@cv@@YAXAEBV_InputArray@1@AEBV_OutputArray@1@H@Z 0000000180050680     opencv_imgproc420:opencv_imgproc420.dll
 0002:00000688       __imp_?cvtColor@cv@@YAXAEBV_InputArray@1@AEBV_OutputArray@1@HH@Z 0000000180050688     opencv_imgproc420:opencv_imgproc420.dll
 0002:00000690       __imp_?getGaussianKernel@cv@@YA?AVMat@1@HNH@Z 0000000180050690     opencv_imgproc420:opencv_imgproc420.dll
 0002:00000698       \177opencv_imgproc420_NULL_THUNK_DATA 0000000180050698     opencv_imgproc420:opencv_imgproc420.dll
 0002:000006a0       __imp_sfrtGetCovrtInstance 00000001800506a0     sf_runtime:sf_runtime.dll
 0002:000006a8       __imp_sf_get_chart_instance_ptr 00000001800506a8     sf_runtime:sf_runtime.dll
 0002:000006b0       __imp_sim_mode_is_rtw_gen  00000001800506b0     sf_runtime:sf_runtime.dll
 0002:000006b8       __imp_sf_free_ChartRunTimeInfo 00000001800506b8     sf_runtime:sf_runtime.dll
 0002:000006c0       __imp_sf_clear_error_manager_info 00000001800506c0     sf_runtime:sf_runtime.dll
 0002:000006c8       __imp_sf_get_time          00000001800506c8     sf_runtime:sf_runtime.dll
 0002:000006d0       __imp_sfDoAnimationWrapper 00000001800506d0     sf_runtime:sf_runtime.dll
 0002:000006d8       __imp_setDataBrowseFcn     00000001800506d8     sf_runtime:sf_runtime.dll
 0002:000006e0       __imp_sfrtGetEmlrtCtx      00000001800506e0     sf_runtime:sf_runtime.dll
 0002:000006e8       __imp_sf_init_ChartRunTimeInfo 00000001800506e8     sf_runtime:sf_runtime.dll
 0002:000006f0       __imp_sf_mex_decode        00000001800506f0     sf_runtime:sf_runtime.dll
 0002:000006f8       __imp_sf_load_rtw_optimization_info 00000001800506f8     sf_runtime:sf_runtime.dll
 0002:00000700       __imp_sim_mode_is_external 0000000180050700     sf_runtime:sf_runtime.dll
 0002:00000708       __imp_setLegacyDebuggerFlag 0000000180050708     sf_runtime:sf_runtime.dll
 0002:00000710       __imp_setDebuggerFlag      0000000180050710     sf_runtime:sf_runtime.dll
 0002:00000718       __imp_sf_warn_if_symbolic_dimension_param_changed 0000000180050718     sf_runtime:sf_runtime.dll
 0002:00000720       __imp_sf_set_work_widths   0000000180050720     sf_runtime:sf_runtime.dll
 0002:00000728       __imp_sfListenerCacheSimStruct 0000000180050728     sf_runtime:sf_runtime.dll
 0002:00000730       __imp_sfListenerLightTerminate 0000000180050730     sf_runtime:sf_runtime.dll
 0002:00000738       __imp_sfListenerInitializeRuntimeVars 0000000180050738     sf_runtime:sf_runtime.dll
 0002:00000740       __imp_sf_mex_call          0000000180050740     sf_runtime:sf_runtime.dll
 0002:00000748       __imp_sf_mex_error_message 0000000180050748     sf_runtime:sf_runtime.dll
 0002:00000750       __imp_sf_mex_create        0000000180050750     sf_runtime:sf_runtime.dll
 0002:00000758       __imp_sf_mex_createcellmatrix 0000000180050758     sf_runtime:sf_runtime.dll
 0002:00000760       __imp_sf_mex_setcell       0000000180050760     sf_runtime:sf_runtime.dll
 0002:00000768       __imp_sf_mex_getcell       0000000180050768     sf_runtime:sf_runtime.dll
 0002:00000770       __imp_sf_mex_assign        0000000180050770     sf_runtime:sf_runtime.dll
 0002:00000778       __imp_sf_mex_dup           0000000180050778     sf_runtime:sf_runtime.dll
 0002:00000780       __imp_sf_mex_destroy       0000000180050780     sf_runtime:sf_runtime.dll
 0002:00000788       __imp_sf_mex_import        0000000180050788     sf_runtime:sf_runtime.dll
 0002:00000790       __imp_ssGetInputPortSignal_wrapper 0000000180050790     sf_runtime:sf_runtime.dll
 0002:00000798       __imp_ssGetOutputPortSignal_wrapper 0000000180050798     sf_runtime:sf_runtime.dll
 0002:000007a0       __imp_sf_data_saturate_error 00000001800507a0     sf_runtime:sf_runtime.dll
 0002:000007a8       __imp_sf_get_ChartInfoStruct_CodeGen 00000001800507a8     sf_runtime:sf_runtime.dll
 0002:000007b0       __imp_sf_get_hasSeparateUpdateOutputs 00000001800507b0     sf_runtime:sf_runtime.dll
 0002:000007b8       __imp_callMdlMethodAndReportError 00000001800507b8     sf_runtime:sf_runtime.dll
 0002:000007c0       __imp_call_sf_machine_global_method_dispatcher 00000001800507c0     sf_runtime:sf_runtime.dll
 0002:000007c8       __imp_getRuntimeInstanceInfoAsVoid 00000001800507c8     sf_runtime:sf_runtime.dll
 0002:000007d0       __imp_sf_mex_error_direct_call 00000001800507d0     sf_runtime:sf_runtime.dll
 0002:000007d8       __imp_sf_clear_rtw_identifier 00000001800507d8     sf_runtime:sf_runtime.dll
 0002:000007e0       \177sf_runtime_NULL_THUNK_DATA 00000001800507e0     sf_runtime:sf_runtime.dll
 0002:000007e8       __guard_check_icall_fptr   00000001800507e8     MSVCRT:guard_support.obj
 0002:000007f0       __guard_xfg_check_icall_fptr 00000001800507f0     MSVCRT:guard_support.obj
 0002:000007f8       __guard_dispatch_icall_fptr 00000001800507f8     MSVCRT:guard_support.obj
 0002:00000800       __guard_xfg_dispatch_icall_fptr 0000000180050800     MSVCRT:guard_support.obj
 0002:00000808       __guard_xfg_table_dispatch_icall_fptr 0000000180050808     MSVCRT:guard_support.obj
 0002:00000810       __xc_a                     0000000180050810     MSVCRT:initializers.obj
 0002:00000868       __xc_z                     0000000180050868     MSVCRT:initializers.obj
 0002:00000870       __xi_a                     0000000180050870     MSVCRT:initializers.obj
 0002:00000878       __xi_z                     0000000180050878     MSVCRT:initializers.obj
 0002:00000880       __xp_a                     0000000180050880     MSVCRT:initializers.obj
 0002:00000888       __xp_z                     0000000180050888     MSVCRT:initializers.obj
 0002:00000890       __xt_a                     0000000180050890     MSVCRT:initializers.obj
 0002:00000898       __xt_z                     0000000180050898     MSVCRT:initializers.obj
 0002:000008a0       __real@4185e22fd0000000    00000001800508a0     flightControlSystem_sfun.obj
 0002:000008a8       __real@41b92f8712000000    00000001800508a8     flightControlSystem_sfun.obj
 0002:000008b0       __real@41bad2f744000000    00000001800508b0     flightControlSystem_sfun.obj
 0002:000008b8       __real@41d7b4486e800000    00000001800508b8     flightControlSystem_sfun.obj
 0002:000008c0       __real@41daa0c87dc00000    00000001800508c0     flightControlSystem_sfun.obj
 0002:000008c8       __real@41db46d8f3400000    00000001800508c8     flightControlSystem_sfun.obj
 0002:000008d0       __real@41dfdb59d5800000    00000001800508d0     flightControlSystem_sfun.obj
 0002:000008d8       __real@41e22504a8a00000    00000001800508d8     flightControlSystem_sfun.obj
 0002:000008e0       __real@41e3f2a9e2200000    00000001800508e0     flightControlSystem_sfun.obj
 0002:000008e8       __real@41e3fa3198000000    00000001800508e8     flightControlSystem_sfun.obj
 0002:000008f0       __real@41e662e0cac00000    00000001800508f0     flightControlSystem_sfun.obj
 0002:000008f8       __real@41eb514984600000    00000001800508f8     flightControlSystem_sfun.obj
 0002:00000ac8       __real@0000000000000000    0000000180050ac8     c4_flightControlSystem.obj
 0002:00000ad0       __real@34000000            0000000180050ad0     c4_flightControlSystem.obj
 0002:00000ad4       __real@358637bd            0000000180050ad4     c4_flightControlSystem.obj
 0002:00000ad8       __real@3d23d70a            0000000180050ad8     c4_flightControlSystem.obj
 0002:00000adc       __real@3f800000            0000000180050adc     c4_flightControlSystem.obj
 0002:00000ae0       __real@3fe0000000000000    0000000180050ae0     c4_flightControlSystem.obj
 0002:00000ae8       __real@3fe3333333333333    0000000180050ae8     c4_flightControlSystem.obj
 0002:00000af0       __real@3fe62e42fefa39ef    0000000180050af0     c4_flightControlSystem.obj
 0002:00000af8       __real@3fe8000000000000    0000000180050af8     c4_flightControlSystem.obj
 0002:00000b00       __real@3ff0000000000000    0000000180050b00     c4_flightControlSystem.obj
 0002:00000b08       __real@3ff999999999999a    0000000180050b08     c4_flightControlSystem.obj
 0002:00000b10       __real@4000000000000000    0000000180050b10     c4_flightControlSystem.obj
 0002:00000b18       __real@4008000000000000    0000000180050b18     c4_flightControlSystem.obj
 0002:00000b20       __real@4020000000000000    0000000180050b20     c4_flightControlSystem.obj
 0002:00000b28       __real@407f400000000000    0000000180050b28     c4_flightControlSystem.obj
 0002:00000b30       __real@40c90fdb            0000000180050b30     c4_flightControlSystem.obj
 0002:00000b38       __real@40d2c00000000000    0000000180050b38     c4_flightControlSystem.obj
 0002:00000b40       __real@40e8b82000000000    0000000180050b40     c4_flightControlSystem.obj
 0002:00000b48       __real@41c470fdcf800000    0000000180050b48     c4_flightControlSystem.obj
 0002:00000b50       __real@41c962c047800000    0000000180050b50     c4_flightControlSystem.obj
 0002:00000b58       __real@41d1e631b5c00000    0000000180050b58     c4_flightControlSystem.obj
 0002:00000b60       __real@41e4b2c112400000    0000000180050b60     c4_flightControlSystem.obj
 0002:00000b68       __real@41f0000000000000    0000000180050b68     c4_flightControlSystem.obj
 0002:00000b70       __real@43000000            0000000180050b70     c4_flightControlSystem.obj
 0002:00000b78       __real@bff0000000000000    0000000180050b78     c4_flightControlSystem.obj
 0002:00000b80       __real@c3000000            0000000180050b80     c4_flightControlSystem.obj
 0002:00000b90       __xmm@80000000000000008000000000000000 0000000180050b90     c4_flightControlSystem.obj
 0002:00000ba0       DYNAMIC_DIMENSION_DEF      0000000180050ba0     flightControlSystem_sfun_registry.obj
 0002:00000bb8       __real@4010000000000000    0000000180050bb8     flightControlSystem_sfun_registry.obj
 0002:00000bc0       __real@41602cbca0000000    0000000180050bc0     flightControlSystem_sfun_registry.obj
 0002:00001db8       ??_7?$small_any_policy@H@anyimpl@cvflann@@6B@ 0000000180051db8     extractSurfCore.obj
 0002:00001e10       ??_7?$small_any_policy@M@anyimpl@cvflann@@6B@ 0000000180051e10     extractSurfCore.obj
 0002:00001e68       ??_7?$small_any_policy@_N@anyimpl@cvflann@@6B@ 0000000180051e68     extractSurfCore.obj
 0002:00001ec0       ??_7?$small_any_policy@I@anyimpl@cvflann@@6B@ 0000000180051ec0     extractSurfCore.obj
 0002:00001f18       ??_7?$big_any_policy@W4flann_centers_init_t@cvflann@@@anyimpl@cvflann@@6B@ 0000000180051f18     extractSurfCore.obj
 0002:00001f70       ??_7?$big_any_policy@W4flann_algorithm_t@cvflann@@@anyimpl@cvflann@@6B@ 0000000180051f70     extractSurfCore.obj
 0002:00001fc8       ??_7?$big_any_policy@V?$basic_string@DU?$char_traits@D@std@@V?$allocator@D@2@@std@@@anyimpl@cvflann@@6B@ 0000000180051fc8     extractSurfCore.obj
 0002:00002020       ??_7?$big_any_policy@Uempty_any@anyimpl@cvflann@@@anyimpl@cvflann@@6B@ 0000000180052020     extractSurfCore.obj
 0002:00002078       ??_7?$small_any_policy@PEBD@anyimpl@cvflann@@6B@ 0000000180052078     extractSurfCore.obj
 0002:000020d0       ??_7exception@std@@6B@     00000001800520d0     extractSurfCore.obj
 0002:000020e0       ??_C@_0BC@EOODALEL@Unknown?5exception@ 00000001800520e0     extractSurfCore.obj
 0002:00002100       ??_7bad_alloc@std@@6B@     0000000180052100     extractSurfCore.obj
 0002:00002118       ??_7bad_array_new_length@std@@6B@ 0000000180052118     extractSurfCore.obj
 0002:00002128       ??_C@_0BF@KINCDENJ@bad?5array?5new?5length@ 0000000180052128     extractSurfCore.obj
 0002:00002140       ??_C@_0BA@JFNIOLAK@string?5too?5long@ 0000000180052140     extractSurfCore.obj
 0002:00002150       ??_C@_0GJ@GFKGBAFA@C?3?2Program?5Files?2MATLAB?2R2021a?2@ 0000000180052150     extractSurfCore.obj
 0002:000021c0       ??_C@_0N@DDCCIDDE@cv?3?3Mat?3?3Mat@ 00000001800521c0     extractSurfCore.obj
 0002:000021d0       ??_C@_0BN@EEFOKAEN@total?$CI?$CJ?5?$DN?$DN?50?5?$HM?$HM?5data?5?$CB?$DN?5NULL@ 00000001800521d0     extractSurfCore.obj
 0002:000021f0       ??_C@_0CA@LBFJDOIG@Step?5must?5be?5a?5multiple?5of?5esz1@ 00000001800521f0     extractSurfCore.obj
 0002:00002210       ??_C@_0M@LLFGKPEG@?$FLempty_any?$FN@ 0000000180052210     extractSurfCore.obj
 0002:00002228       ??_7base_any_policy@anyimpl@cvflann@@6B@ 0000000180052228     extractSurfCore.obj
 0002:00002278       ??_C@_0N@LPFKKEBD@?3AM?3am?3PM?3pm@ 0000000180052278     extractSurfCore.obj
 0002:00002288       ??_C@_0BA@FOIKENOD@vector?5too?5long@ 0000000180052288     extractSurfCore.obj
 0002:00002298       ??_C@_1BK@MHIKGOKE@?$AA?3?$AAA?$AAM?$AA?3?$AAa?$AAm?$AA?3?$AAP?$AAM?$AA?3?$AAp?$AAm@ 0000000180052298     extractSurfCore.obj
 0002:000022c0       ??_7?$_Ref_count_obj2@VMWSURF@cv@@@std@@6B@ 00000001800522c0     extractSurfCore.obj
 0002:000022e0       __real@00000000            00000001800522e0     extractSurfCore.obj
 0002:000022e4       __real@3c8efa35            00000001800522e4     extractSurfCore.obj
 0002:000022e8       __real@3e088889            00000001800522e8     extractSurfCore.obj
 0002:00004570       ??_7ParallelLoopBody@cv@@6B@ 0000000180054570     mwsurf.obj
 0002:00004588       ??_7Feature2D@cv@@6B01@@   0000000180054588     mwsurf.obj
 0002:000045d0       ??_7Feature2D@cv@@6BAlgorithm@1@@ 00000001800545d0     mwsurf.obj
 0002:00004608       ??_8Feature2D@cv@@7B@      0000000180054608     mwsurf.obj
 0002:00004618       ??_7MWSURF@cv@@6BFeature2D@1@@ 0000000180054618     mwsurf.obj
 0002:00004660       ??_7MWSURF@cv@@6BAlgorithm@1@@ 0000000180054660     mwsurf.obj
 0002:00004698       ??_8MWSURF@cv@@7B@         0000000180054698     mwsurf.obj
 0002:000046a8       ??_7MWSURFBuildInvoker@cv@@6B@ 00000001800546a8     mwsurf.obj
 0002:000046c0       ??_7MWSURFFindInvoker@cv@@6B@ 00000001800546c0     mwsurf.obj
 0002:000046d8       ??_7MWSURFInvoker@cv@@6B@  00000001800546d8     mwsurf.obj
 0002:000046f0       ??_C@_0EK@NHDMHELI@C?3?2Program?5Files?2MATLAB?2R2021a?2@ 00000001800546f0     mwsurf.obj
 0002:00004740       ??_C@_0CB@LLEJHCBJ@cv?3?3MWSURFInvoker?3?3MWSURFInvoke@ 0000000180054740     mwsurf.obj
 0002:00004768       ??_C@_0BP@PPFGGEHI@nOriSamples?5?$DM?$DN?5nOriSampleBound@ 0000000180054768     mwsurf.obj
 0002:00004788       ??_C@_0BP@HLCNBEFL@cv?3?3MWSURFInvoker?3?3operator?5?$CI?$CJ@ 0000000180054788     mwsurf.obj
 0002:000047a8       ??_C@_0CC@EEHLCAKH@winbuf?9?$DOcols?5?$DO?$DN?5win_size?$CKwin_si@ 00000001800547a8     mwsurf.obj
 0002:000047d8       ??_7?$_Ref_count_resource@PEAUCvMat@@U?$DefaultDeleter@UCvMat@@@cv@@@std@@6B@ 00000001800547d8     mwsurf.obj
 0002:000047f8       __real@3cb0000000000000    00000001800547f8     mwsurf.obj
 0002:00004800       __real@3f000000            0000000180054800     mwsurf.obj
 0002:00004804       __real@3f4f5c29            0000000180054804     mwsurf.obj
 0002:00004808       __real@3f99999a            0000000180054808     mwsurf.obj
 0002:0000480c       __real@40000000            000000018005480c     mwsurf.obj
 0002:00004810       __real@4004000000000000    0000000180054810     mwsurf.obj
 0002:00004818       __real@400a666660000000    0000000180054818     mwsurf.obj
 0002:00004820       __real@4059000000000000    0000000180054820     mwsurf.obj
 0002:00004828       __real@40800000            0000000180054828     mwsurf.obj
 0002:0000482c       __real@41100000            000000018005482c     mwsurf.obj
 0002:00004830       __real@41a80000            0000000180054830     mwsurf.obj
 0002:00004834       __real@43870000            0000000180054834     mwsurf.obj
 0002:00004838       __real@bf000000            0000000180054838     mwsurf.obj
 0002:0000483c       __real@bf800000            000000018005483c     mwsurf.obj
 0002:00004840       __xmm@80000000800000008000000080000000 0000000180054840     mwsurf.obj
 0002:000059a0       __real@77800000            00000001800559a0     half_type.obj
 0002:000059c0       ??_7type_info@@6B@         00000001800559c0     MSVCRT:std_type_info_static.obj
 0002:000059d0       __xmm@ffffffffffffffffffffffffffffffff 00000001800559d0     MSVCRT:utility.obj
 0002:000059e0       _pRawDllMain               00000001800559e0     MSVCRT:dll_dllmain.obj
 0002:000059e0       _pDefaultRawDllMain        00000001800559e0     MSVCRT:dll_dllmain.obj
 0002:000059e8       ??_C@_0P@GHFPNOJB@bad?5allocation@ 00000001800559e8     MSVCRT:throw_bad_alloc.obj
 0002:00005a20       _load_config_used          0000000180055a20     MSVCRT:loadcfg.obj
 0002:00005b80       __CastGuardVftablesStart   0000000180055b80     MSVCRT:guard_support.obj
 0002:00005b88       __CastGuardVftablesEnd     0000000180055b88     MSVCRT:guard_support.obj
 0002:00005b90       ??_R3base_any_policy@anyimpl@cvflann@@8 0000000180055b90     extractSurfCore.obj
 0002:00005ba8       ??_R2base_any_policy@anyimpl@cvflann@@8 0000000180055ba8     extractSurfCore.obj
 0002:00005bb8       ??_R1A@?0A@EA@base_any_policy@anyimpl@cvflann@@8 0000000180055bb8     extractSurfCore.obj
 0002:00005be0       ??_R4?$big_any_policy@W4flann_centers_init_t@cvflann@@@anyimpl@cvflann@@6B@ 0000000180055be0     extractSurfCore.obj
 0002:00005c08       ??_R3?$big_any_policy@W4flann_centers_init_t@cvflann@@@anyimpl@cvflann@@8 0000000180055c08     extractSurfCore.obj
 0002:00005c20       ??_R2?$big_any_policy@W4flann_centers_init_t@cvflann@@@anyimpl@cvflann@@8 0000000180055c20     extractSurfCore.obj
 0002:00005c40       ??_R1A@?0A@EA@?$big_any_policy@W4flann_centers_init_t@cvflann@@@anyimpl@cvflann@@8 0000000180055c40     extractSurfCore.obj
 0002:00005c68       ??_R1A@?0A@EA@?$typed_base_any_policy@W4flann_centers_init_t@cvflann@@@anyimpl@cvflann@@8 0000000180055c68     extractSurfCore.obj
 0002:00005c90       ??_R3?$typed_base_any_policy@W4flann_centers_init_t@cvflann@@@anyimpl@cvflann@@8 0000000180055c90     extractSurfCore.obj
 0002:00005ca8       ??_R2?$typed_base_any_policy@W4flann_centers_init_t@cvflann@@@anyimpl@cvflann@@8 0000000180055ca8     extractSurfCore.obj
 0002:00005cc0       ??_R4?$big_any_policy@W4flann_algorithm_t@cvflann@@@anyimpl@cvflann@@6B@ 0000000180055cc0     extractSurfCore.obj
 0002:00005ce8       ??_R3?$big_any_policy@W4flann_algorithm_t@cvflann@@@anyimpl@cvflann@@8 0000000180055ce8     extractSurfCore.obj
 0002:00005d00       ??_R2?$big_any_policy@W4flann_algorithm_t@cvflann@@@anyimpl@cvflann@@8 0000000180055d00     extractSurfCore.obj
 0002:00005d20       ??_R1A@?0A@EA@?$big_any_policy@W4flann_algorithm_t@cvflann@@@anyimpl@cvflann@@8 0000000180055d20     extractSurfCore.obj
 0002:00005d48       ??_R1A@?0A@EA@?$typed_base_any_policy@W4flann_algorithm_t@cvflann@@@anyimpl@cvflann@@8 0000000180055d48     extractSurfCore.obj
 0002:00005d70       ??_R3?$typed_base_any_policy@W4flann_algorithm_t@cvflann@@@anyimpl@cvflann@@8 0000000180055d70     extractSurfCore.obj
 0002:00005d88       ??_R2?$typed_base_any_policy@W4flann_algorithm_t@cvflann@@@anyimpl@cvflann@@8 0000000180055d88     extractSurfCore.obj
 0002:00005da0       ??_R4?$big_any_policy@V?$basic_string@DU?$char_traits@D@std@@V?$allocator@D@2@@std@@@anyimpl@cvflann@@6B@ 0000000180055da0     extractSurfCore.obj
 0002:00005dc8       ??_R3?$big_any_policy@V?$basic_string@DU?$char_traits@D@std@@V?$allocator@D@2@@std@@@anyimpl@cvflann@@8 0000000180055dc8     extractSurfCore.obj
 0002:00005de0       ??_R2?$big_any_policy@V?$basic_string@DU?$char_traits@D@std@@V?$allocator@D@2@@std@@@anyimpl@cvflann@@8 0000000180055de0     extractSurfCore.obj
 0002:00005e00       ??_R1A@?0A@EA@?$big_any_policy@V?$basic_string@DU?$char_traits@D@std@@V?$allocator@D@2@@std@@@anyimpl@cvflann@@8 0000000180055e00     extractSurfCore.obj
 0002:00005e28       ??_R1A@?0A@EA@?$typed_base_any_policy@V?$basic_string@DU?$char_traits@D@std@@V?$allocator@D@2@@std@@@anyimpl@cvflann@@8 0000000180055e28     extractSurfCore.obj
 0002:00005e50       ??_R3?$typed_base_any_policy@V?$basic_string@DU?$char_traits@D@std@@V?$allocator@D@2@@std@@@anyimpl@cvflann@@8 0000000180055e50     extractSurfCore.obj
 0002:00005e68       ??_R2?$typed_base_any_policy@V?$basic_string@DU?$char_traits@D@std@@V?$allocator@D@2@@std@@@anyimpl@cvflann@@8 0000000180055e68     extractSurfCore.obj
 0002:00005e80       ??_R4?$small_any_policy@H@anyimpl@cvflann@@6B@ 0000000180055e80     extractSurfCore.obj
 0002:00005ea8       ??_R3?$small_any_policy@H@anyimpl@cvflann@@8 0000000180055ea8     extractSurfCore.obj
 0002:00005ec0       ??_R2?$small_any_policy@H@anyimpl@cvflann@@8 0000000180055ec0     extractSurfCore.obj
 0002:00005ee0       ??_R1A@?0A@EA@?$small_any_policy@H@anyimpl@cvflann@@8 0000000180055ee0     extractSurfCore.obj
 0002:00005f08       ??_R1A@?0A@EA@?$typed_base_any_policy@H@anyimpl@cvflann@@8 0000000180055f08     extractSurfCore.obj
 0002:00005f30       ??_R3?$typed_base_any_policy@H@anyimpl@cvflann@@8 0000000180055f30     extractSurfCore.obj
 0002:00005f48       ??_R2?$typed_base_any_policy@H@anyimpl@cvflann@@8 0000000180055f48     extractSurfCore.obj
 0002:00005f60       ??_R4?$small_any_policy@I@anyimpl@cvflann@@6B@ 0000000180055f60     extractSurfCore.obj
 0002:00005f88       ??_R3?$small_any_policy@I@anyimpl@cvflann@@8 0000000180055f88     extractSurfCore.obj
 0002:00005fa0       ??_R2?$small_any_policy@I@anyimpl@cvflann@@8 0000000180055fa0     extractSurfCore.obj
 0002:00005fc0       ??_R1A@?0A@EA@?$small_any_policy@I@anyimpl@cvflann@@8 0000000180055fc0     extractSurfCore.obj
 0002:00005fe8       ??_R1A@?0A@EA@?$typed_base_any_policy@I@anyimpl@cvflann@@8 0000000180055fe8     extractSurfCore.obj
 0002:00006010       ??_R3?$typed_base_any_policy@I@anyimpl@cvflann@@8 0000000180056010     extractSurfCore.obj
 0002:00006028       ??_R2?$typed_base_any_policy@I@anyimpl@cvflann@@8 0000000180056028     extractSurfCore.obj
 0002:00006040       ??_R4?$small_any_policy@M@anyimpl@cvflann@@6B@ 0000000180056040     extractSurfCore.obj
 0002:00006068       ??_R3?$small_any_policy@M@anyimpl@cvflann@@8 0000000180056068     extractSurfCore.obj
 0002:00006080       ??_R2?$small_any_policy@M@anyimpl@cvflann@@8 0000000180056080     extractSurfCore.obj
 0002:000060a0       ??_R1A@?0A@EA@?$small_any_policy@M@anyimpl@cvflann@@8 00000001800560a0     extractSurfCore.obj
 0002:000060c8       ??_R1A@?0A@EA@?$typed_base_any_policy@M@anyimpl@cvflann@@8 00000001800560c8     extractSurfCore.obj
 0002:000060f0       ??_R3?$typed_base_any_policy@M@anyimpl@cvflann@@8 00000001800560f0     extractSurfCore.obj
 0002:00006108       ??_R2?$typed_base_any_policy@M@anyimpl@cvflann@@8 0000000180056108     extractSurfCore.obj
 0002:00006120       ??_R4?$small_any_policy@_N@anyimpl@cvflann@@6B@ 0000000180056120     extractSurfCore.obj
 0002:00006148       ??_R3?$small_any_policy@_N@anyimpl@cvflann@@8 0000000180056148     extractSurfCore.obj
 0002:00006160       ??_R2?$small_any_policy@_N@anyimpl@cvflann@@8 0000000180056160     extractSurfCore.obj
 0002:00006180       ??_R1A@?0A@EA@?$small_any_policy@_N@anyimpl@cvflann@@8 0000000180056180     extractSurfCore.obj
 0002:000061a8       ??_R1A@?0A@EA@?$typed_base_any_policy@_N@anyimpl@cvflann@@8 00000001800561a8     extractSurfCore.obj
 0002:000061d0       ??_R3?$typed_base_any_policy@_N@anyimpl@cvflann@@8 00000001800561d0     extractSurfCore.obj
 0002:000061e8       ??_R2?$typed_base_any_policy@_N@anyimpl@cvflann@@8 00000001800561e8     extractSurfCore.obj
 0002:00006200       ??_R4?$big_any_policy@Uempty_any@anyimpl@cvflann@@@anyimpl@cvflann@@6B@ 0000000180056200     extractSurfCore.obj
 0002:00006228       ??_R3?$big_any_policy@Uempty_any@anyimpl@cvflann@@@anyimpl@cvflann@@8 0000000180056228     extractSurfCore.obj
 0002:00006240       ??_R2?$big_any_policy@Uempty_any@anyimpl@cvflann@@@anyimpl@cvflann@@8 0000000180056240     extractSurfCore.obj
 0002:00006260       ??_R1A@?0A@EA@?$big_any_policy@Uempty_any@anyimpl@cvflann@@@anyimpl@cvflann@@8 0000000180056260     extractSurfCore.obj
 0002:00006288       ??_R1A@?0A@EA@?$typed_base_any_policy@Uempty_any@anyimpl@cvflann@@@anyimpl@cvflann@@8 0000000180056288     extractSurfCore.obj
 0002:000062b0       ??_R3?$typed_base_any_policy@Uempty_any@anyimpl@cvflann@@@anyimpl@cvflann@@8 00000001800562b0     extractSurfCore.obj
 0002:000062c8       ??_R2?$typed_base_any_policy@Uempty_any@anyimpl@cvflann@@@anyimpl@cvflann@@8 00000001800562c8     extractSurfCore.obj
 0002:000062e0       ??_R4?$small_any_policy@PEBD@anyimpl@cvflann@@6B@ 00000001800562e0     extractSurfCore.obj
 0002:00006308       ??_R3?$small_any_policy@PEBD@anyimpl@cvflann@@8 0000000180056308     extractSurfCore.obj
 0002:00006320       ??_R2?$small_any_policy@PEBD@anyimpl@cvflann@@8 0000000180056320     extractSurfCore.obj
 0002:00006340       ??_R1A@?0A@EA@?$small_any_policy@PEBD@anyimpl@cvflann@@8 0000000180056340     extractSurfCore.obj
 0002:00006368       ??_R1A@?0A@EA@?$typed_base_any_policy@PEBD@anyimpl@cvflann@@8 0000000180056368     extractSurfCore.obj
 0002:00006390       ??_R3?$typed_base_any_policy@PEBD@anyimpl@cvflann@@8 0000000180056390     extractSurfCore.obj
 0002:000063a8       ??_R2?$typed_base_any_policy@PEBD@anyimpl@cvflann@@8 00000001800563a8     extractSurfCore.obj
 0002:000063c0       ??_R4exception@std@@6B@    00000001800563c0     extractSurfCore.obj
 0002:000063e8       ??_R3exception@std@@8      00000001800563e8     extractSurfCore.obj
 0002:00006400       ??_R2exception@std@@8      0000000180056400     extractSurfCore.obj
 0002:00006410       ??_R1A@?0A@EA@exception@std@@8 0000000180056410     extractSurfCore.obj
 0002:00006438       ??_R4bad_alloc@std@@6B@    0000000180056438     extractSurfCore.obj
 0002:00006460       ??_R3bad_alloc@std@@8      0000000180056460     extractSurfCore.obj
 0002:00006478       ??_R2bad_alloc@std@@8      0000000180056478     extractSurfCore.obj
 0002:00006490       ??_R1A@?0A@EA@bad_alloc@std@@8 0000000180056490     extractSurfCore.obj
 0002:000064b8       ??_R4bad_array_new_length@std@@6B@ 00000001800564b8     extractSurfCore.obj
 0002:000064e0       ??_R3bad_array_new_length@std@@8 00000001800564e0     extractSurfCore.obj
 0002:000064f8       ??_R2bad_array_new_length@std@@8 00000001800564f8     extractSurfCore.obj
 0002:00006518       ??_R1A@?0A@EA@bad_array_new_length@std@@8 0000000180056518     extractSurfCore.obj
 0002:00006540       ??_R3_Ref_count_base@std@@8 0000000180056540     extractSurfCore.obj
 0002:00006558       ??_R2_Ref_count_base@std@@8 0000000180056558     extractSurfCore.obj
 0002:00006568       ??_R1A@?0A@EA@_Ref_count_base@std@@8 0000000180056568     extractSurfCore.obj
 0002:00006590       ??_R4base_any_policy@anyimpl@cvflann@@6B@ 0000000180056590     extractSurfCore.obj
 0002:000065b8       ??_R4?$_Ref_count_obj2@VMWSURF@cv@@@std@@6B@ 00000001800565b8     extractSurfCore.obj
 0002:000065e0       ??_R3?$_Ref_count_obj2@VMWSURF@cv@@@std@@8 00000001800565e0     extractSurfCore.obj
 0002:000065f8       ??_R2?$_Ref_count_obj2@VMWSURF@cv@@@std@@8 00000001800565f8     extractSurfCore.obj
 0002:00006610       ??_R1A@?0A@EA@?$_Ref_count_obj2@VMWSURF@cv@@@std@@8 0000000180056610     extractSurfCore.obj
 0002:00006638       ??_R4ParallelLoopBody@cv@@6B@ 0000000180056638     mwsurf.obj
 0002:00006660       ??_R3ParallelLoopBody@cv@@8 0000000180056660     mwsurf.obj
 0002:00006678       ??_R2ParallelLoopBody@cv@@8 0000000180056678     mwsurf.obj
 0002:00006688       ??_R1A@?0A@EA@ParallelLoopBody@cv@@8 0000000180056688     mwsurf.obj
 0002:000066b0       ??_R4Feature2D@cv@@6B01@@  00000001800566b0     mwsurf.obj
 0002:000066d8       ??_R3Feature2D@cv@@8       00000001800566d8     mwsurf.obj
 0002:000066f0       ??_R2Feature2D@cv@@8       00000001800566f0     mwsurf.obj
 0002:00006708       ??_R1A@?0A@EA@Feature2D@cv@@8 0000000180056708     mwsurf.obj
 0002:00006730       ??_R1A@73FA@Algorithm@cv@@8 0000000180056730     mwsurf.obj
 0002:00006758       ??_R3Algorithm@cv@@8       0000000180056758     mwsurf.obj
 0002:00006770       ??_R2Algorithm@cv@@8       0000000180056770     mwsurf.obj
 0002:00006780       ??_R1A@?0A@EA@Algorithm@cv@@8 0000000180056780     mwsurf.obj
 0002:000067a8       ??_R4Feature2D@cv@@6BAlgorithm@1@@ 00000001800567a8     mwsurf.obj
 0002:000067d0       ??_R4MWSURF@cv@@6BFeature2D@1@@ 00000001800567d0     mwsurf.obj
 0002:000067f8       ??_R3MWSURF@cv@@8          00000001800567f8     mwsurf.obj
 0002:00006810       ??_R2MWSURF@cv@@8          0000000180056810     mwsurf.obj
 0002:00006830       ??_R1A@?0A@EA@MWSURF@cv@@8 0000000180056830     mwsurf.obj
 0002:00006858       ??_R4MWSURF@cv@@6BAlgorithm@1@@ 0000000180056858     mwsurf.obj
 0002:00006880       ??_R4MWSURFBuildInvoker@cv@@6B@ 0000000180056880     mwsurf.obj
 0002:000068a8       ??_R3MWSURFBuildInvoker@cv@@8 00000001800568a8     mwsurf.obj
 0002:000068c0       ??_R2MWSURFBuildInvoker@cv@@8 00000001800568c0     mwsurf.obj
 0002:000068d8       ??_R1A@?0A@EA@MWSURFBuildInvoker@cv@@8 00000001800568d8     mwsurf.obj
 0002:00006900       ??_R4MWSURFFindInvoker@cv@@6B@ 0000000180056900     mwsurf.obj
 0002:00006928       ??_R3MWSURFFindInvoker@cv@@8 0000000180056928     mwsurf.obj
 0002:00006940       ??_R2MWSURFFindInvoker@cv@@8 0000000180056940     mwsurf.obj
 0002:00006958       ??_R1A@?0A@EA@MWSURFFindInvoker@cv@@8 0000000180056958     mwsurf.obj
 0002:00006980       ??_R4MWSURFInvoker@cv@@6B@ 0000000180056980     mwsurf.obj
 0002:000069a8       ??_R3MWSURFInvoker@cv@@8   00000001800569a8     mwsurf.obj
 0002:000069c0       ??_R2MWSURFInvoker@cv@@8   00000001800569c0     mwsurf.obj
 0002:000069d8       ??_R1A@?0A@EA@MWSURFInvoker@cv@@8 00000001800569d8     mwsurf.obj
 0002:00006a00       ??_R4?$_Ref_count_resource@PEAUCvMat@@U?$DefaultDeleter@UCvMat@@@cv@@@std@@6B@ 0000000180056a00     mwsurf.obj
 0002:00006a28       ??_R3?$_Ref_count_resource@PEAUCvMat@@U?$DefaultDeleter@UCvMat@@@cv@@@std@@8 0000000180056a28     mwsurf.obj
 0002:00006a40       ??_R2?$_Ref_count_resource@PEAUCvMat@@U?$DefaultDeleter@UCvMat@@@cv@@@std@@8 0000000180056a40     mwsurf.obj
 0002:00006a58       ??_R1A@?0A@EA@?$_Ref_count_resource@PEAUCvMat@@U?$DefaultDeleter@UCvMat@@@cv@@@std@@8 0000000180056a58     mwsurf.obj
 0002:00006a80       ??_R4type_info@@6B@        0000000180056a80     MSVCRT:std_type_info_static.obj
 0002:00006aa8       ??_R3type_info@@8          0000000180056aa8     MSVCRT:std_type_info_static.obj
 0002:00006ac0       ??_R2type_info@@8          0000000180056ac0     MSVCRT:std_type_info_static.obj
 0002:00006ad0       ??_R1A@?0A@EA@type_info@@8 0000000180056ad0     MSVCRT:std_type_info_static.obj
 0002:00006de0       __rtc_iaa                  0000000180056de0     MSVCRT:initsect.obj
 0002:00006de8       __rtc_izz                  0000000180056de8     MSVCRT:initsect.obj
 0002:00006df0       __rtc_taa                  0000000180056df0     MSVCRT:initsect.obj
 0002:00006df8       __rtc_tzz                  0000000180056df8     MSVCRT:initsect.obj
 0002:000097e8       _TI3?AVbad_array_new_length@std@@ 00000001800597e8     extractSurfCore.obj
 0002:00009808       _CTA3?AVbad_array_new_length@std@@ 0000000180059808     extractSurfCore.obj
 0002:00009828       _CT??_R0?AVbad_array_new_length@std@@@8??0bad_array_new_length@std@@QEAA@AEBV01@@Z24 0000000180059828     extractSurfCore.obj
 0002:00009850       _CT??_R0?AVbad_alloc@std@@@8??0bad_alloc@std@@QEAA@AEBV01@@Z24 0000000180059850     extractSurfCore.obj
 0002:00009878       _CT??_R0?AVexception@std@@@8??0exception@std@@QEAA@AEBV01@@Z24 0000000180059878     extractSurfCore.obj
 0002:000098a0       _TI2?AVbad_alloc@std@@     00000001800598a0     MSVCRT:throw_bad_alloc.obj
 0002:000098c0       _CTA2?AVbad_alloc@std@@    00000001800598c0     MSVCRT:throw_bad_alloc.obj
 0002:00009adc       __IMPORT_DESCRIPTOR_libmwrgb2gray_tbb 0000000180059adc     libmwrgb2gray_tbb:libmwrgb2gray_tbb.dll
 0002:00009af0       __IMPORT_DESCRIPTOR_libmwjpegreader 0000000180059af0     libmwjpegreader:libmwjpegreader.dll
 0002:00009b04       __IMPORT_DESCRIPTOR_libmwComputeMetric 0000000180059b04     libmwComputeMetric:libmwComputeMetric.dll
 0002:00009b18       __IMPORT_DESCRIPTOR_opencv_core420 0000000180059b18     opencv_core420:opencv_core420.dll
 0002:00009b2c       __IMPORT_DESCRIPTOR_opencv_imgproc420 0000000180059b2c     opencv_imgproc420:opencv_imgproc420.dll
 0002:00009b40       __IMPORT_DESCRIPTOR_opencv_features2d420 0000000180059b40     opencv_features2d420:opencv_features2d420.dll
 0002:00009b54       __IMPORT_DESCRIPTOR_sf_runtime 0000000180059b54     sf_runtime:sf_runtime.dll
 0002:00009b68       __IMPORT_DESCRIPTOR_libmx  0000000180059b68     libmx:libmx.dll
 0002:00009b7c       __IMPORT_DESCRIPTOR_libmex 0000000180059b7c     libmex:libmex.dll
 0002:00009b90       __IMPORT_DESCRIPTOR_libut  0000000180059b90     libut:libut.dll
 0002:00009ba4       __IMPORT_DESCRIPTOR_libmwmathutil 0000000180059ba4     libmwmathutil:libmwmathutil.dll
 0002:00009bb8       __IMPORT_DESCRIPTOR_libemlrt 0000000180059bb8     libemlrt:libemlrt.dll
 0002:00009bcc       __IMPORT_DESCRIPTOR_libcovrt 0000000180059bcc     libcovrt:libcovrt.dll
 0002:00009be0       __IMPORT_DESCRIPTOR_MSVCP140 0000000180059be0     msvcprt:MSVCP140.dll
 0002:00009bf4       __IMPORT_DESCRIPTOR_KERNEL32 0000000180059bf4     kernel32:KERNEL32.dll
 0002:00009c08       __IMPORT_DESCRIPTOR_VCRUNTIME140 0000000180059c08     vcruntime:VCRUNTIME140.dll
 0002:00009c1c       __IMPORT_DESCRIPTOR_VCRUNTIME140_1 0000000180059c1c     vcruntime:VCRUNTIME140_1.dll
 0002:00009c30       __IMPORT_DESCRIPTOR_api-ms-win-crt-string-l1-1-0 0000000180059c30     ucrt:api-ms-win-crt-string-l1-1-0.dll
 0002:00009c44       __IMPORT_DESCRIPTOR_api-ms-win-crt-math-l1-1-0 0000000180059c44     ucrt:api-ms-win-crt-math-l1-1-0.dll
 0002:00009c58       __IMPORT_DESCRIPTOR_api-ms-win-crt-stdio-l1-1-0 0000000180059c58     ucrt:api-ms-win-crt-stdio-l1-1-0.dll
 0002:00009c6c       __IMPORT_DESCRIPTOR_api-ms-win-crt-heap-l1-1-0 0000000180059c6c     ucrt:api-ms-win-crt-heap-l1-1-0.dll
 0002:00009c80       __IMPORT_DESCRIPTOR_api-ms-win-crt-runtime-l1-1-0 0000000180059c80     ucrt:api-ms-win-crt-runtime-l1-1-0.dll
 0002:00009c94       __IMPORT_DESCRIPTOR_api-ms-win-crt-utility-l1-1-0 0000000180059c94     ucrt:api-ms-win-crt-utility-l1-1-0.dll
 0002:00009ca8       __NULL_IMPORT_DESCRIPTOR   0000000180059ca8     libmwrgb2gray_tbb:libmwrgb2gray_tbb.dll
 0003:00011580       DYNAMIC_DIMENSION          000000018006e580     flightControlSystem_sfun_registry.obj
 0003:00013aa8       ?policy@?$SinglePolicy@Uempty_any@anyimpl@cvflann@@@anyimpl@cvflann@@0U?$big_any_policy@Uempty_any@anyimpl@cvflann@@@23@A 0000000180070aa8     extractSurfCore.obj
 0003:00013ab0       ?policy@?$SinglePolicy@PEBD@anyimpl@cvflann@@0U?$small_any_policy@PEBD@23@A 0000000180070ab0     extractSurfCore.obj
 0003:00013ab8       ?policy@?$SinglePolicy@H@anyimpl@cvflann@@0U?$small_any_policy@H@23@A 0000000180070ab8     extractSurfCore.obj
 0003:00013ac0       ?policy@?$SinglePolicy@M@anyimpl@cvflann@@0U?$small_any_policy@M@23@A 0000000180070ac0     extractSurfCore.obj
 0003:00013ac8       ?policy@?$SinglePolicy@_N@anyimpl@cvflann@@0U?$small_any_policy@_N@23@A 0000000180070ac8     extractSurfCore.obj
 0003:00013ad0       ?policy@?$SinglePolicy@W4flann_algorithm_t@cvflann@@@anyimpl@cvflann@@0U?$big_any_policy@W4flann_algorithm_t@cvflann@@@23@A 0000000180070ad0     extractSurfCore.obj
 0003:00013ad8       ?policy@?$SinglePolicy@W4flann_centers_init_t@cvflann@@@anyimpl@cvflann@@0U?$big_any_policy@W4flann_centers_init_t@cvflann@@@23@A 0000000180070ad8     extractSurfCore.obj
 0003:00013ae0       ?policy@?$SinglePolicy@I@anyimpl@cvflann@@0U?$small_any_policy@I@23@A 0000000180070ae0     extractSurfCore.obj
 0003:00013ae8       ?policy@?$SinglePolicy@V?$basic_string@DU?$char_traits@D@std@@V?$allocator@D@2@@std@@@anyimpl@cvflann@@0U?$big_any_policy@V?$basic_string@DU?$char_traits@D@std@@V?$allocator@D@2@@std@@@23@A 0000000180070ae8     extractSurfCore.obj
 0003:00013af0       __security_cookie_complement 0000000180070af0     MSVCRT:gs_cookie.obj
 0003:00013af8       __security_cookie          0000000180070af8     MSVCRT:gs_cookie.obj
 0003:00013b00       _fltused                   0000000180070b00     MSVCRT:fltused.obj
 0003:00013b10       __scrt_native_dllmain_reason 0000000180070b10     MSVCRT:utility.obj
 0003:00013b18       __isa_available            0000000180070b18     MSVCRT:cpu_disp.obj
 0003:00013b1c       __isa_enabled              0000000180070b1c     MSVCRT:cpu_disp.obj
 0003:00013b20       __memcpy_nt_iters          0000000180070b20     MSVCRT:cpu_disp.obj
 0003:00013b28       __memset_nt_iters          0000000180070b28     MSVCRT:cpu_disp.obj
 0003:00013b30       __scrt_ucrt_dll_is_in_use  0000000180070b30     MSVCRT:ucrt_stubs.obj
 0003:00013b40       ??_R0?AVbad_array_new_length@std@@@8 0000000180070b40     extractSurfCore.obj
 0003:00013b70       ??_R0?AVbad_alloc@std@@@8  0000000180070b70     extractSurfCore.obj
 0003:00013b98       ??_R0?AVexception@std@@@8  0000000180070b98     extractSurfCore.obj
 0003:00013bc0       ??_R0?AUempty_any@anyimpl@cvflann@@@8 0000000180070bc0     extractSurfCore.obj
 0003:00013bf0       ??_R0?AV?$basic_string@DU?$char_traits@D@std@@V?$allocator@D@2@@std@@@8 0000000180070bf0     extractSurfCore.obj
 0003:00013c48       ??_R0?AW4flann_algorithm_t@cvflann@@@8 0000000180070c48     extractSurfCore.obj
 0003:00013c80       ??_R0?AW4flann_centers_init_t@cvflann@@@8 0000000180070c80     extractSurfCore.obj
 0003:00013cb8       ??_R0PEBD@8                0000000180070cb8     extractSurfCore.obj
 0003:00013cd0       ??_R0I@8                   0000000180070cd0     extractSurfCore.obj
 0003:00013ce8       ??_R0_N@8                  0000000180070ce8     extractSurfCore.obj
 0003:00013d00       ??_R0M@8                   0000000180070d00     extractSurfCore.obj
 0003:00013d18       ??_R0H@8                   0000000180070d18     extractSurfCore.obj
 0003:00013d30       ??_R0?AU?$DefaultDeleter@UCvMat@@@cv@@@8 0000000180070d30     mwsurf.obj
 0003:00013d70       ??_R0?AUbase_any_policy@anyimpl@cvflann@@@8 0000000180070d70     extractSurfCore.obj
 0003:00013db0       ??_R0?AU?$big_any_policy@W4flann_centers_init_t@cvflann@@@anyimpl@cvflann@@@8 0000000180070db0     extractSurfCore.obj
 0003:00013e10       ??_R0?AU?$typed_base_any_policy@W4flann_centers_init_t@cvflann@@@anyimpl@cvflann@@@8 0000000180070e10     extractSurfCore.obj
 0003:00013e70       ??_R0?AU?$big_any_policy@W4flann_algorithm_t@cvflann@@@anyimpl@cvflann@@@8 0000000180070e70     extractSurfCore.obj
 0003:00013ed0       ??_R0?AU?$typed_base_any_policy@W4flann_algorithm_t@cvflann@@@anyimpl@cvflann@@@8 0000000180070ed0     extractSurfCore.obj
 0003:00013f30       ??_R0?AU?$big_any_policy@V?$basic_string@DU?$char_traits@D@std@@V?$allocator@D@2@@std@@@anyimpl@cvflann@@@8 0000000180070f30     extractSurfCore.obj
 0003:00013fb0       ??_R0?AU?$typed_base_any_policy@V?$basic_string@DU?$char_traits@D@std@@V?$allocator@D@2@@std@@@anyimpl@cvflann@@@8 0000000180070fb0     extractSurfCore.obj
 0003:00014030       ??_R0?AU?$small_any_policy@H@anyimpl@cvflann@@@8 0000000180071030     extractSurfCore.obj
 0003:00014070       ??_R0?AU?$typed_base_any_policy@H@anyimpl@cvflann@@@8 0000000180071070     extractSurfCore.obj
 0003:000140b0       ??_R0?AU?$small_any_policy@I@anyimpl@cvflann@@@8 00000001800710b0     extractSurfCore.obj
 0003:000140f0       ??_R0?AU?$typed_base_any_policy@I@anyimpl@cvflann@@@8 00000001800710f0     extractSurfCore.obj
 0003:00014130       ??_R0?AU?$small_any_policy@M@anyimpl@cvflann@@@8 0000000180071130     extractSurfCore.obj
 0003:00014170       ??_R0?AU?$typed_base_any_policy@M@anyimpl@cvflann@@@8 0000000180071170     extractSurfCore.obj
 0003:000141b0       ??_R0?AU?$small_any_policy@_N@anyimpl@cvflann@@@8 00000001800711b0     extractSurfCore.obj
 0003:000141f0       ??_R0?AU?$typed_base_any_policy@_N@anyimpl@cvflann@@@8 00000001800711f0     extractSurfCore.obj
 0003:00014240       ??_R0?AU?$big_any_policy@Uempty_any@anyimpl@cvflann@@@anyimpl@cvflann@@@8 0000000180071240     extractSurfCore.obj
 0003:000142a0       ??_R0?AU?$typed_base_any_policy@Uempty_any@anyimpl@cvflann@@@anyimpl@cvflann@@@8 00000001800712a0     extractSurfCore.obj
 0003:00014300       ??_R0?AU?$small_any_policy@PEBD@anyimpl@cvflann@@@8 0000000180071300     extractSurfCore.obj
 0003:00014340       ??_R0?AU?$typed_base_any_policy@PEBD@anyimpl@cvflann@@@8 0000000180071340     extractSurfCore.obj
 0003:00014388       ??_R0?AV_Ref_count_base@std@@@8 0000000180071388     extractSurfCore.obj
 0003:000143b8       ??_R0?AV?$_Ref_count_obj2@VMWSURF@cv@@@std@@@8 00000001800713b8     extractSurfCore.obj
 0003:000143f8       ??_R0?AVParallelLoopBody@cv@@@8 00000001800713f8     mwsurf.obj
 0003:00014428       ??_R0?AVFeature2D@cv@@@8   0000000180071428     mwsurf.obj
 0003:00014450       ??_R0?AVAlgorithm@cv@@@8   0000000180071450     mwsurf.obj
 0003:00014478       ??_R0?AVMWSURF@cv@@@8      0000000180071478     mwsurf.obj
 0003:00014498       ??_R0?AUMWSURFBuildInvoker@cv@@@8 0000000180071498     mwsurf.obj
 0003:000144c8       ??_R0?AUMWSURFFindInvoker@cv@@@8 00000001800714c8     mwsurf.obj
 0003:000144f8       ??_R0?AUMWSURFInvoker@cv@@@8 00000001800714f8     mwsurf.obj
 0003:00014520       ??_R0?AV?$_Ref_count_resource@PEAUCvMat@@U?$DefaultDeleter@UCvMat@@@cv@@@std@@@8 0000000180071520     mwsurf.obj
 0003:00014580       ??_R0?AVtype_info@@@8      0000000180071580     MSVCRT:std_type_info_static.obj
 0003:00014ad0       ?findMaximaInLayer_m@MWSURFFindInvoker@cv@@2Vrecursive_mutex@std@@A 0000000180071ad0     mwsurf.obj
 0003:00015090       __scrt_current_native_startup_state 0000000180072090     MSVCRT:utility.obj
 0003:00015098       __scrt_native_startup_lock 0000000180072098     MSVCRT:utility.obj
 0003:000150dc       __favor                    00000001800720dc     MSVCRT:cpu_disp.obj
 0003:000150e0       __scrt_debugger_hook_flag  00000001800720e0     MSVCRT:utility_desktop.obj
 0003:000150e8       __castguard_check_failure_os_handled_fptr 00000001800720e8     MSVCRT:guard_support.obj
 0003:000150f0       ?__type_info_root_node@@3U__type_info_node@@A 00000001800720f0     MSVCRT:tncleanup.obj
 0003:00015100       ?_OptionsStorage@?1??__local_stdio_printf_options@@9@4_KA 0000000180072100     MSVCRT:default_local_stdio_options.obj
 0003:00015108       ?_OptionsStorage@?1??__local_stdio_scanf_options@@9@4_KA 0000000180072108     MSVCRT:default_local_stdio_options.obj
 0003:00015110       ?_OptionsStorage@?1??__local_stdio_printf_options@@9@9 0000000180072110     <common>
 0003:00015118       __dyn_tls_init_callback    0000000180072118     <common>

 entry point at        0001:0004cd98

 Static symbols

 0002:fffb0000       $cppxdata$??$?6U?$char_traits@D@std@@@std@@YAAEAV?$basic_ostream@DU?$char_traits@D@std@@@0@AEAV10@PEBD@Z 0000000180000000     cgCommon.obj
 0002:fffb0000       $cppxdata$??$_Deallocate@$0BA@$0A@@std@@YAXPEAX_K@Z 0000000180000000     cgCommon.obj
 0002:fffb0000       $cppxdata$??0?$basic_string@DU?$char_traits@D@std@@V?$allocator@D@2@@std@@QEAA@AEBV01@@Z 0000000180000000     cgCommon.obj
 0002:fffb0000       $cppxdata$??0exception@std@@QEAA@AEBV01@@Z 0000000180000000     cgCommon.obj
 0002:fffb0000       $cppxdata$??0sentry@?$basic_ostream@DU?$char_traits@D@std@@@std@@QEAA@AEAV12@@Z 0000000180000000     cgCommon.obj
 0002:fffb0000       $cppxdata$??1_Sentry_base@?$basic_ostream@DU?$char_traits@D@std@@@std@@QEAA@XZ 0000000180000000     cgCommon.obj
 0002:fffb0000       $cppxdata$??1exception@std@@UEAA@XZ 0000000180000000     cgCommon.obj
 0002:fffb0000       $cppxdata$??1sentry@?$basic_ostream@DU?$char_traits@D@std@@@std@@QEAA@XZ 0000000180000000     cgCommon.obj
 0002:fffb0000       $cppxdata$?_Tidy_deallocate@?$basic_string@DU?$char_traits@D@std@@V?$allocator@D@2@@std@@AEAAXXZ 0000000180000000     cgCommon.obj
 0002:fffb0000       $cppxdata$?clone@?$big_any_policy@V?$basic_string@DU?$char_traits@D@std@@V?$allocator@D@2@@std@@@anyimpl@cvflann@@UEAAXPEBQEAXPEAPEAX@Z 0000000180000000     cgCommon.obj
 0002:fffb0000       $cppxdata$?copy@?$_Char_traits@DH@std@@SAPEADQEADQEBD_K@Z 0000000180000000     cgCommon.obj
 0002:fffb0000       $cppxdata$?copy_from_value@?$big_any_policy@V?$basic_string@DU?$char_traits@D@std@@V?$allocator@D@2@@std@@@anyimpl@cvflann@@UEAAXPEBXPEAPEAX@Z 0000000180000000     cgCommon.obj
 0002:fffb0000       $cppxdata$?length@?$_Narrow_char_traits@DH@std@@SA_KQEBD@Z 0000000180000000     cgCommon.obj
 0002:fffb0000       $cppxdata$?move@?$_Char_traits@DH@std@@SAPEADQEADQEBD_K@Z 0000000180000000     cgCommon.obj
 0002:fffb0000       $handlerMap$??$?6U?$char_traits@D@std@@@std@@YAAEAV?$basic_ostream@DU?$char_traits@D@std@@@0@AEAV10@PEBD@Z 0000000180000000     cgCommon.obj
 0002:fffb0000       $ip2state$??$?6U?$char_traits@D@std@@@std@@YAAEAV?$basic_ostream@DU?$char_traits@D@std@@@0@AEAV10@PEBD@Z 0000000180000000     cgCommon.obj
 0002:fffb0000       $ip2state$??$_Deallocate@$0BA@$0A@@std@@YAXPEAX_K@Z 0000000180000000     cgCommon.obj
 0002:fffb0000       $ip2state$??0?$basic_string@DU?$char_traits@D@std@@V?$allocator@D@2@@std@@QEAA@AEBV01@@Z 0000000180000000     cgCommon.obj
 0002:fffb0000       $ip2state$??0exception@std@@QEAA@AEBV01@@Z 0000000180000000     cgCommon.obj
 0002:fffb0000       $ip2state$??0sentry@?$basic_ostream@DU?$char_traits@D@std@@@std@@QEAA@AEAV12@@Z 0000000180000000     cgCommon.obj
 0002:fffb0000       $ip2state$??1_Sentry_base@?$basic_ostream@DU?$char_traits@D@std@@@std@@QEAA@XZ 0000000180000000     cgCommon.obj
 0002:fffb0000       $ip2state$??1exception@std@@UEAA@XZ 0000000180000000     cgCommon.obj
 0002:fffb0000       $ip2state$??1sentry@?$basic_ostream@DU?$char_traits@D@std@@@std@@QEAA@XZ 0000000180000000     cgCommon.obj
 0002:fffb0000       $ip2state$?_Tidy_deallocate@?$basic_string@DU?$char_traits@D@std@@V?$allocator@D@2@@std@@AEAAXXZ 0000000180000000     cgCommon.obj
 0002:fffb0000       $ip2state$?clone@?$big_any_policy@V?$basic_string@DU?$char_traits@D@std@@V?$allocator@D@2@@std@@@anyimpl@cvflann@@UEAAXPEBQEAXPEAPEAX@Z 0000000180000000     cgCommon.obj
 0002:fffb0000       $ip2state$?copy@?$_Char_traits@DH@std@@SAPEADQEADQEBD_K@Z 0000000180000000     cgCommon.obj
 0002:fffb0000       $ip2state$?copy_from_value@?$big_any_policy@V?$basic_string@DU?$char_traits@D@std@@V?$allocator@D@2@@std@@@anyimpl@cvflann@@UEAAXPEBXPEAPEAX@Z 0000000180000000     cgCommon.obj
 0002:fffb0000       $ip2state$?length@?$_Narrow_char_traits@DH@std@@SA_KQEBD@Z 0000000180000000     cgCommon.obj
 0002:fffb0000       $ip2state$?move@?$_Char_traits@DH@std@@SAPEADQEADQEBD_K@Z 0000000180000000     cgCommon.obj
 0002:fffb0000       $stateUnwindMap$??$?6U?$char_traits@D@std@@@std@@YAAEAV?$basic_ostream@DU?$char_traits@D@std@@@0@AEAV10@PEBD@Z 0000000180000000     cgCommon.obj
 0002:fffb0000       $stateUnwindMap$??0?$basic_string@DU?$char_traits@D@std@@V?$allocator@D@2@@std@@QEAA@AEBV01@@Z 0000000180000000     cgCommon.obj
 0002:fffb0000       $stateUnwindMap$??0sentry@?$basic_ostream@DU?$char_traits@D@std@@@std@@QEAA@AEAV12@@Z 0000000180000000     cgCommon.obj
 0002:fffb0000       $stateUnwindMap$?clone@?$big_any_policy@V?$basic_string@DU?$char_traits@D@std@@V?$allocator@D@2@@std@@@anyimpl@cvflann@@UEAAXPEBQEAXPEAPEAX@Z 0000000180000000     cgCommon.obj
 0002:fffb0000       $stateUnwindMap$?copy_from_value@?$big_any_policy@V?$basic_string@DU?$char_traits@D@std@@V?$allocator@D@2@@std@@@anyimpl@cvflann@@UEAAXPEBXPEAPEAX@Z 0000000180000000     cgCommon.obj
 0002:fffb0000       $tryMap$??$?6U?$char_traits@D@std@@@std@@YAAEAV?$basic_ostream@DU?$char_traits@D@std@@@0@AEAV10@PEBD@Z 0000000180000000     cgCommon.obj
 0002:fffb0000       $unwind$??$?0V?$allocator@D@std@@$$V@?$_Compressed_pair@V?$allocator@D@std@@V?$_String_val@U?$_Simple_types@D@std@@@2@$00@std@@QEAA@U_One_then_variadic_args_t@1@$$QEAV?$allocator@D@1@@Z 0000000180000000     cgCommon.obj
 0002:fffb0000       $unwind$??$?6U?$char_traits@D@std@@@std@@YAAEAV?$basic_ostream@DU?$char_traits@D@std@@@0@AEAV10@PEBD@Z 0000000180000000     cgCommon.obj
 0002:fffb0000       $unwind$??$_Allocate@$0BA@U_Default_allocate_traits@std@@$0A@@std@@YAPEAX_K@Z 0000000180000000     cgCommon.obj
 0002:fffb0000       $unwind$??$_Allocate_manually_vector_aligned@U_Default_allocate_traits@std@@@std@@YAPEAX_K@Z 0000000180000000     cgCommon.obj
 0002:fffb0000       $unwind$??$_Construct_in_place@PEADAEBQEAD@std@@YAXAEAPEADAEBQEAD@Z 0000000180000000     cgCommon.obj
 0002:fffb0000       $unwind$??$_Deallocate@$0BA@$0A@@std@@YAXPEAX_K@Z 0000000180000000     cgCommon.obj
 0002:fffb0000       $unwind$??$_Get_size_of_n@$00@std@@YA_K_K@Z 0000000180000000     cgCommon.obj
 0002:fffb0000       $unwind$??$_Getvals@_W@?$time_get@DV?$istreambuf_iterator@DU?$char_traits@D@std@@@std@@@std@@IEAAX_WAEBV_Locinfo@1@@Z 0000000180000000     cgCommon.obj
 0002:fffb0000       $unwind$??$_Getvals@_W@?$time_get@_WV?$istreambuf_iterator@_WU?$char_traits@_W@std@@@std@@@std@@IEAAX_WAEBV_Locinfo@1@@Z 0000000180000000     cgCommon.obj
 0002:fffb0000       $unwind$??$_Maklocstr@D@std@@YAPEADPEBDPEADAEBU_Cvtvec@@@Z 0000000180000000     cgCommon.obj
 0002:fffb0000       $unwind$??$_Maklocstr@_W@std@@YAPEA_WPEBDPEA_WAEBU_Cvtvec@@@Z 0000000180000000     cgCommon.obj
 0002:fffb0000       $unwind$??$_Reallocate_for@V<lambda_66f57f934f28d61049862f64df852ff0>@@PEBD@?$basic_string@DU?$char_traits@D@std@@V?$allocator@D@2@@std@@AEAAAEAV01@_KV<lambda_66f57f934f28d61049862f64df852ff0>@@PEBD@Z 0000000180000000     cgCommon.obj
 0002:fffb0000       $unwind$??$max@_K@std@@YAAEB_KAEB_K0@Z 0000000180000000     cgCommon.obj
 0002:fffb0000       $unwind$??$min@_K@std@@YAAEB_KAEB_K0@Z 0000000180000000     cgCommon.obj
 0002:fffb0000       $unwind$??0?$_String_val@U?$_Simple_types@D@std@@@std@@QEAA@XZ 0000000180000000     cgCommon.obj
 0002:fffb0000       $unwind$??0?$basic_string@DU?$char_traits@D@std@@V?$allocator@D@2@@std@@QEAA@AEBV01@@Z 0000000180000000     cgCommon.obj
 0002:fffb0000       $unwind$??0_Sentry_base@?$basic_ostream@DU?$char_traits@D@std@@@std@@QEAA@AEAV12@@Z 0000000180000000     cgCommon.obj
 0002:fffb0000       $unwind$??0bad_alloc@std@@AEAA@QEBD@Z 0000000180000000     cgCommon.obj
 0002:fffb0000       $unwind$??0bad_alloc@std@@QEAA@AEBV01@@Z 0000000180000000     cgCommon.obj
 0002:fffb0000       $unwind$??0bad_array_new_length@std@@QEAA@AEBV01@@Z 0000000180000000     cgCommon.obj
 0002:fffb0000       $unwind$??0bad_array_new_length@std@@QEAA@XZ 0000000180000000     cgCommon.obj
 0002:fffb0000       $unwind$??0exception@std@@QEAA@AEBV01@@Z 0000000180000000     cgCommon.obj
 0002:fffb0000       $unwind$??0exception@std@@QEAA@QEBDH@Z 0000000180000000     cgCommon.obj
 0002:fffb0000       $unwind$??0sentry@?$basic_ostream@DU?$char_traits@D@std@@@std@@QEAA@AEAV12@@Z 0000000180000000     cgCommon.obj
 0002:fffb0000       $unwind$??1?$_Compressed_pair@V?$allocator@D@std@@V?$_String_val@U?$_Simple_types@D@std@@@2@$00@std@@QEAA@XZ 0000000180000000     cgCommon.obj
 0002:fffb0000       $unwind$??1?$_String_val@U?$_Simple_types@D@std@@@std@@QEAA@XZ 0000000180000000     cgCommon.obj
 0002:fffb0000       $unwind$??1?$basic_string@DU?$char_traits@D@std@@V?$allocator@D@2@@std@@QEAA@XZ 0000000180000000     cgCommon.obj
 0002:fffb0000       $unwind$??1?$big_any_policy@Uempty_any@anyimpl@cvflann@@@anyimpl@cvflann@@UEAA@XZ 0000000180000000     cgCommon.obj
 0002:fffb0000       $unwind$??1?$big_any_policy@V?$basic_string@DU?$char_traits@D@std@@V?$allocator@D@2@@std@@@anyimpl@cvflann@@UEAA@XZ 0000000180000000     cgCommon.obj
 0002:fffb0000       $unwind$??1?$big_any_policy@W4flann_algorithm_t@cvflann@@@anyimpl@cvflann@@UEAA@XZ 0000000180000000     cgCommon.obj
 0002:fffb0000       $unwind$??1?$big_any_policy@W4flann_centers_init_t@cvflann@@@anyimpl@cvflann@@UEAA@XZ 0000000180000000     cgCommon.obj
 0002:fffb0000       $unwind$??1?$small_any_policy@H@anyimpl@cvflann@@UEAA@XZ 0000000180000000     cgCommon.obj
 0002:fffb0000       $unwind$??1?$small_any_policy@I@anyimpl@cvflann@@UEAA@XZ 0000000180000000     cgCommon.obj
 0002:fffb0000       $unwind$??1?$small_any_policy@M@anyimpl@cvflann@@UEAA@XZ 0000000180000000     cgCommon.obj
 0002:fffb0000       $unwind$??1?$small_any_policy@PEBD@anyimpl@cvflann@@UEAA@XZ 0000000180000000     cgCommon.obj
 0002:fffb0000       $unwind$??1?$small_any_policy@_N@anyimpl@cvflann@@UEAA@XZ 0000000180000000     cgCommon.obj
 0002:fffb0000       $unwind$??1?$typed_base_any_policy@H@anyimpl@cvflann@@UEAA@XZ 0000000180000000     cgCommon.obj
 0002:fffb0000       $unwind$??1?$typed_base_any_policy@I@anyimpl@cvflann@@UEAA@XZ 0000000180000000     cgCommon.obj
 0002:fffb0000       $unwind$??1?$typed_base_any_policy@M@anyimpl@cvflann@@UEAA@XZ 0000000180000000     cgCommon.obj
 0002:fffb0000       $unwind$??1?$typed_base_any_policy@PEBD@anyimpl@cvflann@@UEAA@XZ 0000000180000000     cgCommon.obj
 0002:fffb0000       $unwind$??1?$typed_base_any_policy@Uempty_any@anyimpl@cvflann@@@anyimpl@cvflann@@UEAA@XZ 0000000180000000     cgCommon.obj
 0002:fffb0000       $unwind$??1?$typed_base_any_policy@V?$basic_string@DU?$char_traits@D@std@@V?$allocator@D@2@@std@@@anyimpl@cvflann@@UEAA@XZ 0000000180000000     cgCommon.obj
 0002:fffb0000       $unwind$??1?$typed_base_any_policy@W4flann_algorithm_t@cvflann@@@anyimpl@cvflann@@UEAA@XZ 0000000180000000     cgCommon.obj
 0002:fffb0000       $unwind$??1?$typed_base_any_policy@W4flann_centers_init_t@cvflann@@@anyimpl@cvflann@@UEAA@XZ 0000000180000000     cgCommon.obj
 0002:fffb0000       $unwind$??1?$typed_base_any_policy@_N@anyimpl@cvflann@@UEAA@XZ 0000000180000000     cgCommon.obj
 0002:fffb0000       $unwind$??1_Sentry_base@?$basic_ostream@DU?$char_traits@D@std@@@std@@QEAA@XZ 0000000180000000     cgCommon.obj
 0002:fffb0000       $unwind$??1bad_alloc@std@@UEAA@XZ 0000000180000000     cgCommon.obj
 0002:fffb0000       $unwind$??1bad_array_new_length@std@@UEAA@XZ 0000000180000000     cgCommon.obj
 0002:fffb0000       $unwind$??1exception@std@@UEAA@XZ 0000000180000000     cgCommon.obj
 0002:fffb0000       $unwind$??1sentry@?$basic_ostream@DU?$char_traits@D@std@@@std@@QEAA@XZ 0000000180000000     cgCommon.obj
 0002:fffb0000       $unwind$??4?$basic_string@DU?$char_traits@D@std@@V?$allocator@D@2@@std@@QEAAAEAV01@AEBV01@@Z 0000000180000000     cgCommon.obj
 0002:fffb0000       $unwind$??6anyimpl@cvflann@@YAAEAV?$basic_ostream@DU?$char_traits@D@std@@@std@@AEAV23@AEBUempty_any@01@@Z 0000000180000000     cgCommon.obj
 0002:fffb0000       $unwind$??R<lambda_66f57f934f28d61049862f64df852ff0>@@QEBAXQEAD_KQEBD@Z 0000000180000000     cgCommon.obj
 0002:fffb0000       $unwind$??_G?$basic_string@DU?$char_traits@D@std@@V?$allocator@D@2@@std@@QEAAPEAXI@Z 0000000180000000     cgCommon.obj
 0002:fffb0000       $unwind$??_G?$big_any_policy@Uempty_any@anyimpl@cvflann@@@anyimpl@cvflann@@UEAAPEAXI@Z 0000000180000000     cgCommon.obj
 0002:fffb0000       $unwind$??_G?$big_any_policy@V?$basic_string@DU?$char_traits@D@std@@V?$allocator@D@2@@std@@@anyimpl@cvflann@@UEAAPEAXI@Z 0000000180000000     cgCommon.obj
 0002:fffb0000       $unwind$??_G?$big_any_policy@W4flann_algorithm_t@cvflann@@@anyimpl@cvflann@@UEAAPEAXI@Z 0000000180000000     cgCommon.obj
 0002:fffb0000       $unwind$??_G?$big_any_policy@W4flann_centers_init_t@cvflann@@@anyimpl@cvflann@@UEAAPEAXI@Z 0000000180000000     cgCommon.obj
 0002:fffb0000       $unwind$??_G?$small_any_policy@H@anyimpl@cvflann@@UEAAPEAXI@Z 0000000180000000     cgCommon.obj
 0002:fffb0000       $unwind$??_G?$small_any_policy@I@anyimpl@cvflann@@UEAAPEAXI@Z 0000000180000000     cgCommon.obj
 0002:fffb0000       $unwind$??_G?$small_any_policy@M@anyimpl@cvflann@@UEAAPEAXI@Z 0000000180000000     cgCommon.obj
 0002:fffb0000       $unwind$??_G?$small_any_policy@PEBD@anyimpl@cvflann@@UEAAPEAXI@Z 0000000180000000     cgCommon.obj
 0002:fffb0000       $unwind$??_G?$small_any_policy@_N@anyimpl@cvflann@@UEAAPEAXI@Z 0000000180000000     cgCommon.obj
 0002:fffb0000       $unwind$??_Gbad_alloc@std@@UEAAPEAXI@Z 0000000180000000     cgCommon.obj
 0002:fffb0000       $unwind$??_Gbad_array_new_length@std@@UEAAPEAXI@Z 0000000180000000     cgCommon.obj
 0002:fffb0000       $unwind$??_Gbase_any_policy@anyimpl@cvflann@@UEAAPEAXI@Z 0000000180000000     cgCommon.obj
 0002:fffb0000       $unwind$??_Gexception@std@@UEAAPEAXI@Z 0000000180000000     cgCommon.obj
 0002:fffb0000       $unwind$?_Adjust_manually_vector_aligned@std@@YAXAEAPEAXAEA_K@Z 0000000180000000     cgCommon.obj
 0002:fffb0000       $unwind$?_Allocate@_Default_allocate_traits@std@@SAPEAX_K@Z 0000000180000000     cgCommon.obj
 0002:fffb0000       $unwind$?_Calculate_growth@?$basic_string@DU?$char_traits@D@std@@V?$allocator@D@2@@std@@AEBA_K_K@Z 0000000180000000     cgCommon.obj
 0002:fffb0000       $unwind$?_Calculate_growth@?$basic_string@DU?$char_traits@D@std@@V?$allocator@D@2@@std@@CA_K_K00@Z 0000000180000000     cgCommon.obj
 0002:fffb0000       $unwind$?_Construct_lv_contents@?$basic_string@DU?$char_traits@D@std@@V?$allocator@D@2@@std@@AEAAXAEBV12@@Z 0000000180000000     cgCommon.obj
 0002:fffb0000       $unwind$?_Copy_assign@?$basic_string@DU?$char_traits@D@std@@V?$allocator@D@2@@std@@AEAAXAEBV12@U?$integral_constant@_N$0A@@2@@Z 0000000180000000     cgCommon.obj
 0002:fffb0000       $unwind$?_Getal@?$basic_string@DU?$char_traits@D@std@@V?$allocator@D@2@@std@@AEAAAEAV?$allocator@D@2@XZ 0000000180000000     cgCommon.obj
 0002:fffb0000       $unwind$?_Getal@?$basic_string@DU?$char_traits@D@std@@V?$allocator@D@2@@std@@AEBAAEBV?$allocator@D@2@XZ 0000000180000000     cgCommon.obj
 0002:fffb0000       $unwind$?_Large_string_engaged@?$_String_val@U?$_Simple_types@D@std@@@std@@QEBA_NXZ 0000000180000000     cgCommon.obj
 0002:fffb0000       $unwind$?_Maklocwcs@std@@YAPEA_WPEB_W@Z 0000000180000000     cgCommon.obj
 0002:fffb0000       $unwind$?_Myptr@?$_String_val@U?$_Simple_types@D@std@@@std@@QEAAPEADXZ 0000000180000000     cgCommon.obj
 0002:fffb0000       $unwind$?_Myptr@?$_String_val@U?$_Simple_types@D@std@@@std@@QEBAPEBDXZ 0000000180000000     cgCommon.obj
 0002:fffb0000       $unwind$?_Throw_bad_array_new_length@std@@YAXXZ 0000000180000000     cgCommon.obj
 0002:fffb0000       $unwind$?_Tidy_deallocate@?$basic_string@DU?$char_traits@D@std@@V?$allocator@D@2@@std@@AEAAXXZ 0000000180000000     cgCommon.obj
 0002:fffb0000       $unwind$?_Xlen_string@std@@YAXXZ 0000000180000000     cgCommon.obj
 0002:fffb0000       $unwind$?allocate@?$allocator@D@std@@QEAAPEAD_K@Z 0000000180000000     cgCommon.obj
 0002:fffb0000       $unwind$?assign@?$basic_string@DU?$char_traits@D@std@@V?$allocator@D@2@@std@@QEAAAEAV12@QEBD_K@Z 0000000180000000     cgCommon.obj
 0002:fffb0000       $unwind$?c_str@?$basic_string@DU?$char_traits@D@std@@V?$allocator@D@2@@std@@QEBAPEBDXZ 0000000180000000     cgCommon.obj
 0002:fffb0000       $unwind$?catch$1@?0???$?6U?$char_traits@D@std@@@std@@YAAEAV?$basic_ostream@DU?$char_traits@D@std@@@0@AEAV10@PEBD@Z@4HA 0000000180000000     cgCommon.obj
 0002:fffb0000       $unwind$?clone@?$big_any_policy@Uempty_any@anyimpl@cvflann@@@anyimpl@cvflann@@UEAAXPEBQEAXPEAPEAX@Z 0000000180000000     cgCommon.obj
 0002:fffb0000       $unwind$?clone@?$big_any_policy@V?$basic_string@DU?$char_traits@D@std@@V?$allocator@D@2@@std@@@anyimpl@cvflann@@UEAAXPEBQEAXPEAPEAX@Z 0000000180000000     cgCommon.obj
 0002:fffb0000       $unwind$?clone@?$big_any_policy@W4flann_algorithm_t@cvflann@@@anyimpl@cvflann@@UEAAXPEBQEAXPEAPEAX@Z 0000000180000000     cgCommon.obj
 0002:fffb0000       $unwind$?clone@?$big_any_policy@W4flann_centers_init_t@cvflann@@@anyimpl@cvflann@@UEAAXPEBQEAXPEAPEAX@Z 0000000180000000     cgCommon.obj
 0002:fffb0000       $unwind$?copy@?$_Char_traits@DH@std@@SAPEADQEADQEBD_K@Z 0000000180000000     cgCommon.obj
 0002:fffb0000       $unwind$?copy_from_value@?$big_any_policy@Uempty_any@anyimpl@cvflann@@@anyimpl@cvflann@@UEAAXPEBXPEAPEAX@Z 0000000180000000     cgCommon.obj
 0002:fffb0000       $unwind$?copy_from_value@?$big_any_policy@V?$basic_string@DU?$char_traits@D@std@@V?$allocator@D@2@@std@@@anyimpl@cvflann@@UEAAXPEBXPEAPEAX@Z 0000000180000000     cgCommon.obj
 0002:fffb0000       $unwind$?copy_from_value@?$big_any_policy@W4flann_algorithm_t@cvflann@@@anyimpl@cvflann@@UEAAXPEBXPEAPEAX@Z 0000000180000000     cgCommon.obj
 0002:fffb0000       $unwind$?copy_from_value@?$big_any_policy@W4flann_centers_init_t@cvflann@@@anyimpl@cvflann@@UEAAXPEBXPEAPEAX@Z 0000000180000000     cgCommon.obj
 0002:fffb0000       $unwind$?copy_from_value@?$small_any_policy@H@anyimpl@cvflann@@UEAAXPEBXPEAPEAX@Z 0000000180000000     cgCommon.obj
 0002:fffb0000       $unwind$?copy_from_value@?$small_any_policy@I@anyimpl@cvflann@@UEAAXPEBXPEAPEAX@Z 0000000180000000     cgCommon.obj
 0002:fffb0000       $unwind$?copy_from_value@?$small_any_policy@M@anyimpl@cvflann@@UEAAXPEBXPEAPEAX@Z 0000000180000000     cgCommon.obj
 0002:fffb0000       $unwind$?copy_from_value@?$small_any_policy@PEBD@anyimpl@cvflann@@UEAAXPEBXPEAPEAX@Z 0000000180000000     cgCommon.obj
 0002:fffb0000       $unwind$?copy_from_value@?$small_any_policy@_N@anyimpl@cvflann@@UEAAXPEBXPEAPEAX@Z 0000000180000000     cgCommon.obj
 0002:fffb0000       $unwind$?deallocate@?$allocator@D@std@@QEAAXQEAD_K@Z 0000000180000000     cgCommon.obj
 0002:fffb0000       $unwind$?dtor$0@?0???$?6U?$char_traits@D@std@@@std@@YAAEAV?$basic_ostream@DU?$char_traits@D@std@@@0@AEAV10@PEBD@Z@4HA 0000000180000000     cgCommon.obj
 0002:fffb0000       $unwind$?dtor$0@?0???0?$basic_string@DU?$char_traits@D@std@@V?$allocator@D@2@@std@@QEAA@AEBV01@@Z@4HA 0000000180000000     cgCommon.obj
 0002:fffb0000       $unwind$?dtor$0@?0???0sentry@?$basic_ostream@DU?$char_traits@D@std@@@std@@QEAA@AEAV12@@Z@4HA 0000000180000000     cgCommon.obj
 0002:fffb0000       $unwind$?dtor$0@?0??clone@?$big_any_policy@V?$basic_string@DU?$char_traits@D@std@@V?$allocator@D@2@@std@@@anyimpl@cvflann@@UEAAXPEBQEAXPEAPEAX@Z@4HA 0000000180000000     cgCommon.obj
 0002:fffb0000       $unwind$?dtor$0@?0??copy_from_value@?$big_any_policy@V?$basic_string@DU?$char_traits@D@std@@V?$allocator@D@2@@std@@@anyimpl@cvflann@@UEAAXPEBXPEAPEAX@Z@4HA 0000000180000000     cgCommon.obj
 0002:fffb0000       $unwind$?eq_int_type@?$_Narrow_char_traits@DH@std@@SA_NAEBH0@Z 0000000180000000     cgCommon.obj
 0002:fffb0000       $unwind$?length@?$_Narrow_char_traits@DH@std@@SA_KQEBD@Z 0000000180000000     cgCommon.obj
 0002:fffb0000       $unwind$?max_size@?$basic_string@DU?$char_traits@D@std@@V?$allocator@D@2@@std@@QEBA_KXZ 0000000180000000     cgCommon.obj
 0002:fffb0000       $unwind$?move@?$_Char_traits@DH@std@@SAPEADQEADQEBD_K@Z 0000000180000000     cgCommon.obj
 0002:fffb0000       $unwind$?move@?$big_any_policy@V?$basic_string@DU?$char_traits@D@std@@V?$allocator@D@2@@std@@@anyimpl@cvflann@@UEAAXPEBQEAXPEAPEAX@Z 0000000180000000     cgCommon.obj
 0002:fffb0000       $unwind$?print@?$big_any_policy@Uempty_any@anyimpl@cvflann@@@anyimpl@cvflann@@UEAAXAEAV?$basic_ostream@DU?$char_traits@D@std@@@std@@PEBQEAX@Z 0000000180000000     cgCommon.obj
 0002:fffb0000       $unwind$?print@?$big_any_policy@V?$basic_string@DU?$char_traits@D@std@@V?$allocator@D@2@@std@@@anyimpl@cvflann@@UEAAXAEAV?$basic_ostream@DU?$char_traits@D@std@@@std@@PEBQEAX@Z 0000000180000000     cgCommon.obj
 0002:fffb0000       $unwind$?print@?$big_any_policy@W4flann_algorithm_t@cvflann@@@anyimpl@cvflann@@UEAAXAEAV?$basic_ostream@DU?$char_traits@D@std@@@std@@PEBQEAX@Z 0000000180000000     cgCommon.obj
 0002:fffb0000       $unwind$?print@?$big_any_policy@W4flann_centers_init_t@cvflann@@@anyimpl@cvflann@@UEAAXAEAV?$basic_ostream@DU?$char_traits@D@std@@@std@@PEBQEAX@Z 0000000180000000     cgCommon.obj
 0002:fffb0000       $unwind$?print@?$small_any_policy@H@anyimpl@cvflann@@UEAAXAEAV?$basic_ostream@DU?$char_traits@D@std@@@std@@PEBQEAX@Z 0000000180000000     cgCommon.obj
 0002:fffb0000       $unwind$?print@?$small_any_policy@I@anyimpl@cvflann@@UEAAXAEAV?$basic_ostream@DU?$char_traits@D@std@@@std@@PEBQEAX@Z 0000000180000000     cgCommon.obj
 0002:fffb0000       $unwind$?print@?$small_any_policy@M@anyimpl@cvflann@@UEAAXAEAV?$basic_ostream@DU?$char_traits@D@std@@@std@@PEBQEAX@Z 0000000180000000     cgCommon.obj
 0002:fffb0000       $unwind$?print@?$small_any_policy@PEBD@anyimpl@cvflann@@UEAAXAEAV?$basic_ostream@DU?$char_traits@D@std@@@std@@PEBQEAX@Z 0000000180000000     cgCommon.obj
 0002:fffb0000       $unwind$?print@?$small_any_policy@_N@anyimpl@cvflann@@UEAAXAEAV?$basic_ostream@DU?$char_traits@D@std@@@std@@PEBQEAX@Z 0000000180000000     cgCommon.obj
 0002:fffb0000       $unwind$?static_delete@?$big_any_policy@Uempty_any@anyimpl@cvflann@@@anyimpl@cvflann@@UEAAXPEAPEAX@Z 0000000180000000     cgCommon.obj
 0002:fffb0000       $unwind$?static_delete@?$big_any_policy@V?$basic_string@DU?$char_traits@D@std@@V?$allocator@D@2@@std@@@anyimpl@cvflann@@UEAAXPEAPEAX@Z 0000000180000000     cgCommon.obj
 0002:fffb0000       $unwind$?static_delete@?$big_any_policy@W4flann_algorithm_t@cvflann@@@anyimpl@cvflann@@UEAAXPEAPEAX@Z 0000000180000000     cgCommon.obj
 0002:fffb0000       $unwind$?static_delete@?$big_any_policy@W4flann_centers_init_t@cvflann@@@anyimpl@cvflann@@UEAAXPEAPEAX@Z 0000000180000000     cgCommon.obj
 0002:fffb0000       $unwind$?what@exception@std@@UEBAPEBDXZ 0000000180000000     cgCommon.obj
 0002:fffb0000       $unwind$wmemcpy            0000000180000000     cgCommon.obj
 0002:fffb0000       ??policy$initializer$@?$SinglePolicy@H@anyimpl@cvflann@@0P6AXXZEA@@3P6AXXZEA 0000000180000000     cgCommon.obj
 0002:fffb0000       ??policy$initializer$@?$SinglePolicy@I@anyimpl@cvflann@@0P6AXXZEA@@3P6AXXZEA 0000000180000000     cgCommon.obj
 0002:fffb0000       ??policy$initializer$@?$SinglePolicy@M@anyimpl@cvflann@@0P6AXXZEA@@3P6AXXZEA 0000000180000000     cgCommon.obj
 0002:fffb0000       ??policy$initializer$@?$SinglePolicy@PEBD@anyimpl@cvflann@@0P6AXXZEA@@3P6AXXZEA 0000000180000000     cgCommon.obj
 0002:fffb0000       ??policy$initializer$@?$SinglePolicy@Uempty_any@anyimpl@cvflann@@@anyimpl@cvflann@@0P6AXXZEA@@3P6AXXZEA 0000000180000000     cgCommon.obj
 0002:fffb0000       ??policy$initializer$@?$SinglePolicy@V?$basic_string@DU?$char_traits@D@std@@V?$allocator@D@2@@std@@@anyimpl@cvflann@@0P6AXXZEA@@3P6AXXZEA 0000000180000000     cgCommon.obj
 0002:fffb0000       ??policy$initializer$@?$SinglePolicy@W4flann_algorithm_t@cvflann@@@anyimpl@cvflann@@0P6AXXZEA@@3P6AXXZEA 0000000180000000     cgCommon.obj
 0002:fffb0000       ??policy$initializer$@?$SinglePolicy@W4flann_centers_init_t@cvflann@@@anyimpl@cvflann@@0P6AXXZEA@@3P6AXXZEA 0000000180000000     cgCommon.obj
 0002:fffb0000       ??policy$initializer$@?$SinglePolicy@_N@anyimpl@cvflann@@0P6AXXZEA@@3P6AXXZEA 0000000180000000     cgCommon.obj
 0001:fffff000       ?catch$1@?0???$?6U?$char_traits@D@std@@@std@@YAAEAV?$basic_ostream@DU?$char_traits@D@std@@@0@AEAV10@PEBD@Z@4HA 0000000180000000 f   cgCommon.obj
 0001:fffff000       ?dtor$0@?0???$?6U?$char_traits@D@std@@@std@@YAAEAV?$basic_ostream@DU?$char_traits@D@std@@@0@AEAV10@PEBD@Z@4HA 0000000180000000 f   cgCommon.obj
 0001:fffff000       ?dtor$0@?0???0?$basic_string@DU?$char_traits@D@std@@V?$allocator@D@2@@std@@QEAA@AEBV01@@Z@4HA 0000000180000000 f   cgCommon.obj
 0001:fffff000       ?dtor$0@?0???0sentry@?$basic_ostream@DU?$char_traits@D@std@@@std@@QEAA@AEAV12@@Z@4HA 0000000180000000 f   cgCommon.obj
 0001:fffff000       ?dtor$0@?0??clone@?$big_any_policy@V?$basic_string@DU?$char_traits@D@std@@V?$allocator@D@2@@std@@@anyimpl@cvflann@@UEAAXPEBQEAXPEAPEAX@Z@4HA 0000000180000000 f   cgCommon.obj
 0001:fffff000       ?dtor$0@?0??copy_from_value@?$big_any_policy@V?$basic_string@DU?$char_traits@D@std@@V?$allocator@D@2@@std@@@anyimpl@cvflann@@UEAAXPEBXPEAPEAX@Z@4HA 0000000180000000 f   cgCommon.obj
 0002:fffb0000       $cppxdata$??$?0$$V@?$_Ref_count_obj2@VMWSURF@cv@@@std@@QEAA@XZ 0000000180000000     fastHessianDetectorCore.obj
 0002:fffb0000       $cppxdata$??$?6U?$char_traits@D@std@@@std@@YAAEAV?$basic_ostream@DU?$char_traits@D@std@@@0@AEAV10@PEBD@Z 0000000180000000     fastHessianDetectorCore.obj
 0002:fffb0000       $cppxdata$??$_Deallocate@$0BA@$0A@@std@@YAXPEAX_K@Z 0000000180000000     fastHessianDetectorCore.obj
 0002:fffb0000       $cppxdata$??$make_shared@VMWSURF@cv@@$$V@std@@YA?AV?$shared_ptr@VMWSURF@cv@@@0@XZ 0000000180000000     fastHessianDetectorCore.obj
 0002:fffb0000       $cppxdata$??0?$basic_string@DU?$char_traits@D@std@@V?$allocator@D@2@@std@@QEAA@AEBV01@@Z 0000000180000000     fastHessianDetectorCore.obj
 0002:fffb0000       $cppxdata$??0?$basic_string@DU?$char_traits@D@std@@V?$allocator@D@2@@std@@QEAA@QEBD@Z 0000000180000000     fastHessianDetectorCore.obj
 0002:fffb0000       $cppxdata$??0Mat@cv@@QEAA@HHHPEAX_K@Z 0000000180000000     fastHessianDetectorCore.obj
 0002:fffb0000       $cppxdata$??0exception@std@@QEAA@AEBV01@@Z 0000000180000000     fastHessianDetectorCore.obj
 0002:fffb0000       $cppxdata$??0sentry@?$basic_ostream@DU?$char_traits@D@std@@@std@@QEAA@AEAV12@@Z 0000000180000000     fastHessianDetectorCore.obj
 0002:fffb0000       $cppxdata$??1Mat@cv@@QEAA@XZ 0000000180000000     fastHessianDetectorCore.obj
 0002:fffb0000       $cppxdata$??1_Sentry_base@?$basic_ostream@DU?$char_traits@D@std@@@std@@QEAA@XZ 0000000180000000     fastHessianDetectorCore.obj
 0002:fffb0000       $cppxdata$??1exception@std@@UEAA@XZ 0000000180000000     fastHessianDetectorCore.obj
 0002:fffb0000       $cppxdata$??1sentry@?$basic_ostream@DU?$char_traits@D@std@@@std@@QEAA@XZ 0000000180000000     fastHessianDetectorCore.obj
 0002:fffb0000       $cppxdata$?_Tidy@?$vector@VKeyPoint@cv@@V?$allocator@VKeyPoint@cv@@@std@@@std@@AEAAXXZ 0000000180000000     fastHessianDetectorCore.obj
 0002:fffb0000       $cppxdata$?_Tidy_deallocate@?$basic_string@DU?$char_traits@D@std@@V?$allocator@D@2@@std@@AEAAXXZ 0000000180000000     fastHessianDetectorCore.obj
 0002:fffb0000       $cppxdata$?clone@?$big_any_policy@V?$basic_string@DU?$char_traits@D@std@@V?$allocator@D@2@@std@@@anyimpl@cvflann@@UEAAXPEBQEAXPEAPEAX@Z 0000000180000000     fastHessianDetectorCore.obj
 0002:fffb0000       $cppxdata$?copy@?$_Char_traits@DH@std@@SAPEADQEADQEBD_K@Z 0000000180000000     fastHessianDetectorCore.obj
 0002:fffb0000       $cppxdata$?copy_from_value@?$big_any_policy@V?$basic_string@DU?$char_traits@D@std@@V?$allocator@D@2@@std@@@anyimpl@cvflann@@UEAAXPEBXPEAPEAX@Z 0000000180000000     fastHessianDetectorCore.obj
 0002:fffb0000       $cppxdata$?length@?$_Narrow_char_traits@DH@std@@SA_KQEBD@Z 0000000180000000     fastHessianDetectorCore.obj
 0002:fffb0000       $cppxdata$?move@?$_Char_traits@DH@std@@SAPEADQEADQEBD_K@Z 0000000180000000     fastHessianDetectorCore.obj
 0002:fffb0000       $handlerMap$??$?6U?$char_traits@D@std@@@std@@YAAEAV?$basic_ostream@DU?$char_traits@D@std@@@0@AEAV10@PEBD@Z 0000000180000000     fastHessianDetectorCore.obj
 0002:fffb0000       $ip2state$??$?0$$V@?$_Ref_count_obj2@VMWSURF@cv@@@std@@QEAA@XZ 0000000180000000     fastHessianDetectorCore.obj
 0002:fffb0000       $ip2state$??$?6U?$char_traits@D@std@@@std@@YAAEAV?$basic_ostream@DU?$char_traits@D@std@@@0@AEAV10@PEBD@Z 0000000180000000     fastHessianDetectorCore.obj
 0002:fffb0000       $ip2state$??$_Deallocate@$0BA@$0A@@std@@YAXPEAX_K@Z 0000000180000000     fastHessianDetectorCore.obj
 0002:fffb0000       $ip2state$??$make_shared@VMWSURF@cv@@$$V@std@@YA?AV?$shared_ptr@VMWSURF@cv@@@0@XZ 0000000180000000     fastHessianDetectorCore.obj
 0002:fffb0000       $ip2state$??0?$basic_string@DU?$char_traits@D@std@@V?$allocator@D@2@@std@@QEAA@AEBV01@@Z 0000000180000000     fastHessianDetectorCore.obj
 0002:fffb0000       $ip2state$??0?$basic_string@DU?$char_traits@D@std@@V?$allocator@D@2@@std@@QEAA@QEBD@Z 0000000180000000     fastHessianDetectorCore.obj
 0002:fffb0000       $ip2state$??0Mat@cv@@QEAA@HHHPEAX_K@Z 0000000180000000     fastHessianDetectorCore.obj
 0002:fffb0000       $ip2state$??0exception@std@@QEAA@AEBV01@@Z 0000000180000000     fastHessianDetectorCore.obj
 0002:fffb0000       $ip2state$??0sentry@?$basic_ostream@DU?$char_traits@D@std@@@std@@QEAA@AEAV12@@Z 0000000180000000     fastHessianDetectorCore.obj
 0002:fffb0000       $ip2state$??1Mat@cv@@QEAA@XZ 0000000180000000     fastHessianDetectorCore.obj
 0002:fffb0000       $ip2state$??1_Sentry_base@?$basic_ostream@DU?$char_traits@D@std@@@std@@QEAA@XZ 0000000180000000     fastHessianDetectorCore.obj
 0002:fffb0000       $ip2state$??1exception@std@@UEAA@XZ 0000000180000000     fastHessianDetectorCore.obj
 0002:fffb0000       $ip2state$??1sentry@?$basic_ostream@DU?$char_traits@D@std@@@std@@QEAA@XZ 0000000180000000     fastHessianDetectorCore.obj
 0002:fffb0000       $ip2state$?_Tidy@?$vector@VKeyPoint@cv@@V?$allocator@VKeyPoint@cv@@@std@@@std@@AEAAXXZ 0000000180000000     fastHessianDetectorCore.obj
 0002:fffb0000       $ip2state$?_Tidy_deallocate@?$basic_string@DU?$char_traits@D@std@@V?$allocator@D@2@@std@@AEAAXXZ 0000000180000000     fastHessianDetectorCore.obj
 0002:fffb0000       $ip2state$?clone@?$big_any_policy@V?$basic_string@DU?$char_traits@D@std@@V?$allocator@D@2@@std@@@anyimpl@cvflann@@UEAAXPEBQEAXPEAPEAX@Z 0000000180000000     fastHessianDetectorCore.obj
 0002:fffb0000       $ip2state$?copy@?$_Char_traits@DH@std@@SAPEADQEADQEBD_K@Z 0000000180000000     fastHessianDetectorCore.obj
 0002:fffb0000       $ip2state$?copy_from_value@?$big_any_policy@V?$basic_string@DU?$char_traits@D@std@@V?$allocator@D@2@@std@@@anyimpl@cvflann@@UEAAXPEBXPEAPEAX@Z 0000000180000000     fastHessianDetectorCore.obj
 0002:fffb0000       $ip2state$?length@?$_Narrow_char_traits@DH@std@@SA_KQEBD@Z 0000000180000000     fastHessianDetectorCore.obj
 0002:fffb0000       $ip2state$?move@?$_Char_traits@DH@std@@SAPEADQEADQEBD_K@Z 0000000180000000     fastHessianDetectorCore.obj
 0002:fffb0000       $stateUnwindMap$??$?0$$V@?$_Ref_count_obj2@VMWSURF@cv@@@std@@QEAA@XZ 0000000180000000     fastHessianDetectorCore.obj
 0002:fffb0000       $stateUnwindMap$??$?6U?$char_traits@D@std@@@std@@YAAEAV?$basic_ostream@DU?$char_traits@D@std@@@0@AEAV10@PEBD@Z 0000000180000000     fastHessianDetectorCore.obj
 0002:fffb0000       $stateUnwindMap$??$make_shared@VMWSURF@cv@@$$V@std@@YA?AV?$shared_ptr@VMWSURF@cv@@@0@XZ 0000000180000000     fastHessianDetectorCore.obj
 0002:fffb0000       $stateUnwindMap$??0?$basic_string@DU?$char_traits@D@std@@V?$allocator@D@2@@std@@QEAA@AEBV01@@Z 0000000180000000     fastHessianDetectorCore.obj
 0002:fffb0000       $stateUnwindMap$??0?$basic_string@DU?$char_traits@D@std@@V?$allocator@D@2@@std@@QEAA@QEBD@Z 0000000180000000     fastHessianDetectorCore.obj
 0002:fffb0000       $stateUnwindMap$??0Mat@cv@@QEAA@HHHPEAX_K@Z 0000000180000000     fastHessianDetectorCore.obj
 0002:fffb0000       $stateUnwindMap$??0sentry@?$basic_ostream@DU?$char_traits@D@std@@@std@@QEAA@AEAV12@@Z 0000000180000000     fastHessianDetectorCore.obj
 0002:fffb0000       $stateUnwindMap$?clone@?$big_any_policy@V?$basic_string@DU?$char_traits@D@std@@V?$allocator@D@2@@std@@@anyimpl@cvflann@@UEAAXPEBQEAXPEAPEAX@Z 0000000180000000     fastHessianDetectorCore.obj
 0002:fffb0000       $stateUnwindMap$?copy_from_value@?$big_any_policy@V?$basic_string@DU?$char_traits@D@std@@V?$allocator@D@2@@std@@@anyimpl@cvflann@@UEAAXPEBXPEAPEAX@Z 0000000180000000     fastHessianDetectorCore.obj
 0002:fffb0000       $tryMap$??$?6U?$char_traits@D@std@@@std@@YAAEAV?$basic_ostream@DU?$char_traits@D@std@@@0@AEAV10@PEBD@Z 0000000180000000     fastHessianDetectorCore.obj
 0002:fffb0000       $unwind$??$?0$$V@?$_Compressed_pair@V?$allocator@D@std@@V?$_String_val@U?$_Simple_types@D@std@@@2@$00@std@@QEAA@U_Zero_then_variadic_args_t@1@@Z 0000000180000000     fastHessianDetectorCore.obj
 0002:fffb0000       $unwind$??$?0$$V@?$_Compressed_pair@V?$allocator@VKeyPoint@cv@@@std@@V?$_Vector_val@U?$_Simple_types@VKeyPoint@cv@@@std@@@2@$00@std@@QEAA@U_Zero_then_variadic_args_t@1@@Z 0000000180000000     fastHessianDetectorCore.obj
 0002:fffb0000       $unwind$??$?0$$V@?$_Ref_count_obj2@VMWSURF@cv@@@std@@QEAA@XZ 0000000180000000     fastHessianDetectorCore.obj
 0002:fffb0000       $unwind$??$?0V?$allocator@D@std@@$$V@?$_Compressed_pair@V?$allocator@D@std@@V?$_String_val@U?$_Simple_types@D@std@@@2@$00@std@@QEAA@U_One_then_variadic_args_t@1@$$QEAV?$allocator@D@1@@Z 0000000180000000     fastHessianDetectorCore.obj
 0002:fffb0000       $unwind$??$?6U?$char_traits@D@std@@@std@@YAAEAV?$basic_ostream@DU?$char_traits@D@std@@@0@AEAV10@PEBD@Z 0000000180000000     fastHessianDetectorCore.obj
 0002:fffb0000       $unwind$??$_Allocate@$0BA@U_Default_allocate_traits@std@@$0A@@std@@YAPEAX_K@Z 0000000180000000     fastHessianDetectorCore.obj
 0002:fffb0000       $unwind$??$_Allocate_manually_vector_aligned@U_Default_allocate_traits@std@@@std@@YAPEAX_K@Z 0000000180000000     fastHessianDetectorCore.obj
 0002:fffb0000       $unwind$??$_Construct_in_place@PEADAEBQEAD@std@@YAXAEAPEADAEBQEAD@Z 0000000180000000     fastHessianDetectorCore.obj
 0002:fffb0000       $unwind$??$_Construct_in_place@VMWSURF@cv@@$$V@std@@YAXAEAVMWSURF@cv@@@Z 0000000180000000     fastHessianDetectorCore.obj
 0002:fffb0000       $unwind$??$_Deallocate@$0BA@$0A@@std@@YAXPEAX_K@Z 0000000180000000     fastHessianDetectorCore.obj
 0002:fffb0000       $unwind$??$_Destroy_in_place@VMWSURF@cv@@@std@@YAXAEAVMWSURF@cv@@@Z 0000000180000000     fastHessianDetectorCore.obj
 0002:fffb0000       $unwind$??$_Get_size_of_n@$00@std@@YA_K_K@Z 0000000180000000     fastHessianDetectorCore.obj
 0002:fffb0000       $unwind$??$_Getvals@_W@?$time_get@DV?$istreambuf_iterator@DU?$char_traits@D@std@@@std@@@std@@IEAAX_WAEBV_Locinfo@1@@Z 0000000180000000     fastHessianDetectorCore.obj
 0002:fffb0000       $unwind$??$_Getvals@_W@?$time_get@_WV?$istreambuf_iterator@_WU?$char_traits@_W@std@@@std@@@std@@IEAAX_WAEBV_Locinfo@1@@Z 0000000180000000     fastHessianDetectorCore.obj
 0002:fffb0000       $unwind$??$_Maklocstr@D@std@@YAPEADPEBDPEADAEBU_Cvtvec@@@Z 0000000180000000     fastHessianDetectorCore.obj
 0002:fffb0000       $unwind$??$_Maklocstr@_W@std@@YAPEA_WPEBDPEA_WAEBU_Cvtvec@@@Z 0000000180000000     fastHessianDetectorCore.obj
 0002:fffb0000       $unwind$??$_Reallocate_for@V<lambda_66f57f934f28d61049862f64df852ff0>@@PEBD@?$basic_string@DU?$char_traits@D@std@@V?$allocator@D@2@@std@@AEAAAEAV01@_KV<lambda_66f57f934f28d61049862f64df852ff0>@@PEBD@Z 0000000180000000     fastHessianDetectorCore.obj
 0002:fffb0000       $unwind$??$make_shared@VMWSURF@cv@@$$V@std@@YA?AV?$shared_ptr@VMWSURF@cv@@@0@XZ 0000000180000000     fastHessianDetectorCore.obj
 0002:fffb0000       $unwind$??$max@_K@std@@YAAEB_KAEB_K0@Z 0000000180000000     fastHessianDetectorCore.obj
 0002:fffb0000       $unwind$??$min@_K@std@@YAAEB_KAEB_K0@Z 0000000180000000     fastHessianDetectorCore.obj
 0002:fffb0000       $unwind$??0?$Ptr@VMWSURF@cv@@@cv@@QEAA@$$QEAV?$shared_ptr@VMWSURF@cv@@@std@@@Z 0000000180000000     fastHessianDetectorCore.obj
 0002:fffb0000       $unwind$??0?$_String_val@U?$_Simple_types@D@std@@@std@@QEAA@XZ 0000000180000000     fastHessianDetectorCore.obj
 0002:fffb0000       $unwind$??0?$basic_string@DU?$char_traits@D@std@@V?$allocator@D@2@@std@@QEAA@AEBV01@@Z 0000000180000000     fastHessianDetectorCore.obj
 0002:fffb0000       $unwind$??0?$basic_string@DU?$char_traits@D@std@@V?$allocator@D@2@@std@@QEAA@QEBD@Z 0000000180000000     fastHessianDetectorCore.obj
 0002:fffb0000       $unwind$??0?$shared_ptr@VMWSURF@cv@@@std@@QEAA@$$QEAV01@@Z 0000000180000000     fastHessianDetectorCore.obj
 0002:fffb0000       $unwind$??0?$shared_ptr@VMWSURF@cv@@@std@@QEAA@XZ 0000000180000000     fastHessianDetectorCore.obj
 0002:fffb0000       $unwind$??0?$vector@VKeyPoint@cv@@V?$allocator@VKeyPoint@cv@@@std@@@std@@QEAA@XZ 0000000180000000     fastHessianDetectorCore.obj
 0002:fffb0000       $unwind$??0Mat@cv@@QEAA@HHHPEAX_K@Z 0000000180000000     fastHessianDetectorCore.obj
 0002:fffb0000       $unwind$??0Mat@cv@@QEAA@XZ 0000000180000000     fastHessianDetectorCore.obj
 0002:fffb0000       $unwind$??0_Sentry_base@?$basic_ostream@DU?$char_traits@D@std@@@std@@QEAA@AEAV12@@Z 0000000180000000     fastHessianDetectorCore.obj
 0002:fffb0000       $unwind$??0bad_alloc@std@@AEAA@QEBD@Z 0000000180000000     fastHessianDetectorCore.obj
 0002:fffb0000       $unwind$??0bad_alloc@std@@QEAA@AEBV01@@Z 0000000180000000     fastHessianDetectorCore.obj
 0002:fffb0000       $unwind$??0bad_array_new_length@std@@QEAA@AEBV01@@Z 0000000180000000     fastHessianDetectorCore.obj
 0002:fffb0000       $unwind$??0bad_array_new_length@std@@QEAA@XZ 0000000180000000     fastHessianDetectorCore.obj
 0002:fffb0000       $unwind$??0exception@std@@QEAA@AEBV01@@Z 0000000180000000     fastHessianDetectorCore.obj
 0002:fffb0000       $unwind$??0exception@std@@QEAA@QEBDH@Z 0000000180000000     fastHessianDetectorCore.obj
 0002:fffb0000       $unwind$??0sentry@?$basic_ostream@DU?$char_traits@D@std@@@std@@QEAA@AEAV12@@Z 0000000180000000     fastHessianDetectorCore.obj
 0002:fffb0000       $unwind$??1?$Ptr@VMWSURF@cv@@@cv@@QEAA@XZ 0000000180000000     fastHessianDetectorCore.obj
 0002:fffb0000       $unwind$??1?$_Compressed_pair@V?$allocator@D@std@@V?$_String_val@U?$_Simple_types@D@std@@@2@$00@std@@QEAA@XZ 0000000180000000     fastHessianDetectorCore.obj
 0002:fffb0000       $unwind$??1?$_Ref_count_obj2@VMWSURF@cv@@@std@@UEAA@XZ 0000000180000000     fastHessianDetectorCore.obj
 0002:fffb0000       $unwind$??1?$_String_val@U?$_Simple_types@D@std@@@std@@QEAA@XZ 0000000180000000     fastHessianDetectorCore.obj
 0002:fffb0000       $unwind$??1?$basic_string@DU?$char_traits@D@std@@V?$allocator@D@2@@std@@QEAA@XZ 0000000180000000     fastHessianDetectorCore.obj
 0002:fffb0000       $unwind$??1?$big_any_policy@Uempty_any@anyimpl@cvflann@@@anyimpl@cvflann@@UEAA@XZ 0000000180000000     fastHessianDetectorCore.obj
 0002:fffb0000       $unwind$??1?$big_any_policy@V?$basic_string@DU?$char_traits@D@std@@V?$allocator@D@2@@std@@@anyimpl@cvflann@@UEAA@XZ 0000000180000000     fastHessianDetectorCore.obj
 0002:fffb0000       $unwind$??1?$big_any_policy@W4flann_algorithm_t@cvflann@@@anyimpl@cvflann@@UEAA@XZ 0000000180000000     fastHessianDetectorCore.obj
 0002:fffb0000       $unwind$??1?$big_any_policy@W4flann_centers_init_t@cvflann@@@anyimpl@cvflann@@UEAA@XZ 0000000180000000     fastHessianDetectorCore.obj
 0002:fffb0000       $unwind$??1?$shared_ptr@VMWSURF@cv@@@std@@QEAA@XZ 0000000180000000     fastHessianDetectorCore.obj
 0002:fffb0000       $unwind$??1?$small_any_policy@H@anyimpl@cvflann@@UEAA@XZ 0000000180000000     fastHessianDetectorCore.obj
 0002:fffb0000       $unwind$??1?$small_any_policy@I@anyimpl@cvflann@@UEAA@XZ 0000000180000000     fastHessianDetectorCore.obj
 0002:fffb0000       $unwind$??1?$small_any_policy@M@anyimpl@cvflann@@UEAA@XZ 0000000180000000     fastHessianDetectorCore.obj
 0002:fffb0000       $unwind$??1?$small_any_policy@PEBD@anyimpl@cvflann@@UEAA@XZ 0000000180000000     fastHessianDetectorCore.obj
 0002:fffb0000       $unwind$??1?$small_any_policy@_N@anyimpl@cvflann@@UEAA@XZ 0000000180000000     fastHessianDetectorCore.obj
 0002:fffb0000       $unwind$??1?$typed_base_any_policy@H@anyimpl@cvflann@@UEAA@XZ 0000000180000000     fastHessianDetectorCore.obj
 0002:fffb0000       $unwind$??1?$typed_base_any_policy@I@anyimpl@cvflann@@UEAA@XZ 0000000180000000     fastHessianDetectorCore.obj
 0002:fffb0000       $unwind$??1?$typed_base_any_policy@M@anyimpl@cvflann@@UEAA@XZ 0000000180000000     fastHessianDetectorCore.obj
 0002:fffb0000       $unwind$??1?$typed_base_any_policy@PEBD@anyimpl@cvflann@@UEAA@XZ 0000000180000000     fastHessianDetectorCore.obj
 0002:fffb0000       $unwind$??1?$typed_base_any_policy@Uempty_any@anyimpl@cvflann@@@anyimpl@cvflann@@UEAA@XZ 0000000180000000     fastHessianDetectorCore.obj
 0002:fffb0000       $unwind$??1?$typed_base_any_policy@V?$basic_string@DU?$char_traits@D@std@@V?$allocator@D@2@@std@@@anyimpl@cvflann@@UEAA@XZ 0000000180000000     fastHessianDetectorCore.obj
 0002:fffb0000       $unwind$??1?$typed_base_any_policy@W4flann_algorithm_t@cvflann@@@anyimpl@cvflann@@UEAA@XZ 0000000180000000     fastHessianDetectorCore.obj
 0002:fffb0000       $unwind$??1?$typed_base_any_policy@W4flann_centers_init_t@cvflann@@@anyimpl@cvflann@@UEAA@XZ 0000000180000000     fastHessianDetectorCore.obj
 0002:fffb0000       $unwind$??1?$typed_base_any_policy@_N@anyimpl@cvflann@@UEAA@XZ 0000000180000000     fastHessianDetectorCore.obj
 0002:fffb0000       $unwind$??1?$vector@VKeyPoint@cv@@V?$allocator@VKeyPoint@cv@@@std@@@std@@QEAA@XZ 0000000180000000     fastHessianDetectorCore.obj
 0002:fffb0000       $unwind$??1Mat@cv@@QEAA@XZ 0000000180000000     fastHessianDetectorCore.obj
 0002:fffb0000       $unwind$??1_Sentry_base@?$basic_ostream@DU?$char_traits@D@std@@@std@@QEAA@XZ 0000000180000000     fastHessianDetectorCore.obj
 0002:fffb0000       $unwind$??1bad_alloc@std@@UEAA@XZ 0000000180000000     fastHessianDetectorCore.obj
 0002:fffb0000       $unwind$??1bad_array_new_length@std@@UEAA@XZ 0000000180000000     fastHessianDetectorCore.obj
 0002:fffb0000       $unwind$??1exception@std@@UEAA@XZ 0000000180000000     fastHessianDetectorCore.obj
 0002:fffb0000       $unwind$??1sentry@?$basic_ostream@DU?$char_traits@D@std@@@std@@QEAA@XZ 0000000180000000     fastHessianDetectorCore.obj
 0002:fffb0000       $unwind$??4?$basic_string@DU?$char_traits@D@std@@V?$allocator@D@2@@std@@QEAAAEAV01@AEBV01@@Z 0000000180000000     fastHessianDetectorCore.obj
 0002:fffb0000       $unwind$??6anyimpl@cvflann@@YAAEAV?$basic_ostream@DU?$char_traits@D@std@@@std@@AEAV23@AEBUempty_any@01@@Z 0000000180000000     fastHessianDetectorCore.obj
 0002:fffb0000       $unwind$??A?$vector@VKeyPoint@cv@@V?$allocator@VKeyPoint@cv@@@std@@@std@@QEAAAEAVKeyPoint@cv@@_K@Z 0000000180000000     fastHessianDetectorCore.obj
 0002:fffb0000       $unwind$??C?$Ptr@VMWSURF@cv@@@cv@@QEBAPEAVMWSURF@1@XZ 0000000180000000     fastHessianDetectorCore.obj
 0002:fffb0000       $unwind$??R<lambda_66f57f934f28d61049862f64df852ff0>@@QEBAXQEAD_KQEBD@Z 0000000180000000     fastHessianDetectorCore.obj
 0002:fffb0000       $unwind$??_G?$_Ref_count_obj2@VMWSURF@cv@@@std@@UEAAPEAXI@Z 0000000180000000     fastHessianDetectorCore.obj
 0002:fffb0000       $unwind$??_G?$basic_string@DU?$char_traits@D@std@@V?$allocator@D@2@@std@@QEAAPEAXI@Z 0000000180000000     fastHessianDetectorCore.obj
 0002:fffb0000       $unwind$??_G?$big_any_policy@Uempty_any@anyimpl@cvflann@@@anyimpl@cvflann@@UEAAPEAXI@Z 0000000180000000     fastHessianDetectorCore.obj
 0002:fffb0000       $unwind$??_G?$big_any_policy@V?$basic_string@DU?$char_traits@D@std@@V?$allocator@D@2@@std@@@anyimpl@cvflann@@UEAAPEAXI@Z 0000000180000000     fastHessianDetectorCore.obj
 0002:fffb0000       $unwind$??_G?$big_any_policy@W4flann_algorithm_t@cvflann@@@anyimpl@cvflann@@UEAAPEAXI@Z 0000000180000000     fastHessianDetectorCore.obj
 0002:fffb0000       $unwind$??_G?$big_any_policy@W4flann_centers_init_t@cvflann@@@anyimpl@cvflann@@UEAAPEAXI@Z 0000000180000000     fastHessianDetectorCore.obj
 0002:fffb0000       $unwind$??_G?$small_any_policy@H@anyimpl@cvflann@@UEAAPEAXI@Z 0000000180000000     fastHessianDetectorCore.obj
 0002:fffb0000       $unwind$??_G?$small_any_policy@I@anyimpl@cvflann@@UEAAPEAXI@Z 0000000180000000     fastHessianDetectorCore.obj
 0002:fffb0000       $unwind$??_G?$small_any_policy@M@anyimpl@cvflann@@UEAAPEAXI@Z 0000000180000000     fastHessianDetectorCore.obj
 0002:fffb0000       $unwind$??_G?$small_any_policy@PEBD@anyimpl@cvflann@@UEAAPEAXI@Z 0000000180000000     fastHessianDetectorCore.obj
 0002:fffb0000       $unwind$??_G?$small_any_policy@_N@anyimpl@cvflann@@UEAAPEAXI@Z 0000000180000000     fastHessianDetectorCore.obj
 0002:fffb0000       $unwind$??_G?$vector@VKeyPoint@cv@@V?$allocator@VKeyPoint@cv@@@std@@@std@@QEAAPEAXI@Z 0000000180000000     fastHessianDetectorCore.obj
 0002:fffb0000       $unwind$??_Gbad_alloc@std@@UEAAPEAXI@Z 0000000180000000     fastHessianDetectorCore.obj
 0002:fffb0000       $unwind$??_Gbad_array_new_length@std@@UEAAPEAXI@Z 0000000180000000     fastHessianDetectorCore.obj
 0002:fffb0000       $unwind$??_Gbase_any_policy@anyimpl@cvflann@@UEAAPEAXI@Z 0000000180000000     fastHessianDetectorCore.obj
 0002:fffb0000       $unwind$??_Gexception@std@@UEAAPEAXI@Z 0000000180000000     fastHessianDetectorCore.obj
 0002:fffb0000       $unwind$?_Adjust_manually_vector_aligned@std@@YAXAEAPEAXAEA_K@Z 0000000180000000     fastHessianDetectorCore.obj
 0002:fffb0000       $unwind$?_Allocate@_Default_allocate_traits@std@@SAPEAX_K@Z 0000000180000000     fastHessianDetectorCore.obj
 0002:fffb0000       $unwind$?_Calculate_growth@?$basic_string@DU?$char_traits@D@std@@V?$allocator@D@2@@std@@AEBA_K_K@Z 0000000180000000     fastHessianDetectorCore.obj
 0002:fffb0000       $unwind$?_Calculate_growth@?$basic_string@DU?$char_traits@D@std@@V?$allocator@D@2@@std@@CA_K_K00@Z 0000000180000000     fastHessianDetectorCore.obj
 0002:fffb0000       $unwind$?_Construct_lv_contents@?$basic_string@DU?$char_traits@D@std@@V?$allocator@D@2@@std@@AEAAXAEBV12@@Z 0000000180000000     fastHessianDetectorCore.obj
 0002:fffb0000       $unwind$?_Copy_assign@?$basic_string@DU?$char_traits@D@std@@V?$allocator@D@2@@std@@AEAAXAEBV12@U?$integral_constant@_N$0A@@2@@Z 0000000180000000     fastHessianDetectorCore.obj
 0002:fffb0000       $unwind$?_Decref@?$_Ptr_base@VMWSURF@cv@@@std@@IEAAXXZ 0000000180000000     fastHessianDetectorCore.obj
 0002:fffb0000       $unwind$?_Decref@_Ref_count_base@std@@QEAAXXZ 0000000180000000     fastHessianDetectorCore.obj
 0002:fffb0000       $unwind$?_Decwref@_Ref_count_base@std@@QEAAXXZ 0000000180000000     fastHessianDetectorCore.obj
 0002:fffb0000       $unwind$?_Delete_this@?$_Ref_count_obj2@VMWSURF@cv@@@std@@EEAAXXZ 0000000180000000     fastHessianDetectorCore.obj
 0002:fffb0000       $unwind$?_Destroy@?$_Ref_count_obj2@VMWSURF@cv@@@std@@EEAAXXZ 0000000180000000     fastHessianDetectorCore.obj
 0002:fffb0000       $unwind$?_Destroy@?$vector@VKeyPoint@cv@@V?$allocator@VKeyPoint@cv@@@std@@@std@@AEAAXPEAVKeyPoint@cv@@0@Z 0000000180000000     fastHessianDetectorCore.obj
 0002:fffb0000       $unwind$?_Getal@?$basic_string@DU?$char_traits@D@std@@V?$allocator@D@2@@std@@AEAAAEAV?$allocator@D@2@XZ 0000000180000000     fastHessianDetectorCore.obj
 0002:fffb0000       $unwind$?_Getal@?$basic_string@DU?$char_traits@D@std@@V?$allocator@D@2@@std@@AEBAAEBV?$allocator@D@2@XZ 0000000180000000     fastHessianDetectorCore.obj
 0002:fffb0000       $unwind$?_Getal@?$vector@VKeyPoint@cv@@V?$allocator@VKeyPoint@cv@@@std@@@std@@AEAAAEAV?$allocator@VKeyPoint@cv@@@2@XZ 0000000180000000     fastHessianDetectorCore.obj
 0002:fffb0000       $unwind$?_Large_string_engaged@?$_String_val@U?$_Simple_types@D@std@@@std@@QEBA_NXZ 0000000180000000     fastHessianDetectorCore.obj
 0002:fffb0000       $unwind$?_Maklocwcs@std@@YAPEA_WPEB_W@Z 0000000180000000     fastHessianDetectorCore.obj
 0002:fffb0000       $unwind$?_Myptr@?$_String_val@U?$_Simple_types@D@std@@@std@@QEAAPEADXZ 0000000180000000     fastHessianDetectorCore.obj
 0002:fffb0000       $unwind$?_Myptr@?$_String_val@U?$_Simple_types@D@std@@@std@@QEBAPEBDXZ 0000000180000000     fastHessianDetectorCore.obj
 0002:fffb0000       $unwind$?_Throw_bad_array_new_length@std@@YAXXZ 0000000180000000     fastHessianDetectorCore.obj
 0002:fffb0000       $unwind$?_Tidy@?$vector@VKeyPoint@cv@@V?$allocator@VKeyPoint@cv@@@std@@@std@@AEAAXXZ 0000000180000000     fastHessianDetectorCore.obj
 0002:fffb0000       $unwind$?_Tidy_deallocate@?$basic_string@DU?$char_traits@D@std@@V?$allocator@D@2@@std@@AEAAXXZ 0000000180000000     fastHessianDetectorCore.obj
 0002:fffb0000       $unwind$?_Tidy_init@?$basic_string@DU?$char_traits@D@std@@V?$allocator@D@2@@std@@AEAAXXZ 0000000180000000     fastHessianDetectorCore.obj
 0002:fffb0000       $unwind$?_Xlen_string@std@@YAXXZ 0000000180000000     fastHessianDetectorCore.obj
 0002:fffb0000       $unwind$?allocate@?$allocator@D@std@@QEAAPEAD_K@Z 0000000180000000     fastHessianDetectorCore.obj
 0002:fffb0000       $unwind$?assign@?$basic_string@DU?$char_traits@D@std@@V?$allocator@D@2@@std@@QEAAAEAV12@QEBD@Z 0000000180000000     fastHessianDetectorCore.obj
 0002:fffb0000       $unwind$?assign@?$basic_string@DU?$char_traits@D@std@@V?$allocator@D@2@@std@@QEAAAEAV12@QEBD_K@Z 0000000180000000     fastHessianDetectorCore.obj
 0002:fffb0000       $unwind$?c_str@?$basic_string@DU?$char_traits@D@std@@V?$allocator@D@2@@std@@QEBAPEBDXZ 0000000180000000     fastHessianDetectorCore.obj
 0002:fffb0000       $unwind$?catch$1@?0???$?6U?$char_traits@D@std@@@std@@YAAEAV?$basic_ostream@DU?$char_traits@D@std@@@0@AEAV10@PEBD@Z@4HA 0000000180000000     fastHessianDetectorCore.obj
 0002:fffb0000       $unwind$?clone@?$big_any_policy@Uempty_any@anyimpl@cvflann@@@anyimpl@cvflann@@UEAAXPEBQEAXPEAPEAX@Z 0000000180000000     fastHessianDetectorCore.obj
 0002:fffb0000       $unwind$?clone@?$big_any_policy@V?$basic_string@DU?$char_traits@D@std@@V?$allocator@D@2@@std@@@anyimpl@cvflann@@UEAAXPEBQEAXPEAPEAX@Z 0000000180000000     fastHessianDetectorCore.obj
 0002:fffb0000       $unwind$?clone@?$big_any_policy@W4flann_algorithm_t@cvflann@@@anyimpl@cvflann@@UEAAXPEBQEAXPEAPEAX@Z 0000000180000000     fastHessianDetectorCore.obj
 0002:fffb0000       $unwind$?clone@?$big_any_policy@W4flann_centers_init_t@cvflann@@@anyimpl@cvflann@@UEAAXPEBQEAXPEAPEAX@Z 0000000180000000     fastHessianDetectorCore.obj
 0002:fffb0000       $unwind$?copy@?$_Char_traits@DH@std@@SAPEADQEADQEBD_K@Z 0000000180000000     fastHessianDetectorCore.obj
 0002:fffb0000       $unwind$?copy_from_value@?$big_any_policy@Uempty_any@anyimpl@cvflann@@@anyimpl@cvflann@@UEAAXPEBXPEAPEAX@Z 0000000180000000     fastHessianDetectorCore.obj
 0002:fffb0000       $unwind$?copy_from_value@?$big_any_policy@V?$basic_string@DU?$char_traits@D@std@@V?$allocator@D@2@@std@@@anyimpl@cvflann@@UEAAXPEBXPEAPEAX@Z 0000000180000000     fastHessianDetectorCore.obj
 0002:fffb0000       $unwind$?copy_from_value@?$big_any_policy@W4flann_algorithm_t@cvflann@@@anyimpl@cvflann@@UEAAXPEBXPEAPEAX@Z 0000000180000000     fastHessianDetectorCore.obj
 0002:fffb0000       $unwind$?copy_from_value@?$big_any_policy@W4flann_centers_init_t@cvflann@@@anyimpl@cvflann@@UEAAXPEBXPEAPEAX@Z 0000000180000000     fastHessianDetectorCore.obj
 0002:fffb0000       $unwind$?copy_from_value@?$small_any_policy@H@anyimpl@cvflann@@UEAAXPEBXPEAPEAX@Z 0000000180000000     fastHessianDetectorCore.obj
 0002:fffb0000       $unwind$?copy_from_value@?$small_any_policy@I@anyimpl@cvflann@@UEAAXPEBXPEAPEAX@Z 0000000180000000     fastHessianDetectorCore.obj
 0002:fffb0000       $unwind$?copy_from_value@?$small_any_policy@M@anyimpl@cvflann@@UEAAXPEBXPEAPEAX@Z 0000000180000000     fastHessianDetectorCore.obj
 0002:fffb0000       $unwind$?copy_from_value@?$small_any_policy@PEBD@anyimpl@cvflann@@UEAAXPEBXPEAPEAX@Z 0000000180000000     fastHessianDetectorCore.obj
 0002:fffb0000       $unwind$?copy_from_value@?$small_any_policy@_N@anyimpl@cvflann@@UEAAXPEBXPEAPEAX@Z 0000000180000000     fastHessianDetectorCore.obj
 0002:fffb0000       $unwind$?deallocate@?$allocator@D@std@@QEAAXQEAD_K@Z 0000000180000000     fastHessianDetectorCore.obj
 0002:fffb0000       $unwind$?deallocate@?$allocator@VKeyPoint@cv@@@std@@QEAAXQEAVKeyPoint@cv@@_K@Z 0000000180000000     fastHessianDetectorCore.obj
 0002:fffb0000       $unwind$?dtor$0@?0???$?0$$V@?$_Ref_count_obj2@VMWSURF@cv@@@std@@QEAA@XZ@4HA 0000000180000000     fastHessianDetectorCore.obj
 0002:fffb0000       $unwind$?dtor$0@?0???$?6U?$char_traits@D@std@@@std@@YAAEAV?$basic_ostream@DU?$char_traits@D@std@@@0@AEAV10@PEBD@Z@4HA 0000000180000000     fastHessianDetectorCore.obj
 0002:fffb0000       $unwind$?dtor$0@?0???$make_shared@VMWSURF@cv@@$$V@std@@YA?AV?$shared_ptr@VMWSURF@cv@@@0@XZ@4HA 0000000180000000     fastHessianDetectorCore.obj
 0002:fffb0000       $unwind$?dtor$0@?0???0?$basic_string@DU?$char_traits@D@std@@V?$allocator@D@2@@std@@QEAA@AEBV01@@Z@4HA 0000000180000000     fastHessianDetectorCore.obj
 0002:fffb0000       $unwind$?dtor$0@?0???0?$basic_string@DU?$char_traits@D@std@@V?$allocator@D@2@@std@@QEAA@QEBD@Z@4HA 0000000180000000     fastHessianDetectorCore.obj
 0002:fffb0000       $unwind$?dtor$0@?0???0Mat@cv@@QEAA@HHHPEAX_K@Z@4HA 0000000180000000     fastHessianDetectorCore.obj
 0002:fffb0000       $unwind$?dtor$0@?0???0sentry@?$basic_ostream@DU?$char_traits@D@std@@@std@@QEAA@AEAV12@@Z@4HA 0000000180000000     fastHessianDetectorCore.obj
 0002:fffb0000       $unwind$?dtor$0@?0??clone@?$big_any_policy@V?$basic_string@DU?$char_traits@D@std@@V?$allocator@D@2@@std@@@anyimpl@cvflann@@UEAAXPEBQEAXPEAPEAX@Z@4HA 0000000180000000     fastHessianDetectorCore.obj
 0002:fffb0000       $unwind$?dtor$0@?0??copy_from_value@?$big_any_policy@V?$basic_string@DU?$char_traits@D@std@@V?$allocator@D@2@@std@@@anyimpl@cvflann@@UEAAXPEBXPEAPEAX@Z@4HA 0000000180000000     fastHessianDetectorCore.obj
 0002:fffb0000       $unwind$?dtor$1@?0???0Mat@cv@@QEAA@HHHPEAX_K@Z@4HA 0000000180000000     fastHessianDetectorCore.obj
 0002:fffb0000       $unwind$?empty@?$Ptr@VMWSURF@cv@@@cv@@QEBA_NXZ 0000000180000000     fastHessianDetectorCore.obj
 0002:fffb0000       $unwind$?eq_int_type@?$_Narrow_char_traits@DH@std@@SA_NAEBH0@Z 0000000180000000     fastHessianDetectorCore.obj
 0002:fffb0000       $unwind$?length@?$_Narrow_char_traits@DH@std@@SA_KQEBD@Z 0000000180000000     fastHessianDetectorCore.obj
 0002:fffb0000       $unwind$?max_size@?$basic_string@DU?$char_traits@D@std@@V?$allocator@D@2@@std@@QEBA_KXZ 0000000180000000     fastHessianDetectorCore.obj
 0002:fffb0000       $unwind$?move@?$_Char_traits@DH@std@@SAPEADQEADQEBD_K@Z 0000000180000000     fastHessianDetectorCore.obj
 0002:fffb0000       $unwind$?move@?$big_any_policy@V?$basic_string@DU?$char_traits@D@std@@V?$allocator@D@2@@std@@@anyimpl@cvflann@@UEAAXPEBQEAXPEAPEAX@Z 0000000180000000     fastHessianDetectorCore.obj
 0002:fffb0000       $unwind$?print@?$big_any_policy@Uempty_any@anyimpl@cvflann@@@anyimpl@cvflann@@UEAAXAEAV?$basic_ostream@DU?$char_traits@D@std@@@std@@PEBQEAX@Z 0000000180000000     fastHessianDetectorCore.obj
 0002:fffb0000       $unwind$?print@?$big_any_policy@V?$basic_string@DU?$char_traits@D@std@@V?$allocator@D@2@@std@@@anyimpl@cvflann@@UEAAXAEAV?$basic_ostream@DU?$char_traits@D@std@@@std@@PEBQEAX@Z 0000000180000000     fastHessianDetectorCore.obj
 0002:fffb0000       $unwind$?print@?$big_any_policy@W4flann_algorithm_t@cvflann@@@anyimpl@cvflann@@UEAAXAEAV?$basic_ostream@DU?$char_traits@D@std@@@std@@PEBQEAX@Z 0000000180000000     fastHessianDetectorCore.obj
 0002:fffb0000       $unwind$?print@?$big_any_policy@W4flann_centers_init_t@cvflann@@@anyimpl@cvflann@@UEAAXAEAV?$basic_ostream@DU?$char_traits@D@std@@@std@@PEBQEAX@Z 0000000180000000     fastHessianDetectorCore.obj
 0002:fffb0000       $unwind$?print@?$small_any_policy@H@anyimpl@cvflann@@UEAAXAEAV?$basic_ostream@DU?$char_traits@D@std@@@std@@PEBQEAX@Z 0000000180000000     fastHessianDetectorCore.obj
 0002:fffb0000       $unwind$?print@?$small_any_policy@I@anyimpl@cvflann@@UEAAXAEAV?$basic_ostream@DU?$char_traits@D@std@@@std@@PEBQEAX@Z 0000000180000000     fastHessianDetectorCore.obj
 0002:fffb0000       $unwind$?print@?$small_any_policy@M@anyimpl@cvflann@@UEAAXAEAV?$basic_ostream@DU?$char_traits@D@std@@@std@@PEBQEAX@Z 0000000180000000     fastHessianDetectorCore.obj
 0002:fffb0000       $unwind$?print@?$small_any_policy@PEBD@anyimpl@cvflann@@UEAAXAEAV?$basic_ostream@DU?$char_traits@D@std@@@std@@PEBQEAX@Z 0000000180000000     fastHessianDetectorCore.obj
 0002:fffb0000       $unwind$?print@?$small_any_policy@_N@anyimpl@cvflann@@UEAAXAEAV?$basic_ostream@DU?$char_traits@D@std@@@std@@PEBQEAX@Z 0000000180000000     fastHessianDetectorCore.obj
 0002:fffb0000       $unwind$?release@Mat@cv@@QEAAXXZ 0000000180000000     fastHessianDetectorCore.obj
 0002:fffb0000       $unwind$?size@?$vector@VKeyPoint@cv@@V?$allocator@VKeyPoint@cv@@@std@@@std@@QEBA_KXZ 0000000180000000     fastHessianDetectorCore.obj
 0002:fffb0000       $unwind$?static_delete@?$big_any_policy@Uempty_any@anyimpl@cvflann@@@anyimpl@cvflann@@UEAAXPEAPEAX@Z 0000000180000000     fastHessianDetectorCore.obj
 0002:fffb0000       $unwind$?static_delete@?$big_any_policy@V?$basic_string@DU?$char_traits@D@std@@V?$allocator@D@2@@std@@@anyimpl@cvflann@@UEAAXPEAPEAX@Z 0000000180000000     fastHessianDetectorCore.obj
 0002:fffb0000       $unwind$?static_delete@?$big_any_policy@W4flann_algorithm_t@cvflann@@@anyimpl@cvflann@@UEAAXPEAPEAX@Z 0000000180000000     fastHessianDetectorCore.obj
 0002:fffb0000       $unwind$?static_delete@?$big_any_policy@W4flann_centers_init_t@cvflann@@@anyimpl@cvflann@@UEAAXPEAPEAX@Z 0000000180000000     fastHessianDetectorCore.obj
 0002:fffb0000       $unwind$?total@Mat@cv@@QEBA_KXZ 0000000180000000     fastHessianDetectorCore.obj
 0002:fffb0000       $unwind$?what@exception@std@@UEBAPEBDXZ 0000000180000000     fastHessianDetectorCore.obj
 0002:fffb0000       $unwind$wmemcpy            0000000180000000     fastHessianDetectorCore.obj
 0002:fffb0000       ??policy$initializer$@?$SinglePolicy@H@anyimpl@cvflann@@0P6AXXZEA@@3P6AXXZEA 0000000180000000     fastHessianDetectorCore.obj
 0002:fffb0000       ??policy$initializer$@?$SinglePolicy@I@anyimpl@cvflann@@0P6AXXZEA@@3P6AXXZEA 0000000180000000     fastHessianDetectorCore.obj
 0002:fffb0000       ??policy$initializer$@?$SinglePolicy@M@anyimpl@cvflann@@0P6AXXZEA@@3P6AXXZEA 0000000180000000     fastHessianDetectorCore.obj
 0002:fffb0000       ??policy$initializer$@?$SinglePolicy@PEBD@anyimpl@cvflann@@0P6AXXZEA@@3P6AXXZEA 0000000180000000     fastHessianDetectorCore.obj
 0002:fffb0000       ??policy$initializer$@?$SinglePolicy@Uempty_any@anyimpl@cvflann@@@anyimpl@cvflann@@0P6AXXZEA@@3P6AXXZEA 0000000180000000     fastHessianDetectorCore.obj
 0002:fffb0000       ??policy$initializer$@?$SinglePolicy@V?$basic_string@DU?$char_traits@D@std@@V?$allocator@D@2@@std@@@anyimpl@cvflann@@0P6AXXZEA@@3P6AXXZEA 0000000180000000     fastHessianDetectorCore.obj
 0002:fffb0000       ??policy$initializer$@?$SinglePolicy@W4flann_algorithm_t@cvflann@@@anyimpl@cvflann@@0P6AXXZEA@@3P6AXXZEA 0000000180000000     fastHessianDetectorCore.obj
 0002:fffb0000       ??policy$initializer$@?$SinglePolicy@W4flann_centers_init_t@cvflann@@@anyimpl@cvflann@@0P6AXXZEA@@3P6AXXZEA 0000000180000000     fastHessianDetectorCore.obj
 0002:fffb0000       ??policy$initializer$@?$SinglePolicy@_N@anyimpl@cvflann@@0P6AXXZEA@@3P6AXXZEA 0000000180000000     fastHessianDetectorCore.obj
 0001:fffff000       ?catch$1@?0???$?6U?$char_traits@D@std@@@std@@YAAEAV?$basic_ostream@DU?$char_traits@D@std@@@0@AEAV10@PEBD@Z@4HA 0000000180000000 f   fastHessianDetectorCore.obj
 0001:fffff000       ?dtor$0@?0???$?0$$V@?$_Ref_count_obj2@VMWSURF@cv@@@std@@QEAA@XZ@4HA 0000000180000000 f   fastHessianDetectorCore.obj
 0001:fffff000       ?dtor$0@?0???$?6U?$char_traits@D@std@@@std@@YAAEAV?$basic_ostream@DU?$char_traits@D@std@@@0@AEAV10@PEBD@Z@4HA 0000000180000000 f   fastHessianDetectorCore.obj
 0001:fffff000       ?dtor$0@?0???$make_shared@VMWSURF@cv@@$$V@std@@YA?AV?$shared_ptr@VMWSURF@cv@@@0@XZ@4HA 0000000180000000 f   fastHessianDetectorCore.obj
 0001:fffff000       ?dtor$0@?0???0?$basic_string@DU?$char_traits@D@std@@V?$allocator@D@2@@std@@QEAA@AEBV01@@Z@4HA 0000000180000000 f   fastHessianDetectorCore.obj
 0001:fffff000       ?dtor$0@?0???0?$basic_string@DU?$char_traits@D@std@@V?$allocator@D@2@@std@@QEAA@QEBD@Z@4HA 0000000180000000 f   fastHessianDetectorCore.obj
 0001:fffff000       ?dtor$0@?0???0Mat@cv@@QEAA@HHHPEAX_K@Z@4HA 0000000180000000 f   fastHessianDetectorCore.obj
 0001:fffff000       ?dtor$0@?0???0sentry@?$basic_ostream@DU?$char_traits@D@std@@@std@@QEAA@AEAV12@@Z@4HA 0000000180000000 f   fastHessianDetectorCore.obj
 0001:fffff000       ?dtor$0@?0??clone@?$big_any_policy@V?$basic_string@DU?$char_traits@D@std@@V?$allocator@D@2@@std@@@anyimpl@cvflann@@UEAAXPEBQEAXPEAPEAX@Z@4HA 0000000180000000 f   fastHessianDetectorCore.obj
 0001:fffff000       ?dtor$0@?0??copy_from_value@?$big_any_policy@V?$basic_string@DU?$char_traits@D@std@@V?$allocator@D@2@@std@@@anyimpl@cvflann@@UEAAXPEBXPEAPEAX@Z@4HA 0000000180000000 f   fastHessianDetectorCore.obj
 0001:fffff000       ?dtor$1@?0???0Mat@cv@@QEAA@HHHPEAX_K@Z@4HA 0000000180000000 f   fastHessianDetectorCore.obj
 0000:00000000       .debug$S                   0000000180000000     flightControlSystem_sfun.exp
 0002:fffb0000       $cppxdata$??$_Deallocate@$0BA@$0A@@std@@YAXPEAX_K@Z 0000000180000000     mwsurf.obj
 0002:fffb0000       $cppxdata$??$_Emplace_reallocate@AEBVKeyPoint@cv@@@?$vector@VKeyPoint@cv@@V?$allocator@VKeyPoint@cv@@@std@@@std@@QEAAPEAVKeyPoint@cv@@QEAV23@AEBV23@@Z 0000000180000000     mwsurf.obj
 0002:fffb0000       $cppxdata$??$_Uninitialized_move@PEAVKeyPoint@cv@@V?$allocator@VKeyPoint@cv@@@std@@@std@@YAPEAVKeyPoint@cv@@QEAV12@0PEAV12@AEAV?$allocator@VKeyPoint@cv@@@0@@Z 0000000180000000     mwsurf.obj
 0002:fffb0000       $cppxdata$??0?$basic_string@DU?$char_traits@D@std@@V?$allocator@D@2@@std@@QEAA@QEBD@Z 0000000180000000     mwsurf.obj
 0002:fffb0000       $cppxdata$??0Mat@cv@@QEAA@HHHPEAX_K@Z 0000000180000000     mwsurf.obj
 0002:fffb0000       $cppxdata$??0exception@std@@QEAA@AEBV01@@Z 0000000180000000     mwsurf.obj
 0002:fffb0000       $cppxdata$??1Mat@cv@@QEAA@XZ 0000000180000000     mwsurf.obj
 0002:fffb0000       $cppxdata$??1exception@std@@UEAA@XZ 0000000180000000     mwsurf.obj
 0002:fffb0000       $cppxdata$?_Tidy_deallocate@?$basic_string@DU?$char_traits@D@std@@V?$allocator@D@2@@std@@AEAAXXZ 0000000180000000     mwsurf.obj
 0002:fffb0000       $cppxdata$?copy@?$_Char_traits@DH@std@@SAPEADQEADQEBD_K@Z 0000000180000000     mwsurf.obj
 0002:fffb0000       $cppxdata$?length@?$_Narrow_char_traits@DH@std@@SA_KQEBD@Z 0000000180000000     mwsurf.obj
 0002:fffb0000       $cppxdata$?move@?$_Char_traits@DH@std@@SAPEADQEADQEBD_K@Z 0000000180000000     mwsurf.obj
 0002:fffb0000       $handlerMap$??$_Emplace_reallocate@AEBVKeyPoint@cv@@@?$vector@VKeyPoint@cv@@V?$allocator@VKeyPoint@cv@@@std@@@std@@QEAAPEAVKeyPoint@cv@@QEAV23@AEBV23@@Z 0000000180000000     mwsurf.obj
 0002:fffb0000       $ip2state$??$_Deallocate@$0BA@$0A@@std@@YAXPEAX_K@Z 0000000180000000     mwsurf.obj
 0002:fffb0000       $ip2state$??$_Emplace_reallocate@AEBVKeyPoint@cv@@@?$vector@VKeyPoint@cv@@V?$allocator@VKeyPoint@cv@@@std@@@std@@QEAAPEAVKeyPoint@cv@@QEAV23@AEBV23@@Z 0000000180000000     mwsurf.obj
 0002:fffb0000       $ip2state$??$_Uninitialized_move@PEAVKeyPoint@cv@@V?$allocator@VKeyPoint@cv@@@std@@@std@@YAPEAVKeyPoint@cv@@QEAV12@0PEAV12@AEAV?$allocator@VKeyPoint@cv@@@0@@Z 0000000180000000     mwsurf.obj
 0002:fffb0000       $ip2state$??0?$basic_string@DU?$char_traits@D@std@@V?$allocator@D@2@@std@@QEAA@QEBD@Z 0000000180000000     mwsurf.obj
 0002:fffb0000       $ip2state$??0Mat@cv@@QEAA@HHHPEAX_K@Z 0000000180000000     mwsurf.obj
 0002:fffb0000       $ip2state$??0exception@std@@QEAA@AEBV01@@Z 0000000180000000     mwsurf.obj
 0002:fffb0000       $ip2state$??1Mat@cv@@QEAA@XZ 0000000180000000     mwsurf.obj
 0002:fffb0000       $ip2state$??1exception@std@@UEAA@XZ 0000000180000000     mwsurf.obj
 0002:fffb0000       $ip2state$?_Tidy_deallocate@?$basic_string@DU?$char_traits@D@std@@V?$allocator@D@2@@std@@AEAAXXZ 0000000180000000     mwsurf.obj
 0002:fffb0000       $ip2state$?copy@?$_Char_traits@DH@std@@SAPEADQEADQEBD_K@Z 0000000180000000     mwsurf.obj
 0002:fffb0000       $ip2state$?length@?$_Narrow_char_traits@DH@std@@SA_KQEBD@Z 0000000180000000     mwsurf.obj
 0002:fffb0000       $ip2state$?move@?$_Char_traits@DH@std@@SAPEADQEADQEBD_K@Z 0000000180000000     mwsurf.obj
 0002:fffb0000       $stateUnwindMap$??$_Emplace_reallocate@AEBVKeyPoint@cv@@@?$vector@VKeyPoint@cv@@V?$allocator@VKeyPoint@cv@@@std@@@std@@QEAAPEAVKeyPoint@cv@@QEAV23@AEBV23@@Z 0000000180000000     mwsurf.obj
 0002:fffb0000       $stateUnwindMap$??$_Uninitialized_move@PEAVKeyPoint@cv@@V?$allocator@VKeyPoint@cv@@@std@@@std@@YAPEAVKeyPoint@cv@@QEAV12@0PEAV12@AEAV?$allocator@VKeyPoint@cv@@@0@@Z 0000000180000000     mwsurf.obj
 0002:fffb0000       $stateUnwindMap$??0?$basic_string@DU?$char_traits@D@std@@V?$allocator@D@2@@std@@QEAA@QEBD@Z 0000000180000000     mwsurf.obj
 0002:fffb0000       $stateUnwindMap$??0Mat@cv@@QEAA@HHHPEAX_K@Z 0000000180000000     mwsurf.obj
 0002:fffb0000       $tryMap$??$_Emplace_reallocate@AEBVKeyPoint@cv@@@?$vector@VKeyPoint@cv@@V?$allocator@VKeyPoint@cv@@@std@@@std@@QEAAPEAVKeyPoint@cv@@QEAV23@AEBV23@@Z 0000000180000000     mwsurf.obj
 0002:fffb0000       $unwind$??$?0$$V@?$_Compressed_pair@V?$allocator@D@std@@V?$_String_val@U?$_Simple_types@D@std@@@2@$00@std@@QEAA@U_Zero_then_variadic_args_t@1@@Z 0000000180000000     mwsurf.obj
 0002:fffb0000       $unwind$??$_Allocate@$0BA@U_Default_allocate_traits@std@@$0A@@std@@YAPEAX_K@Z 0000000180000000     mwsurf.obj
 0002:fffb0000       $unwind$??$_Allocate_manually_vector_aligned@U_Default_allocate_traits@std@@@std@@YAPEAX_K@Z 0000000180000000     mwsurf.obj
 0002:fffb0000       $unwind$??$_Construct_in_place@PEADAEBQEAD@std@@YAXAEAPEADAEBQEAD@Z 0000000180000000     mwsurf.obj
 0002:fffb0000       $unwind$??$_Deallocate@$0BA@$0A@@std@@YAXPEAX_K@Z 0000000180000000     mwsurf.obj
 0002:fffb0000       $unwind$??$_Emplace_back@VKeyPoint@cv@@@?$_Uninitialized_backout_al@V?$allocator@VKeyPoint@cv@@@std@@@std@@QEAAX$$QEAVKeyPoint@cv@@@Z 0000000180000000     mwsurf.obj
 0002:fffb0000       $unwind$??$_Emplace_back_with_unused_capacity@AEBVKeyPoint@cv@@@?$vector@VKeyPoint@cv@@V?$allocator@VKeyPoint@cv@@@std@@@std@@AEAAXAEBVKeyPoint@cv@@@Z 0000000180000000     mwsurf.obj
 0002:fffb0000       $unwind$??$_Emplace_reallocate@AEBVKeyPoint@cv@@@?$vector@VKeyPoint@cv@@V?$allocator@VKeyPoint@cv@@@std@@@std@@QEAAPEAVKeyPoint@cv@@QEAV23@AEBV23@@Z 0000000180000000     mwsurf.obj
 0002:fffb0000       $unwind$??$_Get_size_of_n@$00@std@@YA_K_K@Z 0000000180000000     mwsurf.obj
 0002:fffb0000       $unwind$??$_Get_size_of_n@$0BM@@std@@YA_K_K@Z 0000000180000000     mwsurf.obj
 0002:fffb0000       $unwind$??$_Reallocate_for@V<lambda_66f57f934f28d61049862f64df852ff0>@@PEBD@?$basic_string@DU?$char_traits@D@std@@V?$allocator@D@2@@std@@AEAAAEAV01@_KV<lambda_66f57f934f28d61049862f64df852ff0>@@PEBD@Z 0000000180000000     mwsurf.obj
 0002:fffb0000       $unwind$??$_Uninitialized_move@PEAVKeyPoint@cv@@V?$allocator@VKeyPoint@cv@@@std@@@std@@YAPEAVKeyPoint@cv@@QEAV12@0PEAV12@AEAV?$allocator@VKeyPoint@cv@@@0@@Z 0000000180000000     mwsurf.obj
 0002:fffb0000       $unwind$??$construct@VKeyPoint@cv@@AEBV12@@?$_Default_allocator_traits@V?$allocator@VKeyPoint@cv@@@std@@@std@@SAXAEAV?$allocator@VKeyPoint@cv@@@1@QEAVKeyPoint@cv@@AEBV34@@Z 0000000180000000     mwsurf.obj
 0002:fffb0000       $unwind$??$construct@VKeyPoint@cv@@V12@@?$_Default_allocator_traits@V?$allocator@VKeyPoint@cv@@@std@@@std@@SAXAEAV?$allocator@VKeyPoint@cv@@@1@QEAVKeyPoint@cv@@$$QEAV34@@Z 0000000180000000     mwsurf.obj
 0002:fffb0000       $unwind$??$emplace_back@AEBVKeyPoint@cv@@@?$vector@VKeyPoint@cv@@V?$allocator@VKeyPoint@cv@@@std@@@std@@QEAAXAEBVKeyPoint@cv@@@Z 0000000180000000     mwsurf.obj
 0002:fffb0000       $unwind$??$max@_K@std@@YAAEB_KAEB_K0@Z 0000000180000000     mwsurf.obj
 0002:fffb0000       $unwind$??$min@_K@std@@YAAEB_KAEB_K0@Z 0000000180000000     mwsurf.obj
 0002:fffb0000       $unwind$??0?$Point_@M@cv@@QEAA@$$QEAV01@@Z 0000000180000000     mwsurf.obj
 0002:fffb0000       $unwind$??0?$_String_val@U?$_Simple_types@D@std@@@std@@QEAA@XZ 0000000180000000     mwsurf.obj
 0002:fffb0000       $unwind$??0?$basic_string@DU?$char_traits@D@std@@V?$allocator@D@2@@std@@QEAA@QEBD@Z 0000000180000000     mwsurf.obj
 0002:fffb0000       $unwind$??0KeyPoint@cv@@QEAA@$$QEAV01@@Z 0000000180000000     mwsurf.obj
 0002:fffb0000       $unwind$??0KeyPoint@cv@@QEAA@AEBV01@@Z 0000000180000000     mwsurf.obj
 0002:fffb0000       $unwind$??0KeyPoint@cv@@QEAA@MMMMMHH@Z 0000000180000000     mwsurf.obj
 0002:fffb0000       $unwind$??0Mat@cv@@QEAA@AEBV01@@Z 0000000180000000     mwsurf.obj
 0002:fffb0000       $unwind$??0Mat@cv@@QEAA@HHHPEAX_K@Z 0000000180000000     mwsurf.obj
 0002:fffb0000       $unwind$??0Mat@cv@@QEAA@XZ 0000000180000000     mwsurf.obj
 0002:fffb0000       $unwind$??0bad_alloc@std@@AEAA@QEBD@Z 0000000180000000     mwsurf.obj
 0002:fffb0000       $unwind$??0bad_alloc@std@@QEAA@AEBV01@@Z 0000000180000000     mwsurf.obj
 0002:fffb0000       $unwind$??0bad_array_new_length@std@@QEAA@AEBV01@@Z 0000000180000000     mwsurf.obj
 0002:fffb0000       $unwind$??0bad_array_new_length@std@@QEAA@XZ 0000000180000000     mwsurf.obj
 0002:fffb0000       $unwind$??0exception@std@@QEAA@AEBV01@@Z 0000000180000000     mwsurf.obj
 0002:fffb0000       $unwind$??0exception@std@@QEAA@QEBDH@Z 0000000180000000     mwsurf.obj
 0002:fffb0000       $unwind$??1?$_Compressed_pair@V?$allocator@D@std@@V?$_String_val@U?$_Simple_types@D@std@@@2@$00@std@@QEAA@XZ 0000000180000000     mwsurf.obj
 0002:fffb0000       $unwind$??1?$_String_val@U?$_Simple_types@D@std@@@std@@QEAA@XZ 0000000180000000     mwsurf.obj
 0002:fffb0000       $unwind$??1?$_Uninitialized_backout_al@V?$allocator@VKeyPoint@cv@@@std@@@std@@QEAA@XZ 0000000180000000     mwsurf.obj
 0002:fffb0000       $unwind$??1?$basic_string@DU?$char_traits@D@std@@V?$allocator@D@2@@std@@QEAA@XZ 0000000180000000     mwsurf.obj
 0002:fffb0000       $unwind$??1Mat@cv@@QEAA@XZ 0000000180000000     mwsurf.obj
 0002:fffb0000       $unwind$??1bad_alloc@std@@UEAA@XZ 0000000180000000     mwsurf.obj
 0002:fffb0000       $unwind$??1bad_array_new_length@std@@UEAA@XZ 0000000180000000     mwsurf.obj
 0002:fffb0000       $unwind$??1exception@std@@UEAA@XZ 0000000180000000     mwsurf.obj
 0002:fffb0000       $unwind$??A?$vector@VKeyPoint@cv@@V?$allocator@VKeyPoint@cv@@@std@@@std@@QEAAAEAVKeyPoint@cv@@_K@Z 0000000180000000     mwsurf.obj
 0002:fffb0000       $unwind$??R<lambda_66f57f934f28d61049862f64df852ff0>@@QEBAXQEAD_KQEBD@Z 0000000180000000     mwsurf.obj
 0002:fffb0000       $unwind$??RMatSize@cv@@QEBA?AV?$Size_@H@1@XZ 0000000180000000     mwsurf.obj
 0002:fffb0000       $unwind$??_GMat@cv@@QEAAPEAXI@Z 0000000180000000     mwsurf.obj
 0002:fffb0000       $unwind$??_Gbad_alloc@std@@UEAAPEAXI@Z 0000000180000000     mwsurf.obj
 0002:fffb0000       $unwind$??_Gbad_array_new_length@std@@UEAAPEAXI@Z 0000000180000000     mwsurf.obj
 0002:fffb0000       $unwind$??_Gexception@std@@UEAAPEAXI@Z 0000000180000000     mwsurf.obj
 0002:fffb0000       $unwind$?_Adjust_manually_vector_aligned@std@@YAXAEAPEAXAEA_K@Z 0000000180000000     mwsurf.obj
 0002:fffb0000       $unwind$?_Allocate@_Default_allocate_traits@std@@SAPEAX_K@Z 0000000180000000     mwsurf.obj
 0002:fffb0000       $unwind$?_Calculate_growth@?$basic_string@DU?$char_traits@D@std@@V?$allocator@D@2@@std@@AEBA_K_K@Z 0000000180000000     mwsurf.obj
 0002:fffb0000       $unwind$?_Calculate_growth@?$basic_string@DU?$char_traits@D@std@@V?$allocator@D@2@@std@@CA_K_K00@Z 0000000180000000     mwsurf.obj
 0002:fffb0000       $unwind$?_Calculate_growth@?$vector@VKeyPoint@cv@@V?$allocator@VKeyPoint@cv@@@std@@@std@@AEBA_K_K@Z 0000000180000000     mwsurf.obj
 0002:fffb0000       $unwind$?_Change_array@?$vector@VKeyPoint@cv@@V?$allocator@VKeyPoint@cv@@@std@@@std@@AEAAXQEAVKeyPoint@cv@@_K1@Z 0000000180000000     mwsurf.obj
 0002:fffb0000       $unwind$?_Decref@_Ref_count_base@std@@QEAAXXZ 0000000180000000     mwsurf.obj
 0002:fffb0000       $unwind$?_Decwref@_Ref_count_base@std@@QEAAXXZ 0000000180000000     mwsurf.obj
 0002:fffb0000       $unwind$?_Destroy@?$vector@VKeyPoint@cv@@V?$allocator@VKeyPoint@cv@@@std@@@std@@AEAAXPEAVKeyPoint@cv@@0@Z 0000000180000000     mwsurf.obj
 0002:fffb0000       $unwind$?_Getal@?$basic_string@DU?$char_traits@D@std@@V?$allocator@D@2@@std@@AEAAAEAV?$allocator@D@2@XZ 0000000180000000     mwsurf.obj
 0002:fffb0000       $unwind$?_Getal@?$basic_string@DU?$char_traits@D@std@@V?$allocator@D@2@@std@@AEBAAEBV?$allocator@D@2@XZ 0000000180000000     mwsurf.obj
 0002:fffb0000       $unwind$?_Getal@?$vector@VKeyPoint@cv@@V?$allocator@VKeyPoint@cv@@@std@@@std@@AEAAAEAV?$allocator@VKeyPoint@cv@@@2@XZ 0000000180000000     mwsurf.obj
 0002:fffb0000       $unwind$?_Getal@?$vector@VKeyPoint@cv@@V?$allocator@VKeyPoint@cv@@@std@@@std@@AEBAAEBV?$allocator@VKeyPoint@cv@@@2@XZ 0000000180000000     mwsurf.obj
 0002:fffb0000       $unwind$?_Large_string_engaged@?$_String_val@U?$_Simple_types@D@std@@@std@@QEBA_NXZ 0000000180000000     mwsurf.obj
 0002:fffb0000       $unwind$?_Myptr@?$_String_val@U?$_Simple_types@D@std@@@std@@QEAAPEADXZ 0000000180000000     mwsurf.obj
 0002:fffb0000       $unwind$?_Throw_bad_array_new_length@std@@YAXXZ 0000000180000000     mwsurf.obj
 0002:fffb0000       $unwind$?_Tidy_deallocate@?$basic_string@DU?$char_traits@D@std@@V?$allocator@D@2@@std@@AEAAXXZ 0000000180000000     mwsurf.obj
 0002:fffb0000       $unwind$?_Tidy_init@?$basic_string@DU?$char_traits@D@std@@V?$allocator@D@2@@std@@AEAAXXZ 0000000180000000     mwsurf.obj
 0002:fffb0000       $unwind$?_Umove@?$vector@VKeyPoint@cv@@V?$allocator@VKeyPoint@cv@@@std@@@std@@AEAAPEAVKeyPoint@cv@@PEAV34@00@Z 0000000180000000     mwsurf.obj
 0002:fffb0000       $unwind$?_Umove_if_noexcept1@?$vector@VKeyPoint@cv@@V?$allocator@VKeyPoint@cv@@@std@@@std@@AEAAXPEAVKeyPoint@cv@@00U?$integral_constant@_N$00@2@@Z 0000000180000000     mwsurf.obj
 0002:fffb0000       $unwind$?_Umove_if_noexcept@?$vector@VKeyPoint@cv@@V?$allocator@VKeyPoint@cv@@@std@@@std@@AEAAXPEAVKeyPoint@cv@@00@Z 0000000180000000     mwsurf.obj
 0002:fffb0000       $unwind$?_Xlen_string@std@@YAXXZ 0000000180000000     mwsurf.obj
 0002:fffb0000       $unwind$?_Xlength@?$vector@VKeyPoint@cv@@V?$allocator@VKeyPoint@cv@@@std@@@std@@CAXXZ 0000000180000000     mwsurf.obj
 0002:fffb0000       $unwind$?allocate@?$allocator@D@std@@QEAAPEAD_K@Z 0000000180000000     mwsurf.obj
 0002:fffb0000       $unwind$?allocate@?$allocator@VKeyPoint@cv@@@std@@QEAAPEAVKeyPoint@cv@@_K@Z 0000000180000000     mwsurf.obj
 0002:fffb0000       $unwind$?assign@?$basic_string@DU?$char_traits@D@std@@V?$allocator@D@2@@std@@QEAAAEAV12@QEBD@Z 0000000180000000     mwsurf.obj
 0002:fffb0000       $unwind$?assign@?$basic_string@DU?$char_traits@D@std@@V?$allocator@D@2@@std@@QEAAAEAV12@QEBD_K@Z 0000000180000000     mwsurf.obj
 0002:fffb0000       $unwind$?capacity@?$vector@VKeyPoint@cv@@V?$allocator@VKeyPoint@cv@@@std@@@std@@QEBA_KXZ 0000000180000000     mwsurf.obj
 0002:fffb0000       $unwind$?catch$0@?0???$_Emplace_reallocate@AEBVKeyPoint@cv@@@?$vector@VKeyPoint@cv@@V?$allocator@VKeyPoint@cv@@@std@@@std@@QEAAPEAVKeyPoint@cv@@QEAV23@AEBV23@@Z@4HA 0000000180000000     mwsurf.obj
 0002:fffb0000       $unwind$?copy@?$_Char_traits@DH@std@@SAPEADQEADQEBD_K@Z 0000000180000000     mwsurf.obj
 0002:fffb0000       $unwind$?deallocate@?$allocator@D@std@@QEAAXQEAD_K@Z 0000000180000000     mwsurf.obj
 0002:fffb0000       $unwind$?deallocate@?$allocator@VKeyPoint@cv@@@std@@QEAAXQEAVKeyPoint@cv@@_K@Z 0000000180000000     mwsurf.obj
 0002:fffb0000       $unwind$?dtor$0@?0???$_Uninitialized_move@PEAVKeyPoint@cv@@V?$allocator@VKeyPoint@cv@@@std@@@std@@YAPEAVKeyPoint@cv@@QEAV12@0PEAV12@AEAV?$allocator@VKeyPoint@cv@@@0@@Z@4HA 0000000180000000     mwsurf.obj
 0002:fffb0000       $unwind$?dtor$0@?0???0?$basic_string@DU?$char_traits@D@std@@V?$allocator@D@2@@std@@QEAA@QEBD@Z@4HA 0000000180000000     mwsurf.obj
 0002:fffb0000       $unwind$?dtor$0@?0???0Mat@cv@@QEAA@HHHPEAX_K@Z@4HA 0000000180000000     mwsurf.obj
 0002:fffb0000       $unwind$?dtor$1@?0???0Mat@cv@@QEAA@HHHPEAX_K@Z@4HA 0000000180000000     mwsurf.obj
 0002:fffb0000       $unwind$?length@?$_Narrow_char_traits@DH@std@@SA_KQEBD@Z 0000000180000000     mwsurf.obj
 0002:fffb0000       $unwind$?max_size@?$basic_string@DU?$char_traits@D@std@@V?$allocator@D@2@@std@@QEBA_KXZ 0000000180000000     mwsurf.obj
 0002:fffb0000       $unwind$?max_size@?$vector@VKeyPoint@cv@@V?$allocator@VKeyPoint@cv@@@std@@@std@@QEBA_KXZ 0000000180000000     mwsurf.obj
 0002:fffb0000       $unwind$?move@?$_Char_traits@DH@std@@SAPEADQEADQEBD_K@Z 0000000180000000     mwsurf.obj
 0002:fffb0000       $unwind$?push_back@?$vector@VKeyPoint@cv@@V?$allocator@VKeyPoint@cv@@@std@@@std@@QEAAXAEBVKeyPoint@cv@@@Z 0000000180000000     mwsurf.obj
 0002:fffb0000       $unwind$?release@Mat@cv@@QEAAXXZ 0000000180000000     mwsurf.obj
 0002:fffb0000       $unwind$?size@?$vector@VKeyPoint@cv@@V?$allocator@VKeyPoint@cv@@@std@@@std@@QEBA_KXZ 0000000180000000     mwsurf.obj
 0002:fffb0000       $unwind$?total@Mat@cv@@QEBA_KXZ 0000000180000000     mwsurf.obj
 0002:fffb0000       $unwind$?what@exception@std@@UEBAPEBDXZ 0000000180000000     mwsurf.obj
 0001:fffff000       ?catch$0@?0???$_Emplace_reallocate@AEBVKeyPoint@cv@@@?$vector@VKeyPoint@cv@@V?$allocator@VKeyPoint@cv@@@std@@@std@@QEAAPEAVKeyPoint@cv@@QEAV23@AEBV23@@Z@4HA 0000000180000000 f   mwsurf.obj
 0001:fffff000       ?dtor$0@?0???$_Uninitialized_move@PEAVKeyPoint@cv@@V?$allocator@VKeyPoint@cv@@@std@@@std@@YAPEAVKeyPoint@cv@@QEAV12@0PEAV12@AEAV?$allocator@VKeyPoint@cv@@@0@@Z@4HA 0000000180000000 f   mwsurf.obj
 0001:fffff000       ?dtor$0@?0???0?$basic_string@DU?$char_traits@D@std@@V?$allocator@D@2@@std@@QEAA@QEBD@Z@4HA 0000000180000000 f   mwsurf.obj
 0001:fffff000       ?dtor$0@?0???0Mat@cv@@QEAA@HHHPEAX_K@Z@4HA 0000000180000000 f   mwsurf.obj
 0001:fffff000       ?dtor$1@?0???0Mat@cv@@QEAA@HHHPEAX_K@Z@4HA 0000000180000000 f   mwsurf.obj
 0002:fffb0000       __guard_ehcont_?dllmain_dispatch@@YAHQEAUHINSTANCE__@@KQEAX@Z 0000000180000000     MSVCRT:dll_dllmain.obj
 0002:fffb0000       __guard_fids_?dllmain_dispatch@@YAHQEAUHINSTANCE__@@KQEAX@Z 0000000180000000     MSVCRT:dll_dllmain.obj
 0002:fffb0000       __guard_fids__             0000000180000000     MSVCRT:guard_support.obj
 0002:fffb0000       __guard_fids__             0000000180000000     MSVCRT:guard_support.obj
 0002:fffb0000       __guard_fids__guard_icall_checks_enforced 0000000180000000     MSVCRT:guard_support.obj
 0002:fffb0000       __guard_fids__             0000000180000000     MSVCRT:std_type_info_static.obj
 0002:fffb0000       $unwind$??0bad_alloc@std@@QEAA@AEBV01@@Z 0000000180000000     MSVCRT:throw_bad_alloc.obj
 0002:fffb0000       $unwind$??0bad_array_new_length@std@@QEAA@AEBV01@@Z 0000000180000000     MSVCRT:throw_bad_alloc.obj
 0002:fffb0000       $unwind$??0exception@std@@QEAA@AEBV01@@Z 0000000180000000     MSVCRT:throw_bad_alloc.obj
 0002:fffb0000       $unwind$??_Gbad_alloc@std@@UEAAPEAXI@Z 0000000180000000     MSVCRT:throw_bad_alloc.obj
 0002:fffb0000       $unwind$??_Gbad_array_new_length@std@@UEAAPEAXI@Z 0000000180000000     MSVCRT:throw_bad_alloc.obj
 0002:fffb0000       $unwind$??_Gexception@std@@UEAAPEAXI@Z 0000000180000000     MSVCRT:throw_bad_alloc.obj
 0002:fffb0000       __guard_fids__             0000000180000000     MSVCRT:throw_bad_alloc.obj
 0002:fffb0000       __guard_fids__             0000000180000000     MSVCRT:throw_bad_alloc.obj
 0002:fffb0000       __guard_fids__             0000000180000000     MSVCRT:throw_bad_alloc.obj
 0002:fffb0000       __guard_ehcont___scrt_is_nonwritable_in_current_image 0000000180000000     MSVCRT:utility.obj
 0002:fffb0000       __guard_fids___scrt_set_unhandled_exception_filter 0000000180000000     MSVCRT:utility_desktop.obj
 0000:00000000       .debug$S                   0000000180000000     msvcprt:MSVCP140.dll
 0000:00000000       .debug$S                   0000000180000000     msvcprt:MSVCP140.dll
 0000:00000000       .debug$S                   0000000180000000     msvcprt:MSVCP140.dll
 0000:00000000       .debug$S                   0000000180000000     msvcprt:MSVCP140.dll
 0000:00000000       .debug$S                   0000000180000000     msvcprt:MSVCP140.dll
 0000:00000000       .debug$S                   0000000180000000     msvcprt:MSVCP140.dll
 0000:00000000       .debug$S                   0000000180000000     msvcprt:MSVCP140.dll
 0000:00000000       .debug$S                   0000000180000000     msvcprt:MSVCP140.dll
 0000:00000000       .debug$S                   0000000180000000     msvcprt:MSVCP140.dll
 0000:00000000       .debug$S                   0000000180000000     msvcprt:MSVCP140.dll
 0000:00000000       .debug$S                   0000000180000000     msvcprt:MSVCP140.dll
 0000:00000000       .debug$S                   0000000180000000     msvcprt:MSVCP140.dll
 0000:00000000       .debug$S                   0000000180000000     msvcprt:MSVCP140.dll
 0000:00000000       .debug$S                   0000000180000000     msvcprt:MSVCP140.dll
 0000:00000000       .debug$S                   0000000180000000     msvcprt:MSVCP140.dll
 0000:00000000       .debug$S                   0000000180000000     msvcprt:MSVCP140.dll
 0000:00000000       .debug$S                   0000000180000000     msvcprt:MSVCP140.dll
 0000:00000000       .debug$S                   0000000180000000     msvcprt:MSVCP140.dll
 0000:00000000       .debug$S                   0000000180000000     msvcprt:MSVCP140.dll
 0000:00000000       .debug$S                   0000000180000000     msvcprt:MSVCP140.dll
 0000:00000000       .debug$S                   0000000180000000     msvcprt:MSVCP140.dll
 0000:00000000       .debug$S                   0000000180000000     msvcprt:MSVCP140.dll
 0000:00000000       .debug$S                   0000000180000000     msvcprt:MSVCP140.dll
 0000:00000000       .debug$S                   0000000180000000     msvcprt:MSVCP140.dll
 0000:00000000       .debug$S                   0000000180000000     msvcprt:MSVCP140.dll
 0000:00000000       .debug$S                   0000000180000000     msvcprt:MSVCP140.dll
 0000:00000000       .debug$S                   0000000180000000     msvcprt:MSVCP140.dll
 0000:00000000       .debug$S                   0000000180000000     msvcprt:MSVCP140.dll
 0000:00000000       .debug$S                   0000000180000000     msvcprt:MSVCP140.dll
 0000:00000000       .debug$S                   0000000180000000     msvcprt:MSVCP140.dll
 0000:00000000       .debug$S                   0000000180000000     vcruntime:VCRUNTIME140.dll
 0000:00000000       .debug$S                   0000000180000000     vcruntime:VCRUNTIME140.dll
 0000:00000000       .debug$S                   0000000180000000     vcruntime:VCRUNTIME140.dll
 0000:00000000       .debug$S                   0000000180000000     vcruntime:VCRUNTIME140.dll
 0000:00000000       .debug$S                   0000000180000000     vcruntime:VCRUNTIME140.dll
 0000:00000000       .debug$S                   0000000180000000     vcruntime:VCRUNTIME140.dll
 0000:00000000       .debug$S                   0000000180000000     vcruntime:VCRUNTIME140.dll
 0000:00000000       .debug$S                   0000000180000000     vcruntime:VCRUNTIME140.dll
 0000:00000000       .debug$S                   0000000180000000     vcruntime:VCRUNTIME140.dll
 0000:00000000       .debug$S                   0000000180000000     vcruntime:VCRUNTIME140.dll
 0000:00000000       .debug$S                   0000000180000000     vcruntime:VCRUNTIME140.dll
 0000:00000000       .debug$S                   0000000180000000     vcruntime:VCRUNTIME140.dll
 0000:00000000       .debug$S                   0000000180000000     vcruntime:VCRUNTIME140_1.dll
 0000:00000000       .debug$S                   0000000180000000     ucrt:api-ms-win-crt-heap-l1-1-0.dll
 0000:00000000       .debug$S                   0000000180000000     ucrt:api-ms-win-crt-heap-l1-1-0.dll
 0000:00000000       .debug$S                   0000000180000000     ucrt:api-ms-win-crt-heap-l1-1-0.dll
 0000:00000000       .debug$S                   0000000180000000     ucrt:api-ms-win-crt-heap-l1-1-0.dll
 0000:00000000       .debug$S                   0000000180000000     ucrt:api-ms-win-crt-math-l1-1-0.dll
 0000:00000000       .debug$S                   0000000180000000     ucrt:api-ms-win-crt-math-l1-1-0.dll
 0000:00000000       .debug$S                   0000000180000000     ucrt:api-ms-win-crt-math-l1-1-0.dll
 0000:00000000       .debug$S                   0000000180000000     ucrt:api-ms-win-crt-math-l1-1-0.dll
 0000:00000000       .debug$S                   0000000180000000     ucrt:api-ms-win-crt-math-l1-1-0.dll
 0000:00000000       .debug$S                   0000000180000000     ucrt:api-ms-win-crt-runtime-l1-1-0.dll
 0000:00000000       .debug$S                   0000000180000000     ucrt:api-ms-win-crt-runtime-l1-1-0.dll
 0000:00000000       .debug$S                   0000000180000000     ucrt:api-ms-win-crt-runtime-l1-1-0.dll
 0000:00000000       .debug$S                   0000000180000000     ucrt:api-ms-win-crt-runtime-l1-1-0.dll
 0000:00000000       .debug$S                   0000000180000000     ucrt:api-ms-win-crt-runtime-l1-1-0.dll
 0000:00000000       .debug$S                   0000000180000000     ucrt:api-ms-win-crt-runtime-l1-1-0.dll
 0000:00000000       .debug$S                   0000000180000000     ucrt:api-ms-win-crt-runtime-l1-1-0.dll
 0000:00000000       .debug$S                   0000000180000000     ucrt:api-ms-win-crt-runtime-l1-1-0.dll
 0000:00000000       .debug$S                   0000000180000000     ucrt:api-ms-win-crt-runtime-l1-1-0.dll
 0000:00000000       .debug$S                   0000000180000000     ucrt:api-ms-win-crt-runtime-l1-1-0.dll
 0000:00000000       .debug$S                   0000000180000000     ucrt:api-ms-win-crt-runtime-l1-1-0.dll
 0000:00000000       .debug$S                   0000000180000000     ucrt:api-ms-win-crt-runtime-l1-1-0.dll
 0000:00000000       .debug$S                   0000000180000000     ucrt:api-ms-win-crt-runtime-l1-1-0.dll
 0000:00000000       .debug$S                   0000000180000000     ucrt:api-ms-win-crt-runtime-l1-1-0.dll
 0000:00000000       .debug$S                   0000000180000000     ucrt:api-ms-win-crt-stdio-l1-1-0.dll
 0000:00000000       .debug$S                   0000000180000000     ucrt:api-ms-win-crt-string-l1-1-0.dll
 0000:00000000       .debug$S                   0000000180000000     ucrt:api-ms-win-crt-string-l1-1-0.dll
 0000:00000000       .debug$S                   0000000180000000     ucrt:api-ms-win-crt-string-l1-1-0.dll
 0000:00000000       .debug$S                   0000000180000000     ucrt:api-ms-win-crt-string-l1-1-0.dll
 0000:00000000       .debug$S                   0000000180000000     ucrt:api-ms-win-crt-utility-l1-1-0.dll
 0000:00000000       .debug$S                   0000000180000000     kernel32:KERNEL32.dll
 0000:00000000       .debug$S                   0000000180000000     kernel32:KERNEL32.dll
 0000:00000000       .debug$S                   0000000180000000     kernel32:KERNEL32.dll
 0000:00000000       .debug$S                   0000000180000000     kernel32:KERNEL32.dll
 0000:00000000       .debug$S                   0000000180000000     kernel32:KERNEL32.dll
 0000:00000000       .debug$S                   0000000180000000     kernel32:KERNEL32.dll
 0000:00000000       .debug$S                   0000000180000000     kernel32:KERNEL32.dll
 0000:00000000       .debug$S                   0000000180000000     kernel32:KERNEL32.dll
 0000:00000000       .debug$S                   0000000180000000     kernel32:KERNEL32.dll
 0000:00000000       .debug$S                   0000000180000000     kernel32:KERNEL32.dll
 0000:00000000       .debug$S                   0000000180000000     kernel32:KERNEL32.dll
 0000:00000000       .debug$S                   0000000180000000     kernel32:KERNEL32.dll
 0000:00000000       .debug$S                   0000000180000000     kernel32:KERNEL32.dll
 0000:00000000       .debug$S                   0000000180000000     kernel32:KERNEL32.dll
 0000:00000000       .debug$S                   0000000180000000     kernel32:KERNEL32.dll
 0000:00000000       .debug$S                   0000000180000000     kernel32:KERNEL32.dll
 0000:00000000       .debug$S                   0000000180000000     kernel32:KERNEL32.dll
 0000:00000000       .debug$S                   0000000180000000     libcovrt:libcovrt.dll
 0000:00000000       .debug$S                   0000000180000000     libcovrt:libcovrt.dll
 0000:00000000       .debug$S                   0000000180000000     libcovrt:libcovrt.dll
 0000:00000000       .debug$S                   0000000180000000     libcovrt:libcovrt.dll
 0000:00000000       .debug$S                   0000000180000000     libcovrt:libcovrt.dll
 0000:00000000       .debug$S                   0000000180000000     libcovrt:libcovrt.dll
 0000:00000000       .debug$S                   0000000180000000     libcovrt:libcovrt.dll
 0000:00000000       .debug$S                   0000000180000000     libcovrt:libcovrt.dll
 0000:00000000       .debug$S                   0000000180000000     libcovrt:libcovrt.dll
 0000:00000000       .debug$S                   0000000180000000     libemlrt:libemlrt.dll
 0000:00000000       .debug$S                   0000000180000000     libemlrt:libemlrt.dll
 0000:00000000       .debug$S                   0000000180000000     libemlrt:libemlrt.dll
 0000:00000000       .debug$S                   0000000180000000     libemlrt:libemlrt.dll
 0000:00000000       .debug$S                   0000000180000000     libemlrt:libemlrt.dll
 0000:00000000       .debug$S                   0000000180000000     libemlrt:libemlrt.dll
 0000:00000000       .debug$S                   0000000180000000     libemlrt:libemlrt.dll
 0000:00000000       .debug$S                   0000000180000000     libemlrt:libemlrt.dll
 0000:00000000       .debug$S                   0000000180000000     libemlrt:libemlrt.dll
 0000:00000000       .debug$S                   0000000180000000     libemlrt:libemlrt.dll
 0000:00000000       .debug$S                   0000000180000000     libmex:libmex.dll
 0000:00000000       .debug$S                   0000000180000000     libmex:libmex.dll
 0000:00000000       .debug$S                   0000000180000000     libmex:libmex.dll
 0000:00000000       .debug$S                   0000000180000000     libmex:libmex.dll
 0000:00000000       .debug$S                   0000000180000000     libmex:libmex.dll
 0000:00000000       .debug$S                   0000000180000000     libmex:libmex.dll
 0000:00000000       .debug$S                   0000000180000000     libmex:libmex.dll
 0000:00000000       .debug$S                   0000000180000000     libmwComputeMetric:libmwComputeMetric.dll
 0000:00000000       .debug$S                   0000000180000000     libmwjpegreader:libmwjpegreader.dll
 0000:00000000       .debug$S                   0000000180000000     libmwmathutil:libmwmathutil.dll
 0000:00000000       .debug$S                   0000000180000000     libmwmathutil:libmwmathutil.dll
 0000:00000000       .debug$S                   0000000180000000     libmwmathutil:libmwmathutil.dll
 0000:00000000       .debug$S                   0000000180000000     libmwmathutil:libmwmathutil.dll
 0000:00000000       .debug$S                   0000000180000000     libmwmathutil:libmwmathutil.dll
 0000:00000000       .debug$S                   0000000180000000     libmwmathutil:libmwmathutil.dll
 0000:00000000       .debug$S                   0000000180000000     libmwmathutil:libmwmathutil.dll
 0000:00000000       .debug$S                   0000000180000000     libmwrgb2gray_tbb:libmwrgb2gray_tbb.dll
 0000:00000000       .debug$S                   0000000180000000     libmx:libmx.dll
 0000:00000000       .debug$S                   0000000180000000     libmx:libmx.dll
 0000:00000000       .debug$S                   0000000180000000     libmx:libmx.dll
 0000:00000000       .debug$S                   0000000180000000     libmx:libmx.dll
 0000:00000000       .debug$S                   0000000180000000     libmx:libmx.dll
 0000:00000000       .debug$S                   0000000180000000     libmx:libmx.dll
 0000:00000000       .debug$S                   0000000180000000     libmx:libmx.dll
 0000:00000000       .debug$S                   0000000180000000     libmx:libmx.dll
 0000:00000000       .debug$S                   0000000180000000     libmx:libmx.dll
 0000:00000000       .debug$S                   0000000180000000     libmx:libmx.dll
 0000:00000000       .debug$S                   0000000180000000     libmx:libmx.dll
 0000:00000000       .debug$S                   0000000180000000     libmx:libmx.dll
 0000:00000000       .debug$S                   0000000180000000     libmx:libmx.dll
 0000:00000000       .debug$S                   0000000180000000     libmx:libmx.dll
 0000:00000000       .debug$S                   0000000180000000     libmx:libmx.dll
 0000:00000000       .debug$S                   0000000180000000     libmx:libmx.dll
 0000:00000000       .debug$S                   0000000180000000     libmx:libmx.dll
 0000:00000000       .debug$S                   0000000180000000     libmx:libmx.dll
 0000:00000000       .debug$S                   0000000180000000     libmx:libmx.dll
 0000:00000000       .debug$S                   0000000180000000     libmx:libmx.dll
 0000:00000000       .debug$S                   0000000180000000     libmx:libmx.dll
 0000:00000000       .debug$S                   0000000180000000     libut:libut.dll
 0000:00000000       .debug$S                   0000000180000000     libut:libut.dll
 0000:00000000       .debug$S                   0000000180000000     sf_runtime:sf_runtime.dll
 0000:00000000       .debug$S                   0000000180000000     sf_runtime:sf_runtime.dll
 0000:00000000       .debug$S                   0000000180000000     sf_runtime:sf_runtime.dll
 0000:00000000       .debug$S                   0000000180000000     sf_runtime:sf_runtime.dll
 0000:00000000       .debug$S                   0000000180000000     sf_runtime:sf_runtime.dll
 0000:00000000       .debug$S                   0000000180000000     sf_runtime:sf_runtime.dll
 0000:00000000       .debug$S                   0000000180000000     sf_runtime:sf_runtime.dll
 0000:00000000       .debug$S                   0000000180000000     sf_runtime:sf_runtime.dll
 0000:00000000       .debug$S                   0000000180000000     sf_runtime:sf_runtime.dll
 0000:00000000       .debug$S                   0000000180000000     sf_runtime:sf_runtime.dll
 0000:00000000       .debug$S                   0000000180000000     sf_runtime:sf_runtime.dll
 0000:00000000       .debug$S                   0000000180000000     sf_runtime:sf_runtime.dll
 0000:00000000       .debug$S                   0000000180000000     sf_runtime:sf_runtime.dll
 0000:00000000       .debug$S                   0000000180000000     sf_runtime:sf_runtime.dll
 0000:00000000       .debug$S                   0000000180000000     sf_runtime:sf_runtime.dll
 0000:00000000       .debug$S                   0000000180000000     sf_runtime:sf_runtime.dll
 0000:00000000       .debug$S                   0000000180000000     sf_runtime:sf_runtime.dll
 0000:00000000       .debug$S                   0000000180000000     sf_runtime:sf_runtime.dll
 0000:00000000       .debug$S                   0000000180000000     sf_runtime:sf_runtime.dll
 0000:00000000       .debug$S                   0000000180000000     sf_runtime:sf_runtime.dll
 0000:00000000       .debug$S                   0000000180000000     sf_runtime:sf_runtime.dll
 0000:00000000       .debug$S                   0000000180000000     sf_runtime:sf_runtime.dll
 0000:00000000       .debug$S                   0000000180000000     sf_runtime:sf_runtime.dll
 0000:00000000       .debug$S                   0000000180000000     sf_runtime:sf_runtime.dll
 0000:00000000       .debug$S                   0000000180000000     sf_runtime:sf_runtime.dll
 0000:00000000       .debug$S                   0000000180000000     sf_runtime:sf_runtime.dll
 0000:00000000       .debug$S                   0000000180000000     sf_runtime:sf_runtime.dll
 0000:00000000       .debug$S                   0000000180000000     sf_runtime:sf_runtime.dll
 0000:00000000       .debug$S                   0000000180000000     sf_runtime:sf_runtime.dll
 0000:00000000       .debug$S                   0000000180000000     sf_runtime:sf_runtime.dll
 0000:00000000       .debug$S                   0000000180000000     sf_runtime:sf_runtime.dll
 0000:00000000       .debug$S                   0000000180000000     sf_runtime:sf_runtime.dll
 0000:00000000       .debug$S                   0000000180000000     sf_runtime:sf_runtime.dll
 0000:00000000       .debug$S                   0000000180000000     sf_runtime:sf_runtime.dll
 0000:00000000       .debug$S                   0000000180000000     sf_runtime:sf_runtime.dll
 0000:00000000       .debug$S                   0000000180000000     sf_runtime:sf_runtime.dll
 0000:00000000       .debug$S                   0000000180000000     sf_runtime:sf_runtime.dll
 0000:00000000       .debug$S                   0000000180000000     sf_runtime:sf_runtime.dll
 0000:00000000       .debug$S                   0000000180000000     sf_runtime:sf_runtime.dll
 0000:00000000       .debug$S                   0000000180000000     sf_runtime:sf_runtime.dll
 0000:00000000       .debug$S                   0000000180000000     opencv_core420:opencv_core420.dll
 0000:00000000       .debug$S                   0000000180000000     opencv_core420:opencv_core420.dll
 0000:00000000       .debug$S                   0000000180000000     opencv_core420:opencv_core420.dll
 0000:00000000       .debug$S                   0000000180000000     opencv_core420:opencv_core420.dll
 0000:00000000       .debug$S                   0000000180000000     opencv_core420:opencv_core420.dll
 0000:00000000       .debug$S                   0000000180000000     opencv_core420:opencv_core420.dll
 0000:00000000       .debug$S                   0000000180000000     opencv_core420:opencv_core420.dll
 0000:00000000       .debug$S                   0000000180000000     opencv_core420:opencv_core420.dll
 0000:00000000       .debug$S                   0000000180000000     opencv_core420:opencv_core420.dll
 0000:00000000       .debug$S                   0000000180000000     opencv_core420:opencv_core420.dll
 0000:00000000       .debug$S                   0000000180000000     opencv_core420:opencv_core420.dll
 0000:00000000       .debug$S                   0000000180000000     opencv_core420:opencv_core420.dll
 0000:00000000       .debug$S                   0000000180000000     opencv_core420:opencv_core420.dll
 0000:00000000       .debug$S                   0000000180000000     opencv_core420:opencv_core420.dll
 0000:00000000       .debug$S                   0000000180000000     opencv_core420:opencv_core420.dll
 0000:00000000       .debug$S                   0000000180000000     opencv_core420:opencv_core420.dll
 0000:00000000       .debug$S                   0000000180000000     opencv_core420:opencv_core420.dll
 0000:00000000       .debug$S                   0000000180000000     opencv_core420:opencv_core420.dll
 0000:00000000       .debug$S                   0000000180000000     opencv_core420:opencv_core420.dll
 0000:00000000       .debug$S                   0000000180000000     opencv_core420:opencv_core420.dll
 0000:00000000       .debug$S                   0000000180000000     opencv_core420:opencv_core420.dll
 0000:00000000       .debug$S                   0000000180000000     opencv_core420:opencv_core420.dll
 0000:00000000       .debug$S                   0000000180000000     opencv_core420:opencv_core420.dll
 0000:00000000       .debug$S                   0000000180000000     opencv_core420:opencv_core420.dll
 0000:00000000       .debug$S                   0000000180000000     opencv_core420:opencv_core420.dll
 0000:00000000       .debug$S                   0000000180000000     opencv_features2d420:opencv_features2d420.dll
 0000:00000000       .debug$S                   0000000180000000     opencv_features2d420:opencv_features2d420.dll
 0000:00000000       .debug$S                   0000000180000000     opencv_features2d420:opencv_features2d420.dll
 0000:00000000       .debug$S                   0000000180000000     opencv_features2d420:opencv_features2d420.dll
 0000:00000000       .debug$S                   0000000180000000     opencv_features2d420:opencv_features2d420.dll
 0000:00000000       .debug$S                   0000000180000000     opencv_features2d420:opencv_features2d420.dll
 0000:00000000       .debug$S                   0000000180000000     opencv_features2d420:opencv_features2d420.dll
 0000:00000000       .debug$S                   0000000180000000     opencv_features2d420:opencv_features2d420.dll
 0000:00000000       .debug$S                   0000000180000000     opencv_features2d420:opencv_features2d420.dll
 0000:00000000       .debug$S                   0000000180000000     opencv_features2d420:opencv_features2d420.dll
 0000:00000000       .debug$S                   0000000180000000     opencv_features2d420:opencv_features2d420.dll
 0000:00000000       .debug$S                   0000000180000000     opencv_features2d420:opencv_features2d420.dll
 0000:00000000       .debug$S                   0000000180000000     opencv_features2d420:opencv_features2d420.dll
 0000:00000000       .debug$S                   0000000180000000     opencv_imgproc420:opencv_imgproc420.dll
 0000:00000000       .debug$S                   0000000180000000     opencv_imgproc420:opencv_imgproc420.dll
 0000:00000000       .debug$S                   0000000180000000     opencv_imgproc420:opencv_imgproc420.dll
 0000:00000000       .debug$S                   0000000180000000     opencv_imgproc420:opencv_imgproc420.dll
 0001:fffff00d       __catch$??$?6U?$char_traits@D@std@@@std@@YAAEAV?$basic_ostream@DU?$char_traits@D@std@@@0@AEAV10@PEBD@Z$0 000000018000000d f   cgCommon.obj
 0001:fffff00d       __catch$??$?6U?$char_traits@D@std@@@std@@YAAEAV?$basic_ostream@DU?$char_traits@D@std@@@0@AEAV10@PEBD@Z$0 000000018000000d f   fastHessianDetectorCore.obj
 0001:fffff00d       __catch$??$_Emplace_reallocate@AEBVKeyPoint@cv@@@?$vector@VKeyPoint@cv@@V?$allocator@VKeyPoint@cv@@@std@@@std@@QEAAPEAVKeyPoint@cv@@QEAV23@AEBV23@@Z$0 000000018000000d f   mwsurf.obj
 0001:00000000       ??__F?policy@?$SinglePolicy@H@anyimpl@cvflann@@0U?$small_any_policy@H@23@A@@YAXXZ 0000000180001000 f   extractSurfCore.obj
 0001:00000020       ??__F?policy@?$SinglePolicy@I@anyimpl@cvflann@@0U?$small_any_policy@I@23@A@@YAXXZ 0000000180001020 f   extractSurfCore.obj
 0001:00000040       ??__F?policy@?$SinglePolicy@M@anyimpl@cvflann@@0U?$small_any_policy@M@23@A@@YAXXZ 0000000180001040 f   extractSurfCore.obj
 0001:00000060       ??__F?policy@?$SinglePolicy@PEBD@anyimpl@cvflann@@0U?$small_any_policy@PEBD@23@A@@YAXXZ 0000000180001060 f   extractSurfCore.obj
 0001:00000080       ??__F?policy@?$SinglePolicy@Uempty_any@anyimpl@cvflann@@@anyimpl@cvflann@@0U?$big_any_policy@Uempty_any@anyimpl@cvflann@@@23@A@@YAXXZ 0000000180001080 f   extractSurfCore.obj
 0001:000000a0       ??__F?policy@?$SinglePolicy@V?$basic_string@DU?$char_traits@D@std@@V?$allocator@D@2@@std@@@anyimpl@cvflann@@0U?$big_any_policy@V?$basic_string@DU?$char_traits@D@std@@V?$allocator@D@2@@std@@@23@A@@YAXXZ 00000001800010a0 f   extractSurfCore.obj
 0001:000000c0       ??__F?policy@?$SinglePolicy@W4flann_algorithm_t@cvflann@@@anyimpl@cvflann@@0U?$big_any_policy@W4flann_algorithm_t@cvflann@@@23@A@@YAXXZ 00000001800010c0 f   extractSurfCore.obj
 0001:000000e0       ??__F?policy@?$SinglePolicy@W4flann_centers_init_t@cvflann@@@anyimpl@cvflann@@0U?$big_any_policy@W4flann_centers_init_t@cvflann@@@23@A@@YAXXZ 00000001800010e0 f   extractSurfCore.obj
 0001:00000100       ??__F?policy@?$SinglePolicy@_N@anyimpl@cvflann@@0U?$small_any_policy@_N@23@A@@YAXXZ 0000000180001100 f   extractSurfCore.obj
 0001:00000120       ??__F?policy@?$SinglePolicy@H@anyimpl@cvflann@@0U?$small_any_policy@H@23@A@@YAXXZ 0000000180001120 f   cgCommon.obj
 0001:00000140       ??__F?policy@?$SinglePolicy@I@anyimpl@cvflann@@0U?$small_any_policy@I@23@A@@YAXXZ 0000000180001140 f   cgCommon.obj
 0001:00000160       ??__F?policy@?$SinglePolicy@M@anyimpl@cvflann@@0U?$small_any_policy@M@23@A@@YAXXZ 0000000180001160 f   cgCommon.obj
 0001:00000180       ??__F?policy@?$SinglePolicy@PEBD@anyimpl@cvflann@@0U?$small_any_policy@PEBD@23@A@@YAXXZ 0000000180001180 f   cgCommon.obj
 0001:000001a0       ??__F?policy@?$SinglePolicy@Uempty_any@anyimpl@cvflann@@@anyimpl@cvflann@@0U?$big_any_policy@Uempty_any@anyimpl@cvflann@@@23@A@@YAXXZ 00000001800011a0 f   cgCommon.obj
 0001:000001c0       ??__F?policy@?$SinglePolicy@V?$basic_string@DU?$char_traits@D@std@@V?$allocator@D@2@@std@@@anyimpl@cvflann@@0U?$big_any_policy@V?$basic_string@DU?$char_traits@D@std@@V?$allocator@D@2@@std@@@23@A@@YAXXZ 00000001800011c0 f   cgCommon.obj
 0001:000001e0       ??__F?policy@?$SinglePolicy@W4flann_algorithm_t@cvflann@@@anyimpl@cvflann@@0U?$big_any_policy@W4flann_algorithm_t@cvflann@@@23@A@@YAXXZ 00000001800011e0 f   cgCommon.obj
 0001:00000200       ??__F?policy@?$SinglePolicy@W4flann_centers_init_t@cvflann@@@anyimpl@cvflann@@0U?$big_any_policy@W4flann_centers_init_t@cvflann@@@23@A@@YAXXZ 0000000180001200 f   cgCommon.obj
 0001:00000220       ??__F?policy@?$SinglePolicy@_N@anyimpl@cvflann@@0U?$small_any_policy@_N@23@A@@YAXXZ 0000000180001220 f   cgCommon.obj
 0001:00000240       ??__E?findMaximaInLayer_m@MWSURFFindInvoker@cv@@2Vrecursive_mutex@std@@A@@YAXXZ 0000000180001240 f   mwsurf.obj
 0001:00000270       ??__F?policy@?$SinglePolicy@H@anyimpl@cvflann@@0U?$small_any_policy@H@23@A@@YAXXZ 0000000180001270 f   fastHessianDetectorCore.obj
 0001:00000290       ??__F?policy@?$SinglePolicy@I@anyimpl@cvflann@@0U?$small_any_policy@I@23@A@@YAXXZ 0000000180001290 f   fastHessianDetectorCore.obj
 0001:000002b0       ??__F?policy@?$SinglePolicy@M@anyimpl@cvflann@@0U?$small_any_policy@M@23@A@@YAXXZ 00000001800012b0 f   fastHessianDetectorCore.obj
 0001:000002d0       ??__F?policy@?$SinglePolicy@PEBD@anyimpl@cvflann@@0U?$small_any_policy@PEBD@23@A@@YAXXZ 00000001800012d0 f   fastHessianDetectorCore.obj
 0001:000002f0       ??__F?policy@?$SinglePolicy@Uempty_any@anyimpl@cvflann@@@anyimpl@cvflann@@0U?$big_any_policy@Uempty_any@anyimpl@cvflann@@@23@A@@YAXXZ 00000001800012f0 f   fastHessianDetectorCore.obj
 0001:00000310       ??__F?policy@?$SinglePolicy@V?$basic_string@DU?$char_traits@D@std@@V?$allocator@D@2@@std@@@anyimpl@cvflann@@0U?$big_any_policy@V?$basic_string@DU?$char_traits@D@std@@V?$allocator@D@2@@std@@@23@A@@YAXXZ 0000000180001310 f   fastHessianDetectorCore.obj
 0001:00000330       ??__F?policy@?$SinglePolicy@W4flann_algorithm_t@cvflann@@@anyimpl@cvflann@@0U?$big_any_policy@W4flann_algorithm_t@cvflann@@@23@A@@YAXXZ 0000000180001330 f   fastHessianDetectorCore.obj
 0001:00000350       ??__F?policy@?$SinglePolicy@W4flann_centers_init_t@cvflann@@@anyimpl@cvflann@@0U?$big_any_policy@W4flann_centers_init_t@cvflann@@@23@A@@YAXXZ 0000000180001350 f   fastHessianDetectorCore.obj
 0001:00000370       ??__F?policy@?$SinglePolicy@_N@anyimpl@cvflann@@0U?$small_any_policy@_N@23@A@@YAXXZ 0000000180001370 f   fastHessianDetectorCore.obj
 0001:000014e0       initialize_c4_flightControlSystem 00000001800024e0 f   c4_flightControlSystem.obj
 0001:00001590       initialize_params_c4_flightControlSystem 0000000180002590 f   c4_flightControlSystem.obj
 0001:000015a0       enable_c4_flightControlSystem 00000001800025a0 f   c4_flightControlSystem.obj
 0001:000015d0       disable_c4_flightControlSystem 00000001800025d0 f   c4_flightControlSystem.obj
 0001:00001600       c4_do_animation_call_c4_flightControlSystem 0000000180002600 f   c4_flightControlSystem.obj
 0001:00001640       get_sim_state_c4_flightControlSystem 0000000180002640 f   c4_flightControlSystem.obj
 0001:00001790       set_sim_state_c4_flightControlSystem 0000000180002790 f   c4_flightControlSystem.obj
 0001:00001850       sf_gateway_c4_flightControlSystem 0000000180002850 f   c4_flightControlSystem.obj
 0001:00001f10       mdl_start_c4_flightControlSystem 0000000180002f10 f   c4_flightControlSystem.obj
 0001:00001f20       mdl_terminate_c4_flightControlSystem 0000000180002f20 f   c4_flightControlSystem.obj
 0001:00001f30       mdl_setup_runtime_resources_c4_flightControlSystem 0000000180002f30 f   c4_flightControlSystem.obj
 0001:000021b0       mdl_cleanup_runtime_resources_c4_flightControlSystem 00000001800031b0 f   c4_flightControlSystem.obj
 0001:000021f0       initSimStructsc4_flightControlSystem 00000001800031f0 f   c4_flightControlSystem.obj
 0001:00002200       c4_imread                  0000000180003200 f   c4_flightControlSystem.obj
 0001:00002b70       c4_warning                 0000000180003b70 f   c4_flightControlSystem.obj
 0001:00002e20       c4_detectSURFFeatures      0000000180003e20 f   c4_flightControlSystem.obj
 0001:00003f70       c4_SURFPoints_SURFPoints   0000000180004f70 f   c4_flightControlSystem.obj
 0001:00007090       c4_FeaturePointsImpl_checkLocation 0000000180008090 f   c4_flightControlSystem.obj
 0001:00007f10       c4_inputMeetsSizeRequirement 0000000180008f10 f   c4_flightControlSystem.obj
 0001:00008030       c4_FeaturePointsImpl_checkMetric 0000000180009030 f   c4_flightControlSystem.obj
 0001:00008790       c4_all                     0000000180009790 f   c4_flightControlSystem.obj
 0001:00008910       c4_SURFPointsImpl_checkScale 0000000180009910 f   c4_flightControlSystem.obj
 0001:00009480       c4_b_all                   000000018000a480 f   c4_flightControlSystem.obj
 0001:00009860       c4_check_forloop_overflow_error 000000018000a860 f   c4_flightControlSystem.obj
 0001:00009a70       c4_repmat                  000000018000aa70 f   c4_flightControlSystem.obj
 0001:00009ea0       c4_assertValidSizeArg      000000018000aea0 f   c4_flightControlSystem.obj
 0001:0000a190       c4_SURFPointsImpl_selectStrongest 000000018000b190 f   c4_flightControlSystem.obj
 0001:0000aad0       c4_indexShapeCheck         000000018000bad0 f   c4_flightControlSystem.obj
 0001:0000ad20       c4_SURFPoints_getIndexedObj 000000018000bd20 f   c4_flightControlSystem.obj
 0001:0000b950       c4_b_SURFPoints_SURFPoints 000000018000c950 f   c4_flightControlSystem.obj
 0001:0000c030       c4_SURFPointsImpl_validate 000000018000d030 f   c4_flightControlSystem.obj
 0001:0000ddc0       c4_extractFeatures         000000018000edc0 f   c4_flightControlSystem.obj
 0001:0000e600       c4_extractSURFFeatures     000000018000f600 f   c4_flightControlSystem.obj
 0001:0000fd40       c4_parseSURFInputs         0000000180010d40 f   c4_flightControlSystem.obj
 0001:000113e0       c4_c_SURFPoints_SURFPoints 00000001800123e0 f   c4_flightControlSystem.obj
 0001:00011b30       c4_b_detectSURFFeatures    0000000180012b30 f   c4_flightControlSystem.obj
 0001:00012c00       c4_b_extractFeatures       0000000180013c00 f   c4_flightControlSystem.obj
 0001:00013430       c4_b_extractSURFFeatures   0000000180014430 f   c4_flightControlSystem.obj
 0001:00014b60       c4_b_parseSURFInputs       0000000180015b60 f   c4_flightControlSystem.obj
 0001:00016200       c4_matchFeatures           0000000180017200 f   c4_flightControlSystem.obj
 0001:00019db0       c4_sumColumnB              000000018001adb0 f   c4_flightControlSystem.obj
 0001:00019e50       c4_findNearestNeighbors    000000018001ae50 f   c4_flightControlSystem.obj
 0001:0001ee10       c4_allinrange              000000018001fe10 f   c4_flightControlSystem.obj
 0001:0001ef20       c4_emlrt_marshallIn        000000018001ff20 f   c4_flightControlSystem.obj
 0001:0001ef90       c4_b_emlrt_marshallIn      000000018001ff90 f   c4_flightControlSystem.obj
 0001:0001f020       c4_c_emlrt_marshallIn      0000000180020020 f   c4_flightControlSystem.obj
 0001:0001f090       c4_d_emlrt_marshallIn      0000000180020090 f   c4_flightControlSystem.obj
 0001:0001f120       c4_chart_data_browse_helper 0000000180020120 f   c4_flightControlSystem.obj
 0001:0001f250       c4_feval                   0000000180020250 f   c4_flightControlSystem.obj
 0001:0001f390       c4_b_feval                 0000000180020390 f   c4_flightControlSystem.obj
 0001:0001f430       c4_c_sort                  0000000180020430 f   c4_flightControlSystem.obj
 0001:0001fd70       c4_c_sortIdx               0000000180020d70 f   c4_flightControlSystem.obj
 0001:00021930       c4_c_merge_pow2_block      0000000180022930 f   c4_flightControlSystem.obj
 0001:00021e60       c4_c_merge_block           0000000180022e60 f   c4_flightControlSystem.obj
 0001:000221a0       c4_c_merge                 00000001800231a0 f   c4_flightControlSystem.obj
 0001:000225f0       c4_b_SURFPointsImpl_configure 00000001800235f0 f   c4_flightControlSystem.obj
 0001:00023e30       c4_b_normalizeFeature      0000000180024e30 f   c4_flightControlSystem.obj
 0001:00025cb0       c4_d_sort                  0000000180026cb0 f   c4_flightControlSystem.obj
 0001:00026420       c4_d_sortIdx               0000000180027420 f   c4_flightControlSystem.obj
 0001:00027c30       c4_d_merge_pow2_block      0000000180028c30 f   c4_flightControlSystem.obj
 0001:00028160       c4_d_merge_block           0000000180029160 f   c4_flightControlSystem.obj
 0001:000284a0       c4_d_merge                 00000001800294a0 f   c4_flightControlSystem.obj
 0001:000288f0       c4_b_removeAmbiguousMatches 00000001800298f0 f   c4_flightControlSystem.obj
 0001:0002b3a0       c4_emxInitStruct_SURFPoints 000000018002c3a0 f   c4_flightControlSystem.obj
 0001:0002b4a0       c4_emxInit_real32_T        000000018002c4a0 f   c4_flightControlSystem.obj
 0001:0002b5a0       c4_emxInit_real32_T1       000000018002c5a0 f   c4_flightControlSystem.obj
 0001:0002b6a0       c4_emxInit_int8_T          000000018002c6a0 f   c4_flightControlSystem.obj
 0001:0002b7a0       c4_emxInit_uint32_T        000000018002c7a0 f   c4_flightControlSystem.obj
 0001:0002b8a0       c4_emxFree_real32_T        000000018002c8a0 f   c4_flightControlSystem.obj
 0001:0002b920       c4_emxFreeStruct_SURFPoints 000000018002c920 f   c4_flightControlSystem.obj
 0001:0002b9b0       c4_emxFree_int8_T          000000018002c9b0 f   c4_flightControlSystem.obj
 0001:0002ba30       c4_emxFree_uint32_T        000000018002ca30 f   c4_flightControlSystem.obj
 0001:0002bab0       c4_emxEnsureCapacity_real32_T 000000018002cab0 f   c4_flightControlSystem.obj
 0001:0002bc20       c4_emxEnsureCapacity_real32_T1 000000018002cc20 f   c4_flightControlSystem.obj
 0001:0002bd90       c4_emxEnsureCapacity_int8_T 000000018002cd90 f   c4_flightControlSystem.obj
 0001:0002bf00       c4_emxCopyStruct_s_j4PQEGdN8dC5rck 000000018002cf00 f   c4_flightControlSystem.obj
 0001:0002bfe0       c4_emxCopy_real32_T        000000018002cfe0 f   c4_flightControlSystem.obj
 0001:0002c140       c4_emxCopy_real32_T1       000000018002d140 f   c4_flightControlSystem.obj
 0001:0002c2a0       c4_emxCopy_int8_T          000000018002d2a0 f   c4_flightControlSystem.obj
 0001:0002c400       c4_emxInitStruct_s_j4PQEGdN8dC5rck 000000018002d400 f   c4_flightControlSystem.obj
 0001:0002c4d0       c4_emxFreeStruct_s_j4PQEGdN8dC5rck 000000018002d4d0 f   c4_flightControlSystem.obj
 0001:0002c540       c4_emxEnsureCapacity_boolean_T 000000018002d540 f   c4_flightControlSystem.obj
 0001:0002c6b0       c4_emxInitStruct_s_LBK2BPCTsGNRgPb 000000018002d6b0 f   c4_flightControlSystem.obj
 0001:0002c780       c4_emxInit_boolean_T       000000018002d780 f   c4_flightControlSystem.obj
 0001:0002c880       c4_emxFreeStruct_s_LBK2BPCTsGNRgPb 000000018002d880 f   c4_flightControlSystem.obj
 0001:0002c8f0       c4_emxFree_boolean_T       000000018002d8f0 f   c4_flightControlSystem.obj
 0001:0002c970       c4_emxEnsureCapacity_real_T 000000018002d970 f   c4_flightControlSystem.obj
 0001:0002cae0       c4_emxEnsureCapacity_int32_T 000000018002dae0 f   c4_flightControlSystem.obj
 0001:0002cc50       c4_emxCopyStruct_SURFPoints 000000018002dc50 f   c4_flightControlSystem.obj
 0001:0002cd60       c4_emxInit_real_T          000000018002dd60 f   c4_flightControlSystem.obj
 0001:0002ce60       c4_emxInit_int32_T         000000018002de60 f   c4_flightControlSystem.obj
 0001:0002cf60       c4_emxFree_real_T          000000018002df60 f   c4_flightControlSystem.obj
 0001:0002cfe0       c4_emxFree_int32_T         000000018002dfe0 f   c4_flightControlSystem.obj
 0001:0002d060       c4_emxCopyStruct_s_SnCseetuPvRBpOW 000000018002e060 f   c4_flightControlSystem.obj
 0001:0002d170       c4_emxInitStruct_s_SnCseetuPvRBpOW 000000018002e170 f   c4_flightControlSystem.obj
 0001:0002d270       c4_emxFreeStruct_s_SnCseetuPvRBpOW 000000018002e270 f   c4_flightControlSystem.obj
 0001:0002d300       c4_emxCopyStruct_s_dAlD7xno2U8WY2c 000000018002e300 f   c4_flightControlSystem.obj
 0001:0002d410       c4_emxInitStruct_s_dAlD7xno2U8WY2c 000000018002e410 f   c4_flightControlSystem.obj
 0001:0002d510       c4_emxFreeStruct_s_dAlD7xno2U8WY2c 000000018002e510 f   c4_flightControlSystem.obj
 0001:0002d5a0       c4_emxEnsureCapacity_boolean_T1 000000018002e5a0 f   c4_flightControlSystem.obj
 0001:0002d710       c4_emxEnsureCapacity_int32_T1 000000018002e710 f   c4_flightControlSystem.obj
 0001:0002d880       c4_emxEnsureCapacity_uint32_T 000000018002e880 f   c4_flightControlSystem.obj
 0001:0002d9f0       c4_emxInit_int32_T1        000000018002e9f0 f   c4_flightControlSystem.obj
 0001:0002daf0       c4_emxInit_boolean_T1      000000018002eaf0 f   c4_flightControlSystem.obj
 0001:0002dbf0       c4_emxEnsureCapacity_real_T1 000000018002ebf0 f   c4_flightControlSystem.obj
 0001:0002dd60       c4_emxInitMatrix_cell_wrap_31 000000018002ed60 f   c4_flightControlSystem.obj
 0001:0002ddd0       c4_emxInitStruct_cell_wrap_31 000000018002edd0 f   c4_flightControlSystem.obj
 0001:0002de20       c4_emxInit_real_T1         000000018002ee20 f   c4_flightControlSystem.obj
 0001:0002df20       c4_emxFreeMatrix_cell_wrap_31 000000018002ef20 f   c4_flightControlSystem.obj
 0001:0002df80       c4_emxFreeStruct_cell_wrap_31 000000018002ef80 f   c4_flightControlSystem.obj
 0001:0002dfb0       init_dsm_address_info      000000018002efb0 f   c4_flightControlSystem.obj
 0001:0002dfc0       init_simulink_io_address   000000018002efc0 f   c4_flightControlSystem.obj
 0001:0002e2c0       sf_get_sim_state_info_c4_flightControlSystem 000000018002f2c0 f   c4_flightControlSystem.obj
 0001:0002e380       sf_opaque_initialize_c4_flightControlSystem 000000018002f380 f   c4_flightControlSystem.obj
 0001:0002e3b0       sf_opaque_enable_c4_flightControlSystem 000000018002f3b0 f   c4_flightControlSystem.obj
 0001:0002e3d0       sf_opaque_disable_c4_flightControlSystem 000000018002f3d0 f   c4_flightControlSystem.obj
 0001:0002e3f0       sf_opaque_gateway_c4_flightControlSystem 000000018002f3f0 f   c4_flightControlSystem.obj
 0001:0002e410       sf_opaque_get_sim_state_c4_flightControlSystem 000000018002f410 f   c4_flightControlSystem.obj
 0001:0002e440       sf_opaque_set_sim_state_c4_flightControlSystem 000000018002f440 f   c4_flightControlSystem.obj
 0001:0002e470       sf_opaque_cleanup_runtime_resources_c4_flightControlSystem 000000018002f470 f   c4_flightControlSystem.obj
 0001:0002e510       sf_opaque_mdl_start_c4_flightControlSystem 000000018002f510 f   c4_flightControlSystem.obj
 0001:0002e530       sf_opaque_mdl_terminate_c4_flightControlSystem 000000018002f530 f   c4_flightControlSystem.obj
 0001:0002e550       mdlProcessParameters_c4_flightControlSystem 000000018002f550 f   c4_flightControlSystem.obj
 0001:0002e7d0       mdlSetWorkWidths_c4_flightControlSystem 000000018002f7d0 f   c4_flightControlSystem.obj
 0001:0002e860       mdlRTW_c4_flightControlSystem 000000018002f860 f   c4_flightControlSystem.obj
 0001:0002e8a0       mdlSetupRuntimeResources_c4_flightControlSystem 000000018002f8a0 f   c4_flightControlSystem.obj
 0001:0003125c       $LN193                     000000018003225c     flightControlSystem_sfun_registry.obj
 0001:00032054       $LN22                      0000000180033054     flightControlSystem_sfun_registry.obj
 0001:00032754       $LN26                      0000000180033754     flightControlSystem_sfun_registry.obj
 0001:00032e34       $LN24                      0000000180033e34     flightControlSystem_sfun_registry.obj
 0001:000339ec       $LN30                      00000001800349ec     flightControlSystem_sfun_registry.obj
 0001:000363e0       ProcessMexSfunctionCmdLineCall 00000001800373e0 f   flightControlSystem_sfun_registry.obj
 0001:000366f0       mdlSetWorkWidths           00000001800376f0 f   flightControlSystem_sfun_registry.obj
 0001:00036740       mdlProcessParameters       0000000180037740 f   flightControlSystem_sfun_registry.obj
 0001:00036770       mdl_setup_runtime_resources_processing 0000000180037770 f   flightControlSystem_sfun_registry.obj
 0001:000367d0       mdlSetupRuntimeResources   00000001800377d0 f   flightControlSystem_sfun_registry.obj
 0001:00036800       mdl_cleanup_runtime_resources_processing 0000000180037800 f   flightControlSystem_sfun_registry.obj
 0001:000368c0       mdlCleanupRuntimeResources 00000001800378c0 f   flightControlSystem_sfun_registry.obj
 0001:000368f0       mdl_start_processing       00000001800378f0 f   flightControlSystem_sfun_registry.obj
 0001:00036930       mdlStart                   0000000180037930 f   flightControlSystem_sfun_registry.obj
 0001:00036960       mdl_terminate_processing   0000000180037960 f   flightControlSystem_sfun_registry.obj
 0001:000369a0       mdlTerminate               00000001800379a0 f   flightControlSystem_sfun_registry.obj
 0001:000369d0       mdlInitializeSizes         00000001800379d0 f   flightControlSystem_sfun_registry.obj
 0001:00036a00       mdlInitializeSampleTimes   0000000180037a00 f   flightControlSystem_sfun_registry.obj
 0001:00036a30       mdl_outputs_continuous_legacy 0000000180037a30 f   flightControlSystem_sfun_registry.obj
 0001:00036b30       mdl_outputs_processing     0000000180037b30 f   flightControlSystem_sfun_registry.obj
 0001:00036c50       mdl_zeroCrossings_processing 0000000180037c50 f   flightControlSystem_sfun_registry.obj
 0001:00036c90       mdlZeroCrossings           0000000180037c90 f   flightControlSystem_sfun_registry.obj
 0001:00036cc0       mdl_derivatives_processing 0000000180037cc0 f   flightControlSystem_sfun_registry.obj
 0001:00036d10       mdlDerivatives             0000000180037d10 f   flightControlSystem_sfun_registry.obj
 0001:00036d40       mdl_initialize_conditions_processing 0000000180037d40 f   flightControlSystem_sfun_registry.obj
 0001:00036d90       mdlInitializeConditions    0000000180037d90 f   flightControlSystem_sfun_registry.obj
 0001:00036dc0       mdl_ext_mode_exec_processing 0000000180037dc0 f   flightControlSystem_sfun_registry.obj
 0001:00036e00       mdlExtModeExec             0000000180037e00 f   flightControlSystem_sfun_registry.obj
 0001:00036e30       mdlRTW                     0000000180037e30 f   flightControlSystem_sfun_registry.obj
 0001:00036e70       mdl_enable_processing      0000000180037e70 f   flightControlSystem_sfun_registry.obj
 0001:00036eb0       mdlEnable                  0000000180037eb0 f   flightControlSystem_sfun_registry.obj
 0001:00036ee0       mdl_disable_processing     0000000180037ee0 f   flightControlSystem_sfun_registry.obj
 0001:00036f20       mdlDisable                 0000000180037f20 f   flightControlSystem_sfun_registry.obj
 0001:00036f50       mdlOutputs                 0000000180037f50 f   flightControlSystem_sfun_registry.obj
 0001:00036f80       mdl_update_processing      0000000180037f80 f   flightControlSystem_sfun_registry.obj
 0001:00036fd0       mdlUpdate                  0000000180037fd0 f   flightControlSystem_sfun_registry.obj
 0001:000371c0       mdlGetTimeOfNextVarHit     00000001800381c0 f   flightControlSystem_sfun_registry.obj
 0001:00037210       _RegNumInputPortsCB        0000000180038210 f   flightControlSystem_sfun_registry.obj
 0001:00037290       _RegNumOutputPortsCB       0000000180038290 f   flightControlSystem_sfun_registry.obj
 0001:00037310       _CreateSimStruct           0000000180038310 f   flightControlSystem_sfun_registry.obj
 0001:00037540       _ProcessMexSfunctionCmdLineCall 0000000180038540 f   flightControlSystem_sfun_registry.obj
 0001:00037fb0       ReportIndexOutOfBoundsError 0000000180038fb0 f   flightControlSystem_sfun_registry.obj
 0001:000391b0       ?cvRound@@YAHM@Z           000000018003a1b0 f   extractSurfCore.obj
 0001:0003a120       ??$makePtr@VMWSURF@cv@@$$V@cv@@YA?AU?$Ptr@VMWSURF@cv@@@0@XZ 000000018003b120 f   extractSurfCore.obj
 0001:0003ee80       ?cvRound@@YAHM@Z           000000018003fe80 f   mwsurf.obj
 0001:0003eec0       ?cvCeil@@YAHM@Z            000000018003fec0 f   mwsurf.obj
 0001:0003ef10       ?cvMat@@YA?AUCvMat@@HHHPEAX@Z 000000018003ff10 f   mwsurf.obj
 0001:0003f010       ?cvPoint@@YA?AUCvPoint@@HH@Z 0000000180040010 f   mwsurf.obj
 0001:00040090       ?resizeHaarPattern@cv@@YAXQEAY04$$CBHPEAUMWSurfHF@1@HHHH@Z 0000000180041090 f   mwsurf.obj
 0001:000402b0       ?calcLayerDetAndTrace@cv@@YAXAEBVMat@1@HHAEAV21@1@Z 00000001800412b0 f   mwsurf.obj
 0001:00040840       ?interpolateKeypoint@cv@@YAHQEAY08MHHHAEAVKeyPoint@1@@Z 0000000180041840 f   mwsurf.obj
 0001:00041ec0       ?fastHessianDetector@cv@@YAXAEBVMat@1@0AEAV?$vector@VKeyPoint@cv@@V?$allocator@VKeyPoint@cv@@@std@@@std@@HHM@Z 0000000180042ec0 f   mwsurf.obj
 0001:000423d0       ??$?8H@cv@@YA_NAEBV?$Size_@H@0@0@Z 00000001800433d0 f   mwsurf.obj
 0001:00042420       ??$saturate_cast@H@cv@@YAHH@Z 0000000180043420 f   mwsurf.obj
 0001:00042430       ??$determinant@M$02@cv@@YANAEBV?$Matx@M$02$02@0@@Z 0000000180043430 f   mwsurf.obj
 0001:0004b4c0       ??$makePtr@VMWSURF@cv@@$$V@cv@@YA?AU?$Ptr@VMWSURF@cv@@@0@XZ 000000018004c4c0 f   fastHessianDetectorCore.obj
 0001:0004c304       capture_current_context    000000018004d304 f   MSVCRT:gs_report.obj
 0001:0004c374       capture_previous_context   000000018004d374 f   MSVCRT:gs_report.obj
 0001:0004c470       $$000000                   000000018004d470     MSVCRT:amdsecgs.obj
 0001:0004c4b0       $$000000                   000000018004d4b0     MSVCRT:chkstk.obj
 0001:0004c5a4       ?find_pe_section@@YAPEAU_IMAGE_SECTION_HEADER@@QEAE_K@Z 000000018004d5a4 f   MSVCRT:utility.obj
 0001:0004c5f8       ?is_potentially_valid_image_base@@YA_NQEAX@Z 000000018004d5f8 f   MSVCRT:utility.obj
 0001:0004ca54       ?dllmain_crt_dispatch@@YAHQEAUHINSTANCE__@@KQEAX@Z 000000018004da54 f   MSVCRT:dll_dllmain.obj
 0001:0004caa4       ?dllmain_crt_process_attach@@YAHQEAUHINSTANCE__@@QEAX@Z 000000018004daa4 f   MSVCRT:dll_dllmain.obj
 0001:0004cbbc       ?dllmain_crt_process_detach@@YAH_N@Z 000000018004dbbc f   MSVCRT:dll_dllmain.obj
 0001:0004cc40       ?dllmain_dispatch@@YAHQEAUHINSTANCE__@@KQEAX@Z 000000018004dc40 f   MSVCRT:dll_dllmain.obj
 0001:0004cd74       ?dllmain_raw@@YAHQEAUHINSTANCE__@@KQEAX@Z 000000018004dd74 f   MSVCRT:dll_dllmain.obj
 0001:0004d2e8       __castguard_compat_check   000000018004e2e8 f   MSVCRT:guard_support.obj
 0001:0004d3d4       __castguard_slow_path_compat_check 000000018004e3d4 f   MSVCRT:guard_support.obj
 0001:0004d40c       __get_entropy              000000018004e40c f   MSVCRT:gs_support.obj
 0001:0004d840       $$000000                   000000018004e840     MSVCRT:guard_dispatch.obj
 0001:0004d860       $$000000                   000000018004e860     MSVCRT:guard_xfg_dispatch.obj
 0001:0004d880       extractSurf_assignOutput$dtor$0 000000018004e880 f   extractSurfCore.obj
 0001:0004d898       extractSurf_assignOutput$dtor$1 000000018004e898 f   extractSurfCore.obj
 0001:0004d8b3       extractSurf_assignOutputRM$dtor$0 000000018004e8b3 f   extractSurfCore.obj
 0001:0004d8cb       extractSurf_assignOutputRM$dtor$1 000000018004e8cb f   extractSurfCore.obj
 0001:0004d8e6       extractSurf_compute$dtor$0 000000018004e8e6 f   extractSurfCore.obj
 0001:0004d901       extractSurf_compute$dtor$1 000000018004e901 f   extractSurfCore.obj
 0001:0004d919       extractSurf_compute$dtor$2 000000018004e919 f   extractSurfCore.obj
 0001:0004d934       extractSurf_compute$dtor$3 000000018004e934 f   extractSurfCore.obj
 0001:0004d951       extractSurf_computeRM$dtor$0 000000018004e951 f   extractSurfCore.obj
 0001:0004d96c       extractSurf_computeRM$dtor$1 000000018004e96c f   extractSurfCore.obj
 0001:0004d984       extractSurf_computeRM$dtor$2 000000018004e984 f   extractSurfCore.obj
 0001:0004d99f       extractSurf_computeRM$dtor$3 000000018004e99f f   extractSurfCore.obj
 0001:0004d9c0       ?dtor$0@?0???$?0$$V@?$_Ref_count_obj2@VMWSURF@cv@@@std@@QEAA@XZ@4HA 000000018004e9c0 f   extractSurfCore.obj
 0001:0004d9e0       ?dtor$0@?0???$?6U?$char_traits@D@std@@@std@@YAAEAV?$basic_ostream@DU?$char_traits@D@std@@@0@AEAV10@PEBD@Z@4HA 000000018004e9e0 f   extractSurfCore.obj
 0001:0004da00       ?catch$1@?0???$?6U?$char_traits@D@std@@@std@@YAAEAV?$basic_ostream@DU?$char_traits@D@std@@@0@AEAV10@PEBD@Z@4HA 000000018004ea00 f   extractSurfCore.obj
 0001:0004da0d       __catch$??$?6U?$char_traits@D@std@@@std@@YAAEAV?$basic_ostream@DU?$char_traits@D@std@@@0@AEAV10@PEBD@Z$0 000000018004ea0d f   extractSurfCore.obj
 0001:0004da50       ?catch$0@?0???$_Emplace_reallocate@AEBVKeyPoint@cv@@@?$vector@VKeyPoint@cv@@V?$allocator@VKeyPoint@cv@@@std@@@std@@QEAAPEAVKeyPoint@cv@@QEAV23@AEBV23@@Z@4HA 000000018004ea50 f   extractSurfCore.obj
 0001:0004da5d       __catch$??$_Emplace_reallocate@AEBVKeyPoint@cv@@@?$vector@VKeyPoint@cv@@V?$allocator@VKeyPoint@cv@@@std@@@std@@QEAAPEAVKeyPoint@cv@@QEAV23@AEBV23@@Z$0 000000018004ea5d f   extractSurfCore.obj
 0001:0004daa0       ?dtor$0@?0???$_Uninitialized_copy@PEAVKeyPoint@cv@@V?$allocator@VKeyPoint@cv@@@std@@@std@@YAPEAVKeyPoint@cv@@QEAV12@0PEAV12@AEAV?$allocator@VKeyPoint@cv@@@0@@Z@4HA 000000018004eaa0 f   extractSurfCore.obj
 0001:0004dac0       ?dtor$0@?0???$_Uninitialized_move@PEAVKeyPoint@cv@@V?$allocator@VKeyPoint@cv@@@std@@@std@@YAPEAVKeyPoint@cv@@QEAV12@0PEAV12@AEAV?$allocator@VKeyPoint@cv@@@0@@Z@4HA 000000018004eac0 f   extractSurfCore.obj
 0001:0004dae0       ?dtor$0@?0???$make_shared@VMWSURF@cv@@$$V@std@@YA?AV?$shared_ptr@VMWSURF@cv@@@0@XZ@4HA 000000018004eae0 f   extractSurfCore.obj
 0001:0004db00       ?dtor$0@?0???0?$basic_string@DU?$char_traits@D@std@@V?$allocator@D@2@@std@@QEAA@AEBV01@@Z@4HA 000000018004eb00 f   extractSurfCore.obj
 0001:0004db20       ?dtor$0@?0???0?$basic_string@DU?$char_traits@D@std@@V?$allocator@D@2@@std@@QEAA@QEBD@Z@4HA 000000018004eb20 f   extractSurfCore.obj
 0001:0004db40       ?dtor$0@?0???0?$vector@VKeyPoint@cv@@V?$allocator@VKeyPoint@cv@@@std@@@std@@QEAA@AEBV01@@Z@4HA 000000018004eb40 f   extractSurfCore.obj
 0001:0004db60       ?dtor$0@?0???0Mat@cv@@QEAA@HHHPEAX_K@Z@4HA 000000018004eb60 f   extractSurfCore.obj
 0001:0004db80       ?dtor$1@?0???0Mat@cv@@QEAA@HHHPEAX_K@Z@4HA 000000018004eb80 f   extractSurfCore.obj
 0001:0004dba0       ?dtor$0@?0???0sentry@?$basic_ostream@DU?$char_traits@D@std@@@std@@QEAA@AEAV12@@Z@4HA 000000018004eba0 f   extractSurfCore.obj
 0001:0004dbc0       ?dtor$0@?0??clone@?$big_any_policy@V?$basic_string@DU?$char_traits@D@std@@V?$allocator@D@2@@std@@@anyimpl@cvflann@@UEAAXPEBQEAXPEAPEAX@Z@4HA 000000018004ebc0 f   extractSurfCore.obj
 0001:0004dbe0       ?dtor$0@?0??copy_from_value@?$big_any_policy@V?$basic_string@DU?$char_traits@D@std@@V?$allocator@D@2@@std@@@anyimpl@cvflann@@UEAAXPEBXPEAPEAX@Z@4HA 000000018004ebe0 f   extractSurfCore.obj
 0001:0004dc00       ?dtor$0@?0???0MWSURF@cv@@QEAA@XZ@4HA 000000018004ec00 f   mwsurf.obj
 0001:0004dc2a       ?dtor$0@?0???0MWSURF@cv@@QEAA@NHH_N0@Z@4HA 000000018004ec2a f   mwsurf.obj
 0001:0004dc54       ?dtor$0@?0???RMWSURF@cv@@QEBAXAEBV_InputArray@1@0AEAV?$vector@VKeyPoint@cv@@V?$allocator@VKeyPoint@cv@@@std@@@std@@AEBV_OutputArray@1@_N@Z@4HA 000000018004ec54 f   mwsurf.obj
 0001:0004dc6f       ?dtor$1@?0???RMWSURF@cv@@QEBAXAEBV_InputArray@1@0AEAV?$vector@VKeyPoint@cv@@V?$allocator@VKeyPoint@cv@@@std@@@std@@AEBV_OutputArray@1@_N@Z@4HA 000000018004ec6f f   mwsurf.obj
 0001:0004dc8a       ?dtor$2@?0???RMWSURF@cv@@QEBAXAEBV_InputArray@1@0AEAV?$vector@VKeyPoint@cv@@V?$allocator@VKeyPoint@cv@@@std@@@std@@AEBV_OutputArray@1@_N@Z@4HA 000000018004ec8a f   mwsurf.obj
 0001:0004dca5       ?dtor$3@?0???RMWSURF@cv@@QEBAXAEBV_InputArray@1@0AEAV?$vector@VKeyPoint@cv@@V?$allocator@VKeyPoint@cv@@@std@@@std@@AEBV_OutputArray@1@_N@Z@4HA 000000018004eca5 f   mwsurf.obj
 0001:0004dcc0       ?dtor$4@?0???RMWSURF@cv@@QEBAXAEBV_InputArray@1@0AEAV?$vector@VKeyPoint@cv@@V?$allocator@VKeyPoint@cv@@@std@@@std@@AEBV_OutputArray@1@_N@Z@4HA 000000018004ecc0 f   mwsurf.obj
 0001:0004dcdb       ?dtor$5@?0???RMWSURF@cv@@QEBAXAEBV_InputArray@1@0AEAV?$vector@VKeyPoint@cv@@V?$allocator@VKeyPoint@cv@@@std@@@std@@AEBV_OutputArray@1@_N@Z@4HA 000000018004ecdb f   mwsurf.obj
 0001:0004dcf6       ?dtor$6@?0???RMWSURF@cv@@QEBAXAEBV_InputArray@1@0AEAV?$vector@VKeyPoint@cv@@V?$allocator@VKeyPoint@cv@@@std@@@std@@AEBV_OutputArray@1@_N@Z@4HA 000000018004ecf6 f   mwsurf.obj
 0001:0004dd11       ?dtor$7@?0???RMWSURF@cv@@QEBAXAEBV_InputArray@1@0AEAV?$vector@VKeyPoint@cv@@V?$allocator@VKeyPoint@cv@@@std@@@std@@AEBV_OutputArray@1@_N@Z@4HA 000000018004ed11 f   mwsurf.obj
 0001:0004dd2c       ?dtor$8@?0???RMWSURF@cv@@QEBAXAEBV_InputArray@1@0AEAV?$vector@VKeyPoint@cv@@V?$allocator@VKeyPoint@cv@@@std@@@std@@AEBV_OutputArray@1@_N@Z@4HA 000000018004ed2c f   mwsurf.obj
 0001:0004dd47       ?dtor$9@?0???RMWSURF@cv@@QEBAXAEBV_InputArray@1@0AEAV?$vector@VKeyPoint@cv@@V?$allocator@VKeyPoint@cv@@@std@@@std@@AEBV_OutputArray@1@_N@Z@4HA 000000018004ed47 f   mwsurf.obj
 0001:0004dd62       ?dtor$10@?0???RMWSURF@cv@@QEBAXAEBV_InputArray@1@0AEAV?$vector@VKeyPoint@cv@@V?$allocator@VKeyPoint@cv@@@std@@@std@@AEBV_OutputArray@1@_N@Z@4HA 000000018004ed62 f   mwsurf.obj
 0001:0004dd7d       ?dtor$11@?0???RMWSURF@cv@@QEBAXAEBV_InputArray@1@0AEAV?$vector@VKeyPoint@cv@@V?$allocator@VKeyPoint@cv@@@std@@@std@@AEBV_OutputArray@1@_N@Z@4HA 000000018004ed7d f   mwsurf.obj
 0001:0004dd98       ?dtor$12@?0???RMWSURF@cv@@QEBAXAEBV_InputArray@1@0AEAV?$vector@VKeyPoint@cv@@V?$allocator@VKeyPoint@cv@@@std@@@std@@AEBV_OutputArray@1@_N@Z@4HA 000000018004ed98 f   mwsurf.obj
 0001:0004ddb3       ?dtor$13@?0???RMWSURF@cv@@QEBAXAEBV_InputArray@1@0AEAV?$vector@VKeyPoint@cv@@V?$allocator@VKeyPoint@cv@@@std@@@std@@AEBV_OutputArray@1@_N@Z@4HA 000000018004edb3 f   mwsurf.obj
 0001:0004ddce       ?dtor$14@?0???RMWSURF@cv@@QEBAXAEBV_InputArray@1@0AEAV?$vector@VKeyPoint@cv@@V?$allocator@VKeyPoint@cv@@@std@@@std@@AEBV_OutputArray@1@_N@Z@4HA 000000018004edce f   mwsurf.obj
 0001:0004dde9       ?dtor$15@?0???RMWSURF@cv@@QEBAXAEBV_InputArray@1@0AEAV?$vector@VKeyPoint@cv@@V?$allocator@VKeyPoint@cv@@@std@@@std@@AEBV_OutputArray@1@_N@Z@4HA 000000018004ede9 f   mwsurf.obj
 0001:0004de04       ?dtor$16@?0???RMWSURF@cv@@QEBAXAEBV_InputArray@1@0AEAV?$vector@VKeyPoint@cv@@V?$allocator@VKeyPoint@cv@@@std@@@std@@AEBV_OutputArray@1@_N@Z@4HA 000000018004ee04 f   mwsurf.obj
 0001:0004de1f       ?dtor$17@?0???RMWSURF@cv@@QEBAXAEBV_InputArray@1@0AEAV?$vector@VKeyPoint@cv@@V?$allocator@VKeyPoint@cv@@@std@@@std@@AEBV_OutputArray@1@_N@Z@4HA 000000018004ee1f f   mwsurf.obj
 0001:0004de3a       ?dtor$18@?0???RMWSURF@cv@@QEBAXAEBV_InputArray@1@0AEAV?$vector@VKeyPoint@cv@@V?$allocator@VKeyPoint@cv@@@std@@@std@@AEBV_OutputArray@1@_N@Z@4HA 000000018004ee3a f   mwsurf.obj
 0001:0004de55       ?dtor$19@?0???RMWSURF@cv@@QEBAXAEBV_InputArray@1@0AEAV?$vector@VKeyPoint@cv@@V?$allocator@VKeyPoint@cv@@@std@@@std@@AEBV_OutputArray@1@_N@Z@4HA 000000018004ee55 f   mwsurf.obj
 0001:0004de70       ?dtor$20@?0???RMWSURF@cv@@QEBAXAEBV_InputArray@1@0AEAV?$vector@VKeyPoint@cv@@V?$allocator@VKeyPoint@cv@@@std@@@std@@AEBV_OutputArray@1@_N@Z@4HA 000000018004ee70 f   mwsurf.obj
 0001:0004de8b       ?dtor$21@?0???RMWSURF@cv@@QEBAXAEBV_InputArray@1@0AEAV?$vector@VKeyPoint@cv@@V?$allocator@VKeyPoint@cv@@@std@@@std@@AEBV_OutputArray@1@_N@Z@4HA 000000018004ee8b f   mwsurf.obj
 0001:0004dea6       ?dtor$22@?0???RMWSURF@cv@@QEBAXAEBV_InputArray@1@0AEAV?$vector@VKeyPoint@cv@@V?$allocator@VKeyPoint@cv@@@std@@@std@@AEBV_OutputArray@1@_N@Z@4HA 000000018004eea6 f   mwsurf.obj
 0001:0004dec1       ?dtor$23@?0???RMWSURF@cv@@QEBAXAEBV_InputArray@1@0AEAV?$vector@VKeyPoint@cv@@V?$allocator@VKeyPoint@cv@@@std@@@std@@AEBV_OutputArray@1@_N@Z@4HA 000000018004eec1 f   mwsurf.obj
 0001:0004dedc       ?dtor$24@?0???RMWSURF@cv@@QEBAXAEBV_InputArray@1@0AEAV?$vector@VKeyPoint@cv@@V?$allocator@VKeyPoint@cv@@@std@@@std@@AEBV_OutputArray@1@_N@Z@4HA 000000018004eedc f   mwsurf.obj
 0001:0004def7       ?dtor$25@?0???RMWSURF@cv@@QEBAXAEBV_InputArray@1@0AEAV?$vector@VKeyPoint@cv@@V?$allocator@VKeyPoint@cv@@@std@@@std@@AEBV_OutputArray@1@_N@Z@4HA 000000018004eef7 f   mwsurf.obj
 0001:0004df12       ?dtor$0@?0??detectImpl@MWSURF@cv@@IEBAXAEBVMat@2@AEAV?$vector@VKeyPoint@cv@@V?$allocator@VKeyPoint@cv@@@std@@@std@@0@Z@4HA 000000018004ef12 f   mwsurf.obj
 0001:0004df2a       ?dtor$1@?0??detectImpl@MWSURF@cv@@IEBAXAEBVMat@2@AEAV?$vector@VKeyPoint@cv@@V?$allocator@VKeyPoint@cv@@@std@@@std@@0@Z@4HA 000000018004ef2a f   mwsurf.obj
 0001:0004df42       ?dtor$0@?0??computeImpl@MWSURF@cv@@IEBAXAEBVMat@2@AEAV?$vector@VKeyPoint@cv@@V?$allocator@VKeyPoint@cv@@@std@@@std@@AEAV32@@Z@4HA 000000018004ef42 f   mwsurf.obj
 0001:0004df5a       ?dtor$1@?0??computeImpl@MWSURF@cv@@IEBAXAEBVMat@2@AEAV?$vector@VKeyPoint@cv@@V?$allocator@VKeyPoint@cv@@@std@@@std@@AEAV32@@Z@4HA 000000018004ef5a f   mwsurf.obj
 0001:0004df75       ?dtor$2@?0??computeImpl@MWSURF@cv@@IEBAXAEBVMat@2@AEAV?$vector@VKeyPoint@cv@@V?$allocator@VKeyPoint@cv@@@std@@@std@@AEAV32@@Z@4HA 000000018004ef75 f   mwsurf.obj
 0001:0004df8d       ?dtor$3@?0??computeImpl@MWSURF@cv@@IEBAXAEBVMat@2@AEAV?$vector@VKeyPoint@cv@@V?$allocator@VKeyPoint@cv@@@std@@@std@@AEAV32@@Z@4HA 000000018004ef8d f   mwsurf.obj
 0001:0004dfa5       ?dtor$0@?0??findMaximaInLayer@MWSURFFindInvoker@cv@@SAXAEBVMat@2@0AEBV?$vector@VMat@cv@@V?$allocator@VMat@cv@@@std@@@std@@1AEBV?$vector@HV?$allocator@H@std@@@5@AEAV?$vector@VKeyPoint@cv@@V?$allocator@VKeyPoint@cv@@@std@@@5@HHMH@Z@4HA 000000018004efa5 f   mwsurf.obj
 0001:0004dfc0       ?dtor$0@?0??fastHessianDetector@cv@@YAXAEBVMat@1@0AEAV?$vector@VKeyPoint@cv@@V?$allocator@VKeyPoint@cv@@@std@@@std@@HHM@Z@4HA 000000018004efc0 f   mwsurf.obj
 0001:0004dfdb       ?dtor$1@?0??fastHessianDetector@cv@@YAXAEBVMat@1@0AEAV?$vector@VKeyPoint@cv@@V?$allocator@VKeyPoint@cv@@@std@@@std@@HHM@Z@4HA 000000018004efdb f   mwsurf.obj
 0001:0004dff6       ?dtor$2@?0??fastHessianDetector@cv@@YAXAEBVMat@1@0AEAV?$vector@VKeyPoint@cv@@V?$allocator@VKeyPoint@cv@@@std@@@std@@HHM@Z@4HA 000000018004eff6 f   mwsurf.obj
 0001:0004e011       ?dtor$3@?0??fastHessianDetector@cv@@YAXAEBVMat@1@0AEAV?$vector@VKeyPoint@cv@@V?$allocator@VKeyPoint@cv@@@std@@@std@@HHM@Z@4HA 000000018004f011 f   mwsurf.obj
 0001:0004e02c       ?dtor$4@?0??fastHessianDetector@cv@@YAXAEBVMat@1@0AEAV?$vector@VKeyPoint@cv@@V?$allocator@VKeyPoint@cv@@@std@@@std@@HHM@Z@4HA 000000018004f02c f   mwsurf.obj
 0001:0004e047       ?dtor$5@?0??fastHessianDetector@cv@@YAXAEBVMat@1@0AEAV?$vector@VKeyPoint@cv@@V?$allocator@VKeyPoint@cv@@@std@@@std@@HHM@Z@4HA 000000018004f047 f   mwsurf.obj
 0001:0004e062       ?dtor$6@?0??fastHessianDetector@cv@@YAXAEBVMat@1@0AEAV?$vector@VKeyPoint@cv@@V?$allocator@VKeyPoint@cv@@@std@@@std@@HHM@Z@4HA 000000018004f062 f   mwsurf.obj
 0001:0004e080       ?dtor$0@?0???$_Construct_n_copies_of_ty@U_Value_init_tag@std@@@?$vector@HV?$allocator@H@std@@@std@@AEAAX_KAEBU_Value_init_tag@1@@Z@4HA 000000018004f080 f   mwsurf.obj
 0001:0004e0a0       ?dtor$0@?0???$_Construct_n_copies_of_ty@U_Value_init_tag@std@@@?$vector@VMat@cv@@V?$allocator@VMat@cv@@@std@@@std@@AEAAX_KAEBU_Value_init_tag@1@@Z@4HA 000000018004f0a0 f   mwsurf.obj
 0001:0004e0c0       ?catch$0@?0???$_Resize_reallocate@U_Value_init_tag@std@@@?$vector@MV?$allocator@M@std@@@std@@AEAAX_KAEBU_Value_init_tag@1@@Z@4HA 000000018004f0c0 f   mwsurf.obj
 0001:0004e0cd       __catch$??$_Resize_reallocate@U_Value_init_tag@std@@@?$vector@MV?$allocator@M@std@@@std@@AEAAX_KAEBU_Value_init_tag@1@@Z$0 000000018004f0cd f   mwsurf.obj
 0001:0004e120       ?catch$0@?0???$_Resize_reallocate@U_Value_init_tag@std@@@?$vector@V?$Point_@H@cv@@V?$allocator@V?$Point_@H@cv@@@std@@@std@@AEAAX_KAEBU_Value_init_tag@1@@Z@4HA 000000018004f120 f   mwsurf.obj
 0001:0004e12d       __catch$??$_Resize_reallocate@U_Value_init_tag@std@@@?$vector@V?$Point_@H@cv@@V?$allocator@V?$Point_@H@cv@@@std@@@std@@AEAAX_KAEBU_Value_init_tag@1@@Z$0 000000018004f12d f   mwsurf.obj
 0001:0004e180       ?catch$0@?0???$_Resize_reallocate@U_Value_init_tag@std@@@?$vector@VKeyPoint@cv@@V?$allocator@VKeyPoint@cv@@@std@@@std@@AEAAX_KAEBU_Value_init_tag@1@@Z@4HA 000000018004f180 f   mwsurf.obj
 0001:0004e18d       __catch$??$_Resize_reallocate@U_Value_init_tag@std@@@?$vector@VKeyPoint@cv@@V?$allocator@VKeyPoint@cv@@@std@@@std@@AEAAX_KAEBU_Value_init_tag@1@@Z$0 000000018004f18d f   mwsurf.obj
 0001:0004e1e0       ?dtor$0@?0???$_Setpd@PEAUCvMat@@U?$DefaultDeleter@UCvMat@@@cv@@@?$shared_ptr@UCvMat@@@std@@AEAAXQEAUCvMat@@U?$DefaultDeleter@UCvMat@@@cv@@@Z@4HA 000000018004f1e0 f   mwsurf.obj
 0001:0004e200       ?dtor$1@?0???$_Setpd@PEAUCvMat@@U?$DefaultDeleter@UCvMat@@@cv@@@?$shared_ptr@UCvMat@@@std@@AEAAXQEAUCvMat@@U?$DefaultDeleter@UCvMat@@@cv@@@Z@4HA 000000018004f200 f   mwsurf.obj
 0001:0004e220       ?dtor$0@?0???$_Uninitialized_move@PEAV?$Point_@H@cv@@V?$allocator@V?$Point_@H@cv@@@std@@@std@@YAPEAV?$Point_@H@cv@@QEAV12@0PEAV12@AEAV?$allocator@V?$Point_@H@cv@@@0@@Z@4HA 000000018004f220 f   mwsurf.obj
 0001:0004e240       ?dtor$0@?0???$_Uninitialized_value_construct_n@V?$allocator@V?$Point_@H@cv@@@std@@@std@@YAPEAV?$Point_@H@cv@@PEAV12@_KAEAV?$allocator@V?$Point_@H@cv@@@0@@Z@4HA 000000018004f240 f   mwsurf.obj
 0001:0004e260       ?dtor$0@?0???$_Uninitialized_value_construct_n@V?$allocator@VKeyPoint@cv@@@std@@@std@@YAPEAVKeyPoint@cv@@PEAV12@_KAEAV?$allocator@VKeyPoint@cv@@@0@@Z@4HA 000000018004f260 f   mwsurf.obj
 0001:0004e280       ?dtor$0@?0???$_Uninitialized_value_construct_n@V?$allocator@VMat@cv@@@std@@@std@@YAPEAVMat@cv@@PEAV12@_KAEAV?$allocator@VMat@cv@@@0@@Z@4HA 000000018004f280 f   mwsurf.obj
 0001:0004e2a0       ?dtor$0@?0???0MWSURFInvoker@cv@@QEAA@AEBVMat@1@0AEAV?$vector@VKeyPoint@cv@@V?$allocator@VKeyPoint@cv@@@std@@@std@@AEAV21@_N3@Z@4HA 000000018004f2a0 f   mwsurf.obj
 0001:0004e2c0       ?dtor$1@?0???0MWSURFInvoker@cv@@QEAA@AEBVMat@1@0AEAV?$vector@VKeyPoint@cv@@V?$allocator@VKeyPoint@cv@@@std@@@std@@AEAV21@_N3@Z@4HA 000000018004f2c0 f   mwsurf.obj
 0001:0004e2e0       ?dtor$2@?0???0MWSURFInvoker@cv@@QEAA@AEBVMat@1@0AEAV?$vector@VKeyPoint@cv@@V?$allocator@VKeyPoint@cv@@@std@@@std@@AEAV21@_N3@Z@4HA 000000018004f2e0 f   mwsurf.obj
 0001:0004e300       ?dtor$3@?0???0MWSURFInvoker@cv@@QEAA@AEBVMat@1@0AEAV?$vector@VKeyPoint@cv@@V?$allocator@VKeyPoint@cv@@@std@@@std@@AEAV21@_N3@Z@4HA 000000018004f300 f   mwsurf.obj
 0001:0004e320       ?dtor$4@?0???0MWSURFInvoker@cv@@QEAA@AEBVMat@1@0AEAV?$vector@VKeyPoint@cv@@V?$allocator@VKeyPoint@cv@@@std@@@std@@AEAV21@_N3@Z@4HA 000000018004f320 f   mwsurf.obj
 0001:0004e340       ?dtor$5@?0???0MWSURFInvoker@cv@@QEAA@AEBVMat@1@0AEAV?$vector@VKeyPoint@cv@@V?$allocator@VKeyPoint@cv@@@std@@@std@@AEAV21@_N3@Z@4HA 000000018004f340 f   mwsurf.obj
 0001:0004e360       ?dtor$6@?0???0MWSURFInvoker@cv@@QEAA@AEBVMat@1@0AEAV?$vector@VKeyPoint@cv@@V?$allocator@VKeyPoint@cv@@@std@@@std@@AEAV21@_N3@Z@4HA 000000018004f360 f   mwsurf.obj
 0001:0004e380       ?dtor$0@?0???0_OutputArray@cv@@QEAA@AEAVMat@1@@Z@4HA 000000018004f380 f   mwsurf.obj
 0001:0004e3a0       ?dtor$0@?0???RMWSURFInvoker@cv@@UEBAXAEBVRange@1@@Z@4HA 000000018004f3a0 f   mwsurf.obj
 0001:0004e3c0       ?dtor$1@?0???RMWSURFInvoker@cv@@UEBAXAEBVRange@1@@Z@4HA 000000018004f3c0 f   mwsurf.obj
 0001:0004e3e0       ?dtor$2@?0???RMWSURFInvoker@cv@@UEBAXAEBVRange@1@@Z@4HA 000000018004f3e0 f   mwsurf.obj
 0001:0004e400       ?dtor$3@?0???RMWSURFInvoker@cv@@UEBAXAEBVRange@1@@Z@4HA 000000018004f400 f   mwsurf.obj
 0001:0004e420       ?dtor$4@?0???RMWSURFInvoker@cv@@UEBAXAEBVRange@1@@Z@4HA 000000018004f420 f   mwsurf.obj
 0001:0004e440       ?dtor$5@?0???RMWSURFInvoker@cv@@UEBAXAEBVRange@1@@Z@4HA 000000018004f440 f   mwsurf.obj
 0001:0004e460       fastHessianDetector_uint8$dtor$0 000000018004f460 f   fastHessianDetectorCore.obj
 0001:0004e47b       fastHessianDetector_uint8$dtor$1 000000018004f47b f   fastHessianDetectorCore.obj
 0001:0004e493       fastHessianDetector_uint8$dtor$2 000000018004f493 f   fastHessianDetectorCore.obj
 0001:0004e4ae       fastHessianDetector_uint8$dtor$4 000000018004f4ae f   fastHessianDetectorCore.obj
 0001:0004e4c9       ?dtor$0@?0??configureSURFDetectorCore@@YAXU?$Ptr@VMWSURF@cv@@@cv@@HHH_K1@Z@4HA 000000018004f4c9 f   fastHessianDetectorCore.obj
 0001:0004e4e1       __scrt_is_nonwritable_in_current_image$filt$0 000000018004f4e1 f   MSVCRT:utility.obj
 0001:0004e4f9       ?fin$0@?0??dllmain_crt_process_attach@@YAHQEAUHINSTANCE__@@QEAX@Z@4HA 000000018004f4f9 f   MSVCRT:dll_dllmain.obj
 0001:0004e510       ?fin$0@?0??dllmain_crt_process_detach@@YAH_N@Z@4HA 000000018004f510 f   MSVCRT:dll_dllmain.obj
 0001:0004e529       ?fin$1@?0??dllmain_crt_process_detach@@YAH_N@Z@4HA 000000018004f529 f   MSVCRT:dll_dllmain.obj
 0001:0004e53d       ?filt$0@?0??dllmain_dispatch@@YAHQEAUHINSTANCE__@@KQEAX@Z@4HA 000000018004f53d f   MSVCRT:dll_dllmain.obj
 0001:0004e580       ??__F?policy@?$SinglePolicy@H@anyimpl@cvflann@@0U?$small_any_policy@H@23@A@@YAXXZ 000000018004f580 f   extractSurfCore.obj
 0001:0004e5a0       ??__F?policy@?$SinglePolicy@I@anyimpl@cvflann@@0U?$small_any_policy@I@23@A@@YAXXZ 000000018004f5a0 f   extractSurfCore.obj
 0001:0004e5c0       ??__F?policy@?$SinglePolicy@M@anyimpl@cvflann@@0U?$small_any_policy@M@23@A@@YAXXZ 000000018004f5c0 f   extractSurfCore.obj
 0001:0004e5e0       ??__F?policy@?$SinglePolicy@PEBD@anyimpl@cvflann@@0U?$small_any_policy@PEBD@23@A@@YAXXZ 000000018004f5e0 f   extractSurfCore.obj
 0001:0004e600       ??__F?policy@?$SinglePolicy@Uempty_any@anyimpl@cvflann@@@anyimpl@cvflann@@0U?$big_any_policy@Uempty_any@anyimpl@cvflann@@@23@A@@YAXXZ 000000018004f600 f   extractSurfCore.obj
 0001:0004e620       ??__F?policy@?$SinglePolicy@V?$basic_string@DU?$char_traits@D@std@@V?$allocator@D@2@@std@@@anyimpl@cvflann@@0U?$big_any_policy@V?$basic_string@DU?$char_traits@D@std@@V?$allocator@D@2@@std@@@23@A@@YAXXZ 000000018004f620 f   extractSurfCore.obj
 0001:0004e640       ??__F?policy@?$SinglePolicy@W4flann_algorithm_t@cvflann@@@anyimpl@cvflann@@0U?$big_any_policy@W4flann_algorithm_t@cvflann@@@23@A@@YAXXZ 000000018004f640 f   extractSurfCore.obj
 0001:0004e660       ??__F?policy@?$SinglePolicy@W4flann_centers_init_t@cvflann@@@anyimpl@cvflann@@0U?$big_any_policy@W4flann_centers_init_t@cvflann@@@23@A@@YAXXZ 000000018004f660 f   extractSurfCore.obj
 0001:0004e680       ??__F?policy@?$SinglePolicy@_N@anyimpl@cvflann@@0U?$small_any_policy@_N@23@A@@YAXXZ 000000018004f680 f   extractSurfCore.obj
 0001:0004e6a0       ??__F?policy@?$SinglePolicy@H@anyimpl@cvflann@@0U?$small_any_policy@H@23@A@@YAXXZ 000000018004f6a0 f   cgCommon.obj
 0001:0004e6c0       ??__F?policy@?$SinglePolicy@I@anyimpl@cvflann@@0U?$small_any_policy@I@23@A@@YAXXZ 000000018004f6c0 f   cgCommon.obj
 0001:0004e6e0       ??__F?policy@?$SinglePolicy@M@anyimpl@cvflann@@0U?$small_any_policy@M@23@A@@YAXXZ 000000018004f6e0 f   cgCommon.obj
 0001:0004e700       ??__F?policy@?$SinglePolicy@PEBD@anyimpl@cvflann@@0U?$small_any_policy@PEBD@23@A@@YAXXZ 000000018004f700 f   cgCommon.obj
 0001:0004e720       ??__F?policy@?$SinglePolicy@Uempty_any@anyimpl@cvflann@@@anyimpl@cvflann@@0U?$big_any_policy@Uempty_any@anyimpl@cvflann@@@23@A@@YAXXZ 000000018004f720 f   cgCommon.obj
 0001:0004e740       ??__F?policy@?$SinglePolicy@V?$basic_string@DU?$char_traits@D@std@@V?$allocator@D@2@@std@@@anyimpl@cvflann@@0U?$big_any_policy@V?$basic_string@DU?$char_traits@D@std@@V?$allocator@D@2@@std@@@23@A@@YAXXZ 000000018004f740 f   cgCommon.obj
 0001:0004e760       ??__F?policy@?$SinglePolicy@W4flann_algorithm_t@cvflann@@@anyimpl@cvflann@@0U?$big_any_policy@W4flann_algorithm_t@cvflann@@@23@A@@YAXXZ 000000018004f760 f   cgCommon.obj
 0001:0004e780       ??__F?policy@?$SinglePolicy@W4flann_centers_init_t@cvflann@@@anyimpl@cvflann@@0U?$big_any_policy@W4flann_centers_init_t@cvflann@@@23@A@@YAXXZ 000000018004f780 f   cgCommon.obj
 0001:0004e7a0       ??__F?policy@?$SinglePolicy@_N@anyimpl@cvflann@@0U?$small_any_policy@_N@23@A@@YAXXZ 000000018004f7a0 f   cgCommon.obj
 0001:0004e7c0       ??__F?findMaximaInLayer_m@MWSURFFindInvoker@cv@@2Vrecursive_mutex@std@@A@@YAXXZ 000000018004f7c0 f   mwsurf.obj
 0001:0004e7e0       ??__F?policy@?$SinglePolicy@H@anyimpl@cvflann@@0U?$small_any_policy@H@23@A@@YAXXZ 000000018004f7e0 f   fastHessianDetectorCore.obj
 0001:0004e800       ??__F?policy@?$SinglePolicy@I@anyimpl@cvflann@@0U?$small_any_policy@I@23@A@@YAXXZ 000000018004f800 f   fastHessianDetectorCore.obj
 0001:0004e820       ??__F?policy@?$SinglePolicy@M@anyimpl@cvflann@@0U?$small_any_policy@M@23@A@@YAXXZ 000000018004f820 f   fastHessianDetectorCore.obj
 0001:0004e840       ??__F?policy@?$SinglePolicy@PEBD@anyimpl@cvflann@@0U?$small_any_policy@PEBD@23@A@@YAXXZ 000000018004f840 f   fastHessianDetectorCore.obj
 0001:0004e860       ??__F?policy@?$SinglePolicy@Uempty_any@anyimpl@cvflann@@@anyimpl@cvflann@@0U?$big_any_policy@Uempty_any@anyimpl@cvflann@@@23@A@@YAXXZ 000000018004f860 f   fastHessianDetectorCore.obj
 0001:0004e880       ??__F?policy@?$SinglePolicy@V?$basic_string@DU?$char_traits@D@std@@V?$allocator@D@2@@std@@@anyimpl@cvflann@@0U?$big_any_policy@V?$basic_string@DU?$char_traits@D@std@@V?$allocator@D@2@@std@@@23@A@@YAXXZ 000000018004f880 f   fastHessianDetectorCore.obj
 0001:0004e8a0       ??__F?policy@?$SinglePolicy@W4flann_algorithm_t@cvflann@@@anyimpl@cvflann@@0U?$big_any_policy@W4flann_algorithm_t@cvflann@@@23@A@@YAXXZ 000000018004f8a0 f   fastHessianDetectorCore.obj
 0001:0004e8c0       ??__F?policy@?$SinglePolicy@W4flann_centers_init_t@cvflann@@@anyimpl@cvflann@@0U?$big_any_policy@W4flann_centers_init_t@cvflann@@@23@A@@YAXXZ 000000018004f8c0 f   fastHessianDetectorCore.obj
 0001:0004e8e0       ??__F?policy@?$SinglePolicy@_N@anyimpl@cvflann@@0U?$small_any_policy@_N@23@A@@YAXXZ 000000018004f8e0 f   fastHessianDetectorCore.obj
 0002:00000818       ??policy$initializer$@?$SinglePolicy@Uempty_any@anyimpl@cvflann@@@anyimpl@cvflann@@0P6AXXZEA@@3P6AXXZEA 0000000180050818     extractSurfCore.obj
 0002:00000820       ??policy$initializer$@?$SinglePolicy@PEBD@anyimpl@cvflann@@0P6AXXZEA@@3P6AXXZEA 0000000180050820     extractSurfCore.obj
 0002:00000828       ??policy$initializer$@?$SinglePolicy@H@anyimpl@cvflann@@0P6AXXZEA@@3P6AXXZEA 0000000180050828     extractSurfCore.obj
 0002:00000830       ??policy$initializer$@?$SinglePolicy@M@anyimpl@cvflann@@0P6AXXZEA@@3P6AXXZEA 0000000180050830     extractSurfCore.obj
 0002:00000838       ??policy$initializer$@?$SinglePolicy@_N@anyimpl@cvflann@@0P6AXXZEA@@3P6AXXZEA 0000000180050838     extractSurfCore.obj
 0002:00000840       ??policy$initializer$@?$SinglePolicy@W4flann_algorithm_t@cvflann@@@anyimpl@cvflann@@0P6AXXZEA@@3P6AXXZEA 0000000180050840     extractSurfCore.obj
 0002:00000848       ??policy$initializer$@?$SinglePolicy@W4flann_centers_init_t@cvflann@@@anyimpl@cvflann@@0P6AXXZEA@@3P6AXXZEA 0000000180050848     extractSurfCore.obj
 0002:00000850       ??policy$initializer$@?$SinglePolicy@I@anyimpl@cvflann@@0P6AXXZEA@@3P6AXXZEA 0000000180050850     extractSurfCore.obj
 0002:00000858       ??policy$initializer$@?$SinglePolicy@V?$basic_string@DU?$char_traits@D@std@@V?$allocator@D@2@@std@@@anyimpl@cvflann@@0P6AXXZEA@@3P6AXXZEA 0000000180050858     extractSurfCore.obj
 0002:00000860       ??findMaximaInLayer_m$initializer$@MWSURFFindInvoker@cv@@2P6AXXZEA@@3P6AXXZEA 0000000180050860     mwsurf.obj
 0002:00000900       c4_cv                      0000000180050900     c4_flightControlSystem.obj
 0002:00000930       c4_cv1                     0000000180050930     c4_flightControlSystem.obj
 0002:00000958       c4_cv2                     0000000180050958     c4_flightControlSystem.obj
 0002:00000980       c4_cv3                     0000000180050980     c4_flightControlSystem.obj
 0002:00000990       c4_cv4                     0000000180050990     c4_flightControlSystem.obj
 0002:000009a0       c4_cv5                     00000001800509a0     c4_flightControlSystem.obj
 0002:000009d4       ?c4_decisionTxtEndIdx@?1??mdl_setup_runtime_resources_c4_flightControlSystem@@9@9 00000001800509d4     c4_flightControlSystem.obj
 0002:000009d8       c4_cv6                     00000001800509d8     c4_flightControlSystem.obj
 0002:00000a08       c4_cv7                     0000000180050a08     c4_flightControlSystem.obj
 0002:00000a3c       ?c4_decisionTxtStartIdx@?1??mdl_setup_runtime_resources_c4_flightControlSystem@@9@9 0000000180050a3c     c4_flightControlSystem.obj
 0002:00000a40       c4_cv8                     0000000180050a40     c4_flightControlSystem.obj
 0002:00000a70       c4_cv9                     0000000180050a70     c4_flightControlSystem.obj
 0002:00000aa0       c4_cv10                    0000000180050aa0     c4_flightControlSystem.obj
 0002:00000bd0       $SG163867                  0000000180050bd0     extractSurfCore.obj
 0002:00000c49       ?piecewise_construct@std@@3Upiecewise_construct_t@1@B 0000000180050c49     extractSurfCore.obj
 0002:00000c50       $SG163868                  0000000180050c50     extractSurfCore.obj
 0002:00000cb0       $SG163869                  0000000180050cb0     extractSurfCore.obj
 0002:00000d00       $SG164022                  0000000180050d00     extractSurfCore.obj
 0002:00000d80       $SG164023                  0000000180050d80     extractSurfCore.obj
 0002:00000de0       $SG164024                  0000000180050de0     extractSurfCore.obj
 0002:00000e30       $SG164208                  0000000180050e30     extractSurfCore.obj
 0002:00000eb0       $SG164209                  0000000180050eb0     extractSurfCore.obj
 0002:00000f08       $SG148548                  0000000180050f08     extractSurfCore.obj
 0002:00000f20       $SG164210                  0000000180050f20     extractSurfCore.obj
 0002:00000f70       $SG148547                  0000000180050f70     extractSurfCore.obj
 0002:00000fc4       $SG93251                   0000000180050fc4     extractSurfCore.obj
 0002:00000fc8       $SG148549                  0000000180050fc8     extractSurfCore.obj
 0002:00000ff0       $SG148588                  0000000180050ff0     extractSurfCore.obj
 0002:00001044       $SG86046                   0000000180051044     extractSurfCore.obj
 0002:00001048       $SG148589                  0000000180051048     extractSurfCore.obj
 0002:00001060       $SG148590                  0000000180051060     extractSurfCore.obj
 0002:00001088       $SG86062                   0000000180051088     extractSurfCore.obj
 0002:0000108c       $SG86063                   000000018005108c     extractSurfCore.obj
 0002:00001090       $SG86064                   0000000180051090     extractSurfCore.obj
 0002:000010a0       $SG162119                  00000001800510a0     extractSurfCore.obj
 0002:00001120       $SG162120                  0000000180051120     extractSurfCore.obj
 0002:00001170       $SG162121                  0000000180051170     extractSurfCore.obj
 0002:000011c0       $SG162286                  00000001800511c0     extractSurfCore.obj
 0002:00001240       $SG162287                  0000000180051240     extractSurfCore.obj
 0002:000012a0       $SG162288                  00000001800512a0     extractSurfCore.obj
 0002:000012f0       $SG162441                  00000001800512f0     extractSurfCore.obj
 0002:00001370       $SG162442                  0000000180051370     extractSurfCore.obj
 0002:000013d0       $SG162443                  00000001800513d0     extractSurfCore.obj
 0002:00001420       $SG162627                  0000000180051420     extractSurfCore.obj
 0002:000014a0       $SG162628                  00000001800514a0     extractSurfCore.obj
 0002:00001500       $SG162629                  0000000180051500     extractSurfCore.obj
 0002:00001550       $SG162782                  0000000180051550     extractSurfCore.obj
 0002:000015d0       $SG162783                  00000001800515d0     extractSurfCore.obj
 0002:00001630       $SG162784                  0000000180051630     extractSurfCore.obj
 0002:00001680       $SG162937                  0000000180051680     extractSurfCore.obj
 0002:00001700       $SG162938                  0000000180051700     extractSurfCore.obj
 0002:00001760       $SG162939                  0000000180051760     extractSurfCore.obj
 0002:000017b0       $SG163092                  00000001800517b0     extractSurfCore.obj
 0002:00001830       $SG163093                  0000000180051830     extractSurfCore.obj
 0002:000018a0       $SG163094                  00000001800518a0     extractSurfCore.obj
 0002:000018f0       $SG163247                  00000001800518f0     extractSurfCore.obj
 0002:00001970       $SG163248                  0000000180051970     extractSurfCore.obj
 0002:000019d0       $SG163249                  00000001800519d0     extractSurfCore.obj
 0002:00001a20       $SG163402                  0000000180051a20     extractSurfCore.obj
 0002:00001aa0       $SG163403                  0000000180051aa0     extractSurfCore.obj
 0002:00001b00       $SG163404                  0000000180051b00     extractSurfCore.obj
 0002:00001b50       $SG163557                  0000000180051b50     extractSurfCore.obj
 0002:00001bd0       $SG163558                  0000000180051bd0     extractSurfCore.obj
 0002:00001c30       $SG163559                  0000000180051c30     extractSurfCore.obj
 0002:00001c80       $SG163712                  0000000180051c80     extractSurfCore.obj
 0002:00001d00       $SG163713                  0000000180051d00     extractSurfCore.obj
 0002:00001d60       $SG163714                  0000000180051d60     extractSurfCore.obj
 0002:000022f0       $SG93252                   00000001800522f0     surfCommon.obj
 0002:000022f4       $SG86047                   00000001800522f4     surfCommon.obj
 0002:000022f8       $SG86063                   00000001800522f8     surfCommon.obj
 0002:000022fc       $SG86064                   00000001800522fc     surfCommon.obj
 0002:00002300       $SG86065                   0000000180052300     surfCommon.obj
 0002:00002308       $SG103828                  0000000180052308     surfCommon.obj
 0002:00002330       $SG103786                  0000000180052330     surfCommon.obj
 0002:00002400       $SG103787                  0000000180052400     surfCommon.obj
 0002:00002450       $SG103823                  0000000180052450     surfCommon.obj
 0002:00002520       $SG103824                  0000000180052520     surfCommon.obj
 0002:000025b8       $SG103856                  00000001800525b8     surfCommon.obj
 0002:000025e0       $SG103827                  00000001800525e0     surfCommon.obj
 0002:000026b0       $SG103851                  00000001800526b0     surfCommon.obj
 0002:00002780       $SG103852                  0000000180052780     surfCommon.obj
 0002:00002818       $SG105533                  0000000180052818     surfCommon.obj
 0002:00002840       $SG103855                  0000000180052840     surfCommon.obj
 0002:00002910       $SG105532                  0000000180052910     surfCommon.obj
 0002:000029e0       $SG106115                  00000001800529e0     surfCommon.obj
 0002:00002a38       $SG106116                  0000000180052a38     surfCommon.obj
 0002:00002a48       $SG106117                  0000000180052a48     surfCommon.obj
 0002:00002a80       ?piecewise_construct@std@@3Upiecewise_construct_t@1@B 0000000180052a80     cgCommon.obj
 0002:00002a84       $SG93453                   0000000180052a84     cgCommon.obj
 0002:00002a88       $SG86248                   0000000180052a88     cgCommon.obj
 0002:00002a8c       $SG86264                   0000000180052a8c     cgCommon.obj
 0002:00002a90       $SG86265                   0000000180052a90     cgCommon.obj
 0002:00002a94       $SG86266                   0000000180052a94     cgCommon.obj
 0002:00002aa0       $SG161508                  0000000180052aa0     cgCommon.obj
 0002:00002b20       $SG161509                  0000000180052b20     cgCommon.obj
 0002:00002b70       $SG161510                  0000000180052b70     cgCommon.obj
 0002:00002bc0       $SG161675                  0000000180052bc0     cgCommon.obj
 0002:00002c40       $SG161676                  0000000180052c40     cgCommon.obj
 0002:00002ca0       $SG161677                  0000000180052ca0     cgCommon.obj
 0002:00002cf0       $SG161830                  0000000180052cf0     cgCommon.obj
 0002:00002d70       $SG161831                  0000000180052d70     cgCommon.obj
 0002:00002dd0       $SG161832                  0000000180052dd0     cgCommon.obj
 0002:00002e20       $SG162016                  0000000180052e20     cgCommon.obj
 0002:00002ea0       $SG162017                  0000000180052ea0     cgCommon.obj
 0002:00002f00       $SG162018                  0000000180052f00     cgCommon.obj
 0002:00002f50       $SG162171                  0000000180052f50     cgCommon.obj
 0002:00002fd0       $SG162172                  0000000180052fd0     cgCommon.obj
 0002:00003030       $SG162173                  0000000180053030     cgCommon.obj
 0002:00003080       $SG162326                  0000000180053080     cgCommon.obj
 0002:00003100       $SG162327                  0000000180053100     cgCommon.obj
 0002:00003160       $SG162328                  0000000180053160     cgCommon.obj
 0002:000031b0       $SG162481                  00000001800531b0     cgCommon.obj
 0002:00003230       $SG162482                  0000000180053230     cgCommon.obj
 0002:000032a0       $SG162483                  00000001800532a0     cgCommon.obj
 0002:000032f0       $SG162636                  00000001800532f0     cgCommon.obj
 0002:00003370       $SG162637                  0000000180053370     cgCommon.obj
 0002:000033d0       $SG162638                  00000001800533d0     cgCommon.obj
 0002:00003420       $SG162791                  0000000180053420     cgCommon.obj
 0002:000034a0       $SG162792                  00000001800534a0     cgCommon.obj
 0002:00003500       $SG162793                  0000000180053500     cgCommon.obj
 0002:00003550       $SG162946                  0000000180053550     cgCommon.obj
 0002:000035d0       $SG162947                  00000001800535d0     cgCommon.obj
 0002:00003630       $SG162948                  0000000180053630     cgCommon.obj
 0002:00003680       $SG163101                  0000000180053680     cgCommon.obj
 0002:00003700       $SG163102                  0000000180053700     cgCommon.obj
 0002:00003760       $SG163103                  0000000180053760     cgCommon.obj
 0002:000037b0       $SG163256                  00000001800537b0     cgCommon.obj
 0002:00003830       $SG163257                  0000000180053830     cgCommon.obj
 0002:00003890       $SG163258                  0000000180053890     cgCommon.obj
 0002:000038e0       $SG163411                  00000001800538e0     cgCommon.obj
 0002:00003960       $SG163412                  0000000180053960     cgCommon.obj
 0002:000039c0       $SG163413                  00000001800539c0     cgCommon.obj
 0002:00003a10       $SG163597                  0000000180053a10     cgCommon.obj
 0002:00003a90       $SG163598                  0000000180053a90     cgCommon.obj
 0002:00003af0       $SG163599                  0000000180053af0     cgCommon.obj
 0002:00003b40       $SG109148                  0000000180053b40     mwsurf.obj
 0002:00003b90       $SG109149                  0000000180053b90     mwsurf.obj
 0002:00003ba8       $SG109150                  0000000180053ba8     mwsurf.obj
 0002:00003bd0       $SG109155                  0000000180053bd0     mwsurf.obj
 0002:00003c1c       $SG93252                   0000000180053c1c     mwsurf.obj
 0002:00003c20       $SG109156                  0000000180053c20     mwsurf.obj
 0002:00003c38       $SG109161                  0000000180053c38     mwsurf.obj
 0002:00003c50       $SG109157                  0000000180053c50     mwsurf.obj
 0002:00003c94       $SG86047                   0000000180053c94     mwsurf.obj
 0002:00003c98       $SG109162                  0000000180053c98     mwsurf.obj
 0002:00003cb0       $SG109160                  0000000180053cb0     mwsurf.obj
 0002:00003d00       $SG109165                  0000000180053d00     mwsurf.obj
 0002:00003d4c       $SG86063                   0000000180053d4c     mwsurf.obj
 0002:00003d50       $SG109166                  0000000180053d50     mwsurf.obj
 0002:00003d68       $SG109167                  0000000180053d68     mwsurf.obj
 0002:00003d78       $SG109171                  0000000180053d78     mwsurf.obj
 0002:00003d90       $SG109170                  0000000180053d90     mwsurf.obj
 0002:00003ddc       $SG86064                   0000000180053ddc     mwsurf.obj
 0002:00003de0       $SG109172                  0000000180053de0     mwsurf.obj
 0002:00003df4       $SG86065                   0000000180053df4     mwsurf.obj
 0002:00003df8       $SG103828                  0000000180053df8     mwsurf.obj
 0002:00003e20       $SG103786                  0000000180053e20     mwsurf.obj
 0002:00003ef0       $SG103787                  0000000180053ef0     mwsurf.obj
 0002:00003f40       $SG103823                  0000000180053f40     mwsurf.obj
 0002:00004010       $SG103824                  0000000180054010     mwsurf.obj
 0002:000040a8       $SG103856                  00000001800540a8     mwsurf.obj
 0002:000040d0       $SG103827                  00000001800540d0     mwsurf.obj
 0002:000041a0       $SG103851                  00000001800541a0     mwsurf.obj
 0002:00004270       $SG103852                  0000000180054270     mwsurf.obj
 0002:00004308       $SG105533                  0000000180054308     mwsurf.obj
 0002:00004330       $SG103855                  0000000180054330     mwsurf.obj
 0002:00004400       $SG105532                  0000000180054400     mwsurf.obj
 0002:000044d0       $SG106115                  00000001800544d0     mwsurf.obj
 0002:00004528       $SG106116                  0000000180054528     mwsurf.obj
 0002:00004538       $SG106117                  0000000180054538     mwsurf.obj
 0002:00004850       $SG163940                  0000000180054850     fastHessianDetectorCore.obj
 0002:000048c9       ?piecewise_construct@std@@3Upiecewise_construct_t@1@B 00000001800548c9     fastHessianDetectorCore.obj
 0002:000048d0       $SG163941                  00000001800548d0     fastHessianDetectorCore.obj
 0002:00004928       $SG148380                  0000000180054928     fastHessianDetectorCore.obj
 0002:00004950       $SG163942                  0000000180054950     fastHessianDetectorCore.obj
 0002:000049a0       $SG148378                  00000001800549a0     fastHessianDetectorCore.obj
 0002:000049fc       $SG93251                   00000001800549fc     fastHessianDetectorCore.obj
 0002:00004a00       $SG148379                  0000000180054a00     fastHessianDetectorCore.obj
 0002:00004a1c       $SG86046                   0000000180054a1c     fastHessianDetectorCore.obj
 0002:00004a20       $SG86062                   0000000180054a20     fastHessianDetectorCore.obj
 0002:00004a24       $SG86063                   0000000180054a24     fastHessianDetectorCore.obj
 0002:00004a28       $SG86064                   0000000180054a28     fastHessianDetectorCore.obj
 0002:00004a30       $SG161851                  0000000180054a30     fastHessianDetectorCore.obj
 0002:00004ab0       $SG161852                  0000000180054ab0     fastHessianDetectorCore.obj
 0002:00004b00       $SG161853                  0000000180054b00     fastHessianDetectorCore.obj
 0002:00004b50       $SG162018                  0000000180054b50     fastHessianDetectorCore.obj
 0002:00004bd0       $SG162019                  0000000180054bd0     fastHessianDetectorCore.obj
 0002:00004c30       $SG162020                  0000000180054c30     fastHessianDetectorCore.obj
 0002:00004c80       $SG162173                  0000000180054c80     fastHessianDetectorCore.obj
 0002:00004d00       $SG162174                  0000000180054d00     fastHessianDetectorCore.obj
 0002:00004d60       $SG162175                  0000000180054d60     fastHessianDetectorCore.obj
 0002:00004db0       $SG162359                  0000000180054db0     fastHessianDetectorCore.obj
 0002:00004e30       $SG162360                  0000000180054e30     fastHessianDetectorCore.obj
 0002:00004e90       $SG162361                  0000000180054e90     fastHessianDetectorCore.obj
 0002:00004ee0       $SG162514                  0000000180054ee0     fastHessianDetectorCore.obj
 0002:00004f60       $SG162515                  0000000180054f60     fastHessianDetectorCore.obj
 0002:00004fc0       $SG162516                  0000000180054fc0     fastHessianDetectorCore.obj
 0002:00005010       $SG162669                  0000000180055010     fastHessianDetectorCore.obj
 0002:00005090       $SG162670                  0000000180055090     fastHessianDetectorCore.obj
 0002:000050f0       $SG162671                  00000001800550f0     fastHessianDetectorCore.obj
 0002:00005140       $SG162824                  0000000180055140     fastHessianDetectorCore.obj
 0002:000051c0       $SG162825                  00000001800551c0     fastHessianDetectorCore.obj
 0002:00005230       $SG162826                  0000000180055230     fastHessianDetectorCore.obj
 0002:00005280       $SG162979                  0000000180055280     fastHessianDetectorCore.obj
 0002:00005300       $SG162980                  0000000180055300     fastHessianDetectorCore.obj
 0002:00005360       $SG162981                  0000000180055360     fastHessianDetectorCore.obj
 0002:000053b0       $SG163134                  00000001800553b0     fastHessianDetectorCore.obj
 0002:00005430       $SG163135                  0000000180055430     fastHessianDetectorCore.obj
 0002:00005490       $SG163136                  0000000180055490     fastHessianDetectorCore.obj
 0002:000054e0       $SG163289                  00000001800554e0     fastHessianDetectorCore.obj
 0002:00005560       $SG163290                  0000000180055560     fastHessianDetectorCore.obj
 0002:000055c0       $SG163291                  00000001800555c0     fastHessianDetectorCore.obj
 0002:00005610       $SG163444                  0000000180055610     fastHessianDetectorCore.obj
 0002:00005690       $SG163445                  0000000180055690     fastHessianDetectorCore.obj
 0002:000056f0       $SG163446                  00000001800556f0     fastHessianDetectorCore.obj
 0002:00005740       $SG163599                  0000000180055740     fastHessianDetectorCore.obj
 0002:000057c0       $SG163600                  00000001800557c0     fastHessianDetectorCore.obj
 0002:00005820       $SG163601                  0000000180055820     fastHessianDetectorCore.obj
 0002:00005870       $SG163754                  0000000180055870     fastHessianDetectorCore.obj
 0002:000058f0       $SG163755                  00000001800558f0     fastHessianDetectorCore.obj
 0002:00005950       $SG163756                  0000000180055950     fastHessianDetectorCore.obj
 0002:000059a8       GS_ExceptionPointers       00000001800559a8     MSVCRT:gs_report.obj
 0002:00006e00       $unwind$load_flightControlSystem_optimization_info 0000000180056e00     flightControlSystem_sfun.obj
 0002:00006e08       $unwind$unload_flightControlSystem_optimization_info 0000000180056e08     flightControlSystem_sfun.obj
 0002:00006e10       $unwind$sf_flightControlSystem_method_dispatcher 0000000180056e10     flightControlSystem_sfun.obj
 0002:00006e18       $unwind$sf_flightControlSystem_process_check_sum_call 0000000180056e18     flightControlSystem_sfun.obj
 0002:00006e28       $unwind$sf_flightControlSystem_get_eml_resolved_functions_info 0000000180056e28     flightControlSystem_sfun.obj
 0002:00006e38       $unwind$sf_flightControlSystem_third_party_uses_info 0000000180056e38     flightControlSystem_sfun.obj
 0002:00006e48       $unwind$sf_flightControlSystem_jit_fallback_info 0000000180056e48     flightControlSystem_sfun.obj
 0002:00006e58       $unwind$sf_flightControlSystem_get_post_codegen_info 0000000180056e58     flightControlSystem_sfun.obj
 0002:00006e68       $unwind$sf_flightControlSystem_updateBuildInfo_args_info 0000000180056e68     flightControlSystem_sfun.obj
 0002:00006e78       $unwind$frexpf             0000000180056e78     c4_flightControlSystem.obj
 0002:00006e80       $unwind$sf_c4_flightControlSystem_get_eml_resolved_functions_info 0000000180056e80     c4_flightControlSystem.obj
 0002:00006e88       $unwind$sf_c4_flightControlSystem_get_check_sum 0000000180056e88     c4_flightControlSystem.obj
 0002:00006e90       $unwind$c4_flightControlSystem_method_dispatcher 0000000180056e90     c4_flightControlSystem.obj
 0002:00006e98       $unwind$initialize_c4_flightControlSystem 0000000180056e98     c4_flightControlSystem.obj
 0002:00006ea0       $unwind$enable_c4_flightControlSystem 0000000180056ea0     c4_flightControlSystem.obj
 0002:00006ea8       $unwind$disable_c4_flightControlSystem 0000000180056ea8     c4_flightControlSystem.obj
 0002:00006eb0       $unwind$c4_do_animation_call_c4_flightControlSystem 0000000180056eb0     c4_flightControlSystem.obj
 0002:00006eb8       $unwind$get_sim_state_c4_flightControlSystem 0000000180056eb8     c4_flightControlSystem.obj
 0002:00006ec0       $unwind$set_sim_state_c4_flightControlSystem 0000000180056ec0     c4_flightControlSystem.obj
 0002:00006ec8       $unwind$sf_gateway_c4_flightControlSystem 0000000180056ec8     c4_flightControlSystem.obj
 0002:00006edc       $unwind$mdl_setup_runtime_resources_c4_flightControlSystem 0000000180056edc     c4_flightControlSystem.obj
 0002:00006ee4       $unwind$mdl_cleanup_runtime_resources_c4_flightControlSystem 0000000180056ee4     c4_flightControlSystem.obj
 0002:00006eec       $unwind$c4_imread          0000000180056eec     c4_flightControlSystem.obj
 0002:00006efc       $unwind$c4_warning         0000000180056efc     c4_flightControlSystem.obj
 0002:00006f04       $unwind$c4_detectSURFFeatures 0000000180056f04     c4_flightControlSystem.obj
 0002:00006f18       $unwind$c4_SURFPoints_SURFPoints 0000000180056f18     c4_flightControlSystem.obj
 0002:00006f20       $unwind$c4_FeaturePointsImpl_checkLocation 0000000180056f20     c4_flightControlSystem.obj
 0002:00006f28       $unwind$c4_inputMeetsSizeRequirement 0000000180056f28     c4_flightControlSystem.obj
 0002:00006f30       $unwind$c4_FeaturePointsImpl_checkMetric 0000000180056f30     c4_flightControlSystem.obj
 0002:00006f38       $unwind$c4_all             0000000180056f38     c4_flightControlSystem.obj
 0002:00006f40       $unwind$c4_SURFPointsImpl_checkScale 0000000180056f40     c4_flightControlSystem.obj
 0002:00006f48       $unwind$c4_b_all           0000000180056f48     c4_flightControlSystem.obj
 0002:00006f50       $unwind$c4_check_forloop_overflow_error 0000000180056f50     c4_flightControlSystem.obj
 0002:00006f58       $unwind$c4_repmat          0000000180056f58     c4_flightControlSystem.obj
 0002:00006f60       $unwind$c4_assertValidSizeArg 0000000180056f60     c4_flightControlSystem.obj
 0002:00006f68       $unwind$c4_SURFPointsImpl_selectStrongest 0000000180056f68     c4_flightControlSystem.obj
 0002:00006f7c       $unwind$c4_indexShapeCheck 0000000180056f7c     c4_flightControlSystem.obj
 0002:00006f84       $unwind$c4_SURFPoints_getIndexedObj 0000000180056f84     c4_flightControlSystem.obj
 0002:00006f94       $unwind$c4_b_SURFPoints_SURFPoints 0000000180056f94     c4_flightControlSystem.obj
 0002:00006fa0       $unwind$c4_SURFPointsImpl_validate 0000000180056fa0     c4_flightControlSystem.obj
 0002:00006fa8       $unwind$c4_extractFeatures 0000000180056fa8     c4_flightControlSystem.obj
 0002:00006fbc       $unwind$c4_extractSURFFeatures 0000000180056fbc     c4_flightControlSystem.obj
 0002:00006fd0       $unwind$c4_parseSURFInputs 0000000180056fd0     c4_flightControlSystem.obj
 0002:00006fe0       $unwind$c4_c_SURFPoints_SURFPoints 0000000180056fe0     c4_flightControlSystem.obj
 0002:00006fec       $unwind$c4_b_detectSURFFeatures 0000000180056fec     c4_flightControlSystem.obj
 0002:00007000       $unwind$c4_b_extractFeatures 0000000180057000     c4_flightControlSystem.obj
 0002:00007014       $unwind$c4_b_extractSURFFeatures 0000000180057014     c4_flightControlSystem.obj
 0002:00007028       $unwind$c4_b_parseSURFInputs 0000000180057028     c4_flightControlSystem.obj
 0002:00007038       $unwind$c4_matchFeatures   0000000180057038     c4_flightControlSystem.obj
 0002:00007040       $unwind$c4_sumColumnB      0000000180057040     c4_flightControlSystem.obj
 0002:00007048       $unwind$c4_findNearestNeighbors 0000000180057048     c4_flightControlSystem.obj
 0002:00007050       $unwind$c4_allinrange      0000000180057050     c4_flightControlSystem.obj
 0002:00007058       $unwind$c4_emlrt_marshallIn 0000000180057058     c4_flightControlSystem.obj
 0002:00007060       $unwind$c4_b_emlrt_marshallIn 0000000180057060     c4_flightControlSystem.obj
 0002:00007068       $unwind$c4_c_emlrt_marshallIn 0000000180057068     c4_flightControlSystem.obj
 0002:00007070       $unwind$c4_d_emlrt_marshallIn 0000000180057070     c4_flightControlSystem.obj
 0002:00007078       $unwind$c4_chart_data_browse_helper 0000000180057078     c4_flightControlSystem.obj
 0002:00007080       $unwind$c4_feval           0000000180057080     c4_flightControlSystem.obj
 0002:00007088       $unwind$c4_b_feval         0000000180057088     c4_flightControlSystem.obj
 0002:00007090       $unwind$c4_c_sort          0000000180057090     c4_flightControlSystem.obj
 0002:00007098       $unwind$c4_c_sortIdx       0000000180057098     c4_flightControlSystem.obj
 0002:000070a8       $unwind$c4_c_merge_pow2_block 00000001800570a8     c4_flightControlSystem.obj
 0002:000070b8       $unwind$c4_c_merge_block   00000001800570b8     c4_flightControlSystem.obj
 0002:000070c0       $unwind$c4_c_merge         00000001800570c0     c4_flightControlSystem.obj
 0002:000070c8       $unwind$c4_b_SURFPointsImpl_configure 00000001800570c8     c4_flightControlSystem.obj
 0002:000070d0       $unwind$c4_b_normalizeFeature 00000001800570d0     c4_flightControlSystem.obj
 0002:000070e0       $unwind$c4_d_sort          00000001800570e0     c4_flightControlSystem.obj
 0002:000070e8       $unwind$c4_d_sortIdx       00000001800570e8     c4_flightControlSystem.obj
 0002:000070f8       $unwind$c4_d_merge_pow2_block 00000001800570f8     c4_flightControlSystem.obj
 0002:00007108       $unwind$c4_d_merge_block   0000000180057108     c4_flightControlSystem.obj
 0002:00007110       $unwind$c4_d_merge         0000000180057110     c4_flightControlSystem.obj
 0002:00007118       $unwind$c4_b_removeAmbiguousMatches 0000000180057118     c4_flightControlSystem.obj
 0002:00007120       $unwind$c4_emxInitStruct_SURFPoints 0000000180057120     c4_flightControlSystem.obj
 0002:00007128       $unwind$c4_emxInit_real32_T 0000000180057128     c4_flightControlSystem.obj
 0002:00007130       $unwind$c4_emxInit_real32_T1 0000000180057130     c4_flightControlSystem.obj
 0002:00007138       $unwind$c4_emxInit_int8_T  0000000180057138     c4_flightControlSystem.obj
 0002:00007140       $unwind$c4_emxInit_uint32_T 0000000180057140     c4_flightControlSystem.obj
 0002:00007148       $unwind$c4_emxFree_real32_T 0000000180057148     c4_flightControlSystem.obj
 0002:00007150       $unwind$c4_emxFreeStruct_SURFPoints 0000000180057150     c4_flightControlSystem.obj
 0002:00007158       $unwind$c4_emxFree_int8_T  0000000180057158     c4_flightControlSystem.obj
 0002:00007160       $unwind$c4_emxFree_uint32_T 0000000180057160     c4_flightControlSystem.obj
 0002:00007168       $unwind$c4_emxEnsureCapacity_real32_T 0000000180057168     c4_flightControlSystem.obj
 0002:00007170       $unwind$c4_emxEnsureCapacity_real32_T1 0000000180057170     c4_flightControlSystem.obj
 0002:00007178       $unwind$c4_emxEnsureCapacity_int8_T 0000000180057178     c4_flightControlSystem.obj
 0002:00007180       $unwind$c4_emxCopyStruct_s_j4PQEGdN8dC5rck 0000000180057180     c4_flightControlSystem.obj
 0002:00007188       $unwind$c4_emxCopy_real32_T 0000000180057188     c4_flightControlSystem.obj
 0002:00007190       $unwind$c4_emxCopy_real32_T1 0000000180057190     c4_flightControlSystem.obj
 0002:00007198       $unwind$c4_emxCopy_int8_T  0000000180057198     c4_flightControlSystem.obj
 0002:000071a0       $unwind$c4_emxInitStruct_s_j4PQEGdN8dC5rck 00000001800571a0     c4_flightControlSystem.obj
 0002:000071a8       $unwind$c4_emxFreeStruct_s_j4PQEGdN8dC5rck 00000001800571a8     c4_flightControlSystem.obj
 0002:000071b0       $unwind$c4_emxEnsureCapacity_boolean_T 00000001800571b0     c4_flightControlSystem.obj
 0002:000071b8       $unwind$c4_emxInitStruct_s_LBK2BPCTsGNRgPb 00000001800571b8     c4_flightControlSystem.obj
 0002:000071c0       $unwind$c4_emxInit_boolean_T 00000001800571c0     c4_flightControlSystem.obj
 0002:000071c8       $unwind$c4_emxFreeStruct_s_LBK2BPCTsGNRgPb 00000001800571c8     c4_flightControlSystem.obj
 0002:000071d0       $unwind$c4_emxFree_boolean_T 00000001800571d0     c4_flightControlSystem.obj
 0002:000071d8       $unwind$c4_emxEnsureCapacity_real_T 00000001800571d8     c4_flightControlSystem.obj
 0002:000071e0       $unwind$c4_emxEnsureCapacity_int32_T 00000001800571e0     c4_flightControlSystem.obj
 0002:000071e8       $unwind$c4_emxCopyStruct_SURFPoints 00000001800571e8     c4_flightControlSystem.obj
 0002:000071f0       $unwind$c4_emxInit_real_T  00000001800571f0     c4_flightControlSystem.obj
 0002:000071f8       $unwind$c4_emxInit_int32_T 00000001800571f8     c4_flightControlSystem.obj
 0002:00007200       $unwind$c4_emxFree_real_T  0000000180057200     c4_flightControlSystem.obj
 0002:00007208       $unwind$c4_emxFree_int32_T 0000000180057208     c4_flightControlSystem.obj
 0002:00007210       $unwind$c4_emxCopyStruct_s_SnCseetuPvRBpOW 0000000180057210     c4_flightControlSystem.obj
 0002:00007218       $unwind$c4_emxInitStruct_s_SnCseetuPvRBpOW 0000000180057218     c4_flightControlSystem.obj
 0002:00007220       $unwind$c4_emxFreeStruct_s_SnCseetuPvRBpOW 0000000180057220     c4_flightControlSystem.obj
 0002:00007228       $unwind$c4_emxCopyStruct_s_dAlD7xno2U8WY2c 0000000180057228     c4_flightControlSystem.obj
 0002:00007230       $unwind$c4_emxInitStruct_s_dAlD7xno2U8WY2c 0000000180057230     c4_flightControlSystem.obj
 0002:00007238       $unwind$c4_emxFreeStruct_s_dAlD7xno2U8WY2c 0000000180057238     c4_flightControlSystem.obj
 0002:00007240       $unwind$c4_emxEnsureCapacity_boolean_T1 0000000180057240     c4_flightControlSystem.obj
 0002:00007248       $unwind$c4_emxEnsureCapacity_int32_T1 0000000180057248     c4_flightControlSystem.obj
 0002:00007250       $unwind$c4_emxEnsureCapacity_uint32_T 0000000180057250     c4_flightControlSystem.obj
 0002:00007258       $unwind$c4_emxInit_int32_T1 0000000180057258     c4_flightControlSystem.obj
 0002:00007260       $unwind$c4_emxInit_boolean_T1 0000000180057260     c4_flightControlSystem.obj
 0002:00007268       $unwind$c4_emxEnsureCapacity_real_T1 0000000180057268     c4_flightControlSystem.obj
 0002:00007270       $unwind$c4_emxInitMatrix_cell_wrap_31 0000000180057270     c4_flightControlSystem.obj
 0002:00007278       $unwind$c4_emxInitStruct_cell_wrap_31 0000000180057278     c4_flightControlSystem.obj
 0002:00007280       $unwind$c4_emxInit_real_T1 0000000180057280     c4_flightControlSystem.obj
 0002:00007288       $unwind$c4_emxFreeMatrix_cell_wrap_31 0000000180057288     c4_flightControlSystem.obj
 0002:00007290       $unwind$c4_emxFreeStruct_cell_wrap_31 0000000180057290     c4_flightControlSystem.obj
 0002:00007298       $unwind$init_simulink_io_address 0000000180057298     c4_flightControlSystem.obj
 0002:000072a0       $unwind$sf_c4_flightControlSystem_third_party_uses_info 00000001800572a0     c4_flightControlSystem.obj
 0002:000072a8       $unwind$sf_c4_flightControlSystem_jit_fallback_info 00000001800572a8     c4_flightControlSystem.obj
 0002:000072b8       $unwind$sf_c4_flightControlSystem_updateBuildInfo_args_info 00000001800572b8     c4_flightControlSystem.obj
 0002:000072c0       $unwind$sf_get_sim_state_info_c4_flightControlSystem 00000001800572c0     c4_flightControlSystem.obj
 0002:000072c8       $unwind$sf_opaque_initialize_c4_flightControlSystem 00000001800572c8     c4_flightControlSystem.obj
 0002:000072d0       $unwind$sf_opaque_enable_c4_flightControlSystem 00000001800572d0     c4_flightControlSystem.obj
 0002:000072d8       $unwind$sf_opaque_disable_c4_flightControlSystem 00000001800572d8     c4_flightControlSystem.obj
 0002:000072e0       $unwind$sf_opaque_gateway_c4_flightControlSystem 00000001800572e0     c4_flightControlSystem.obj
 0002:000072e8       $unwind$sf_opaque_get_sim_state_c4_flightControlSystem 00000001800572e8     c4_flightControlSystem.obj
 0002:000072f0       $unwind$sf_opaque_set_sim_state_c4_flightControlSystem 00000001800572f0     c4_flightControlSystem.obj
 0002:000072f8       $unwind$sf_opaque_cleanup_runtime_resources_c4_flightControlSystem 00000001800572f8     c4_flightControlSystem.obj
 0002:00007300       $unwind$sf_opaque_mdl_start_c4_flightControlSystem 0000000180057300     c4_flightControlSystem.obj
 0002:00007308       $unwind$sf_opaque_mdl_terminate_c4_flightControlSystem 0000000180057308     c4_flightControlSystem.obj
 0002:00007310       $unwind$mdlProcessParameters_c4_flightControlSystem 0000000180057310     c4_flightControlSystem.obj
 0002:00007318       $unwind$sf_c4_flightControlSystem_get_post_codegen_info 0000000180057318     c4_flightControlSystem.obj
 0002:00007328       $unwind$mdlSetWorkWidths_c4_flightControlSystem 0000000180057328     c4_flightControlSystem.obj
 0002:00007330       $unwind$mdlRTW_c4_flightControlSystem 0000000180057330     c4_flightControlSystem.obj
 0002:00007338       $unwind$mdlSetupRuntimeResources_c4_flightControlSystem 0000000180057338     c4_flightControlSystem.obj
 0002:00007340       $unwind$_vsnprintf_l       0000000180057340     flightControlSystem_sfun_registry.obj
 0002:00007348       $unwind$_vsprintf_l        0000000180057348     flightControlSystem_sfun_registry.obj
 0002:00007350       $unwind$sprintf            0000000180057350     flightControlSystem_sfun_registry.obj
 0002:00007358       $unwind$mexFunction        0000000180057358     flightControlSystem_sfun_registry.obj
 0002:00007368       $unwind$_ssSetInputPortDirectFeedThroughFcn 0000000180057368     flightControlSystem_sfun_registry.obj
 0002:00007378       $unwind$_ssSetRWorkValueFcn 0000000180057378     flightControlSystem_sfun_registry.obj
 0002:00007380       $unwind$_ssGetRWorkValueFcn 0000000180057380     flightControlSystem_sfun_registry.obj
 0002:00007388       $unwind$_ssSetIWorkValueFcn 0000000180057388     flightControlSystem_sfun_registry.obj
 0002:00007390       $unwind$_ssGetIWorkValueFcn 0000000180057390     flightControlSystem_sfun_registry.obj
 0002:00007398       $unwind$_ssSetPWorkValueFcn 0000000180057398     flightControlSystem_sfun_registry.obj
 0002:000073a0       $unwind$_ssGetPWorkValueFcn 00000001800573a0     flightControlSystem_sfun_registry.obj
 0002:000073a8       $unwind$_ssGetInputPortSignalFcn 00000001800573a8     flightControlSystem_sfun_registry.obj
 0002:000073b8       $unwind$_ssGetInputPortBufferDstPortFcn 00000001800573b8     flightControlSystem_sfun_registry.obj
 0002:000073c0       $unwind$_ssGetInputPortSignalPtrsFcn 00000001800573c0     flightControlSystem_sfun_registry.obj
 0002:000073d0       $unwind$ssGetParameterTuningCompliance 00000001800573d0     flightControlSystem_sfun_registry.obj
 0002:000073d8       $unwind$ssGetDTypeIdFromMxArray 00000001800573d8     flightControlSystem_sfun_registry.obj
 0002:000073e0       $unwind$ssWriteRTWMx2dMatParam 00000001800573e0     flightControlSystem_sfun_registry.obj
 0002:000073e8       $unwind$ssWriteRTWMxVectParam 00000001800573e8     flightControlSystem_sfun_registry.obj
 0002:000073f0       $unwind$ssWriteRTWParameters 00000001800573f0     flightControlSystem_sfun_registry.obj
 0002:000073f8       $unwind$ssWriteRTWParamSettings 00000001800573f8     flightControlSystem_sfun_registry.obj
 0002:00007400       $unwind$ssWriteRTWStr      0000000180057400     flightControlSystem_sfun_registry.obj
 0002:00007408       $unwind$ssWriteRTWWorkVect 0000000180057408     flightControlSystem_sfun_registry.obj
 0002:0000741c       $unwind$ssWarning          000000018005741c     flightControlSystem_sfun_registry.obj
 0002:00007430       $unwind$ssWriteRTWNameValuePair 0000000180057430     flightControlSystem_sfun_registry.obj
 0002:00007438       $unwind$_ssSetInputPortMatrixDimensions 0000000180057438     flightControlSystem_sfun_registry.obj
 0002:00007444       $unwind$_ssSetOutputPortMatrixDimensions 0000000180057444     flightControlSystem_sfun_registry.obj
 0002:00007450       $unwind$_ssSetInputPortVectorDimension 0000000180057450     flightControlSystem_sfun_registry.obj
 0002:0000745c       $unwind$_ssSetOutputPortVectorDimension 000000018005745c     flightControlSystem_sfun_registry.obj
 0002:00007468       $unwind$ssIsRunTimeParamTunable 0000000180057468     flightControlSystem_sfun_registry.obj
 0002:00007470       $unwind$ssGetSFuncBlockHandle 0000000180057470     flightControlSystem_sfun_registry.obj
 0002:00007478       $unwind$_ssGetCurrentInputPortWidth 0000000180057478     flightControlSystem_sfun_registry.obj
 0002:00007480       $unwind$_ssGetCurrentOutputPortWidth 0000000180057480     flightControlSystem_sfun_registry.obj
 0002:00007488       $unwind$_ssGetCallSystemNumFcnCallDestinations 0000000180057488     flightControlSystem_sfun_registry.obj
 0002:00007490       $unwind$ssGetIsZeroCrossControlDisabled 0000000180057490     flightControlSystem_sfun_registry.obj
 0002:00007498       $unwind$ssSetIsInputPortUsedForContZcSignal 0000000180057498     flightControlSystem_sfun_registry.obj
 0002:000074a0       $unwind$ssSetZcSignalIsZcElementDisc 00000001800574a0     flightControlSystem_sfun_registry.obj
 0002:000074b0       $unwind$ssSetZcSignalName  00000001800574b0     flightControlSystem_sfun_registry.obj
 0002:000074b8       $unwind$ssSetZcSignalWidth 00000001800574b8     flightControlSystem_sfun_registry.obj
 0002:000074c0       $unwind$ssSetZcSignalZcEventType 00000001800574c0     flightControlSystem_sfun_registry.obj
 0002:000074c8       $unwind$ssSetZcSignalType  00000001800574c8     flightControlSystem_sfun_registry.obj
 0002:000074d0       $unwind$ssSetZcSignalZcTol 00000001800574d0     flightControlSystem_sfun_registry.obj
 0002:000074d8       $unwind$ssSetZcSignalNeedsEventNotification 00000001800574d8     flightControlSystem_sfun_registry.obj
 0002:000074e0       $unwind$ssCreateAndAddZcSignalInfo 00000001800574e0     flightControlSystem_sfun_registry.obj
 0002:000074e8       $unwind$ssCloneAndAddZcSignalInfo 00000001800574e8     flightControlSystem_sfun_registry.obj
 0002:000074f0       $unwind$ssGetNumZcSignals  00000001800574f0     flightControlSystem_sfun_registry.obj
 0002:000074f8       $unwind$ssGetZcSignalVector 00000001800574f8     flightControlSystem_sfun_registry.obj
 0002:00007500       $unwind$ssGetZcSignalName  0000000180057500     flightControlSystem_sfun_registry.obj
 0002:00007508       $unwind$ssGetZcSignalWidth 0000000180057508     flightControlSystem_sfun_registry.obj
 0002:00007510       $unwind$ssGetZcSignalZcEventType 0000000180057510     flightControlSystem_sfun_registry.obj
 0002:00007518       $unwind$ssGetZcSignalZcEvents 0000000180057518     flightControlSystem_sfun_registry.obj
 0002:00007520       $unwind$ssGetZcSignalType  0000000180057520     flightControlSystem_sfun_registry.obj
 0002:00007528       $unwind$ssGetZcSignalZcTol 0000000180057528     flightControlSystem_sfun_registry.obj
 0002:00007530       $unwind$ssGetZcSignalNeedsEventNotification 0000000180057530     flightControlSystem_sfun_registry.obj
 0002:00007538       $unwind$ssGetZcSignalIsZcElementDisc 0000000180057538     flightControlSystem_sfun_registry.obj
 0002:00007548       $unwind$ssGetIsInputPortElementContinuous 0000000180057548     flightControlSystem_sfun_registry.obj
 0002:00007558       $unwind$_ssGetAbsTol       0000000180057558     flightControlSystem_sfun_registry.obj
 0002:00007560       $unwind$_ssSetInputPortReusableFcn 0000000180057560     flightControlSystem_sfun_registry.obj
 0002:00007568       $unwind$_ssSetOutputPortReusableFcn 0000000180057568     flightControlSystem_sfun_registry.obj
 0002:00007570       $unwind$_ssSetSymbolicDimsSupport 0000000180057570     flightControlSystem_sfun_registry.obj
 0002:00007578       $unwind$_ssRegisterSymbolicDimsExpr 0000000180057578     flightControlSystem_sfun_registry.obj
 0002:00007580       $unwind$_ssRegisterSymbolicDims 0000000180057580     flightControlSystem_sfun_registry.obj
 0002:00007588       $unwind$_ssRegisterSymbolicDimsString 0000000180057588     flightControlSystem_sfun_registry.obj
 0002:00007590       $unwind$_ssRegisterSymbolicDimsIntValue 0000000180057590     flightControlSystem_sfun_registry.obj
 0002:00007598       $unwind$_ssRegisterSymbolicDimsPlus 0000000180057598     flightControlSystem_sfun_registry.obj
 0002:000075a0       $unwind$_ssRegisterSymbolicDimsMinus 00000001800575a0     flightControlSystem_sfun_registry.obj
 0002:000075a8       $unwind$_ssRegisterSymbolicDimsMultiply 00000001800575a8     flightControlSystem_sfun_registry.obj
 0002:000075b0       $unwind$_ssRegisterSymbolicDimsDivide 00000001800575b0     flightControlSystem_sfun_registry.obj
 0002:000075b8       $unwind$_ssGetNumSymbolicDims 00000001800575b8     flightControlSystem_sfun_registry.obj
 0002:000075c0       $unwind$_ssGetSymbolicDim  00000001800575c0     flightControlSystem_sfun_registry.obj
 0002:000075c8       $unwind$_ssSetInputPortSymbolicDimsId 00000001800575c8     flightControlSystem_sfun_registry.obj
 0002:000075d0       $unwind$_ssGetCompInputPortSymbolicDimsId 00000001800575d0     flightControlSystem_sfun_registry.obj
 0002:000075d8       $unwind$_ssSetCompInputPortSymbolicDimsId 00000001800575d8     flightControlSystem_sfun_registry.obj
 0002:000075e0       $unwind$_ssSetOutputPortSymbolicDimsId 00000001800575e0     flightControlSystem_sfun_registry.obj
 0002:000075e8       $unwind$_ssGetCompOutputPortSymbolicDimsId 00000001800575e8     flightControlSystem_sfun_registry.obj
 0002:000075f0       $unwind$_ssSetCompOutputPortSymbolicDimsId 00000001800575f0     flightControlSystem_sfun_registry.obj
 0002:000075f8       $unwind$_ssSetCompDWorkSymbolicDimsId 00000001800575f8     flightControlSystem_sfun_registry.obj
 0002:00007600       $unwind$sf_process_check_sum_call 0000000180057600     flightControlSystem_sfun_registry.obj
 0002:00007608       $unwind$sf_process_get_third_party_uses_info_call 0000000180057608     flightControlSystem_sfun_registry.obj
 0002:00007618       $unwind$sf_process_get_jit_fallback_info_call 0000000180057618     flightControlSystem_sfun_registry.obj
 0002:00007628       $unwind$sf_process_get_post_codegen_info_call 0000000180057628     flightControlSystem_sfun_registry.obj
 0002:00007638       $unwind$sf_process_get_updateBuildInfo_args_info_call 0000000180057638     flightControlSystem_sfun_registry.obj
 0002:00007648       $unwind$sf_process_get_eml_resolved_functions_info_call 0000000180057648     flightControlSystem_sfun_registry.obj
 0002:00007658       $unwind$sf_mex_unlock_call 0000000180057658     flightControlSystem_sfun_registry.obj
 0002:00007668       $unwind$ProcessMexSfunctionCmdLineCall 0000000180057668     flightControlSystem_sfun_registry.obj
 0002:00007670       $unwind$sf_machine_global_initializer_called 0000000180057670     flightControlSystem_sfun_registry.obj
 0002:00007678       $unwind$sf_machine_global_method_dispatcher 0000000180057678     flightControlSystem_sfun_registry.obj
 0002:00007680       $unwind$sf_machine_global_terminator 0000000180057680     flightControlSystem_sfun_registry.obj
 0002:00007688       $unwind$sf_register_machine_exported_symbols 0000000180057688     flightControlSystem_sfun_registry.obj
 0002:00007690       $unwind$sf_machine_global_initializer 0000000180057690     flightControlSystem_sfun_registry.obj
 0002:00007698       $unwind$mdlGetSimState     0000000180057698     flightControlSystem_sfun_registry.obj
 0002:000076a0       $unwind$mdlSetSimState     00000001800576a0     flightControlSystem_sfun_registry.obj
 0002:000076a8       $unwind$mdlSetWorkWidths   00000001800576a8     flightControlSystem_sfun_registry.obj
 0002:000076b0       $unwind$mdlProcessParameters 00000001800576b0     flightControlSystem_sfun_registry.obj
 0002:000076b8       $unwind$mdl_setup_runtime_resources_processing 00000001800576b8     flightControlSystem_sfun_registry.obj
 0002:000076c0       $unwind$mdlSetupRuntimeResources 00000001800576c0     flightControlSystem_sfun_registry.obj
 0002:000076c8       $unwind$mdl_cleanup_runtime_resources_processing 00000001800576c8     flightControlSystem_sfun_registry.obj
 0002:000076d0       $unwind$mdlCleanupRuntimeResources 00000001800576d0     flightControlSystem_sfun_registry.obj
 0002:000076d8       $unwind$mdl_start_processing 00000001800576d8     flightControlSystem_sfun_registry.obj
 0002:000076e0       $unwind$mdlStart           00000001800576e0     flightControlSystem_sfun_registry.obj
 0002:000076e8       $unwind$mdl_terminate_processing 00000001800576e8     flightControlSystem_sfun_registry.obj
 0002:000076f0       $unwind$mdlTerminate       00000001800576f0     flightControlSystem_sfun_registry.obj
 0002:000076f8       $unwind$mdlInitializeSizes 00000001800576f8     flightControlSystem_sfun_registry.obj
 0002:00007700       $unwind$mdlInitializeSampleTimes 0000000180057700     flightControlSystem_sfun_registry.obj
 0002:00007708       $unwind$mdl_outputs_continuous_legacy 0000000180057708     flightControlSystem_sfun_registry.obj
 0002:00007710       $unwind$mdl_outputs_processing 0000000180057710     flightControlSystem_sfun_registry.obj
 0002:00007718       $unwind$mdl_zeroCrossings_processing 0000000180057718     flightControlSystem_sfun_registry.obj
 0002:00007720       $unwind$mdlZeroCrossings   0000000180057720     flightControlSystem_sfun_registry.obj
 0002:00007728       $unwind$mdl_derivatives_processing 0000000180057728     flightControlSystem_sfun_registry.obj
 0002:00007730       $unwind$mdlDerivatives     0000000180057730     flightControlSystem_sfun_registry.obj
 0002:00007738       $unwind$mdl_initialize_conditions_processing 0000000180057738     flightControlSystem_sfun_registry.obj
 0002:00007740       $unwind$mdlInitializeConditions 0000000180057740     flightControlSystem_sfun_registry.obj
 0002:00007748       $unwind$mdl_ext_mode_exec_processing 0000000180057748     flightControlSystem_sfun_registry.obj
 0002:00007750       $unwind$mdlExtModeExec     0000000180057750     flightControlSystem_sfun_registry.obj
 0002:00007758       $unwind$mdlRTW             0000000180057758     flightControlSystem_sfun_registry.obj
 0002:00007760       $unwind$mdl_enable_processing 0000000180057760     flightControlSystem_sfun_registry.obj
 0002:00007768       $unwind$mdlEnable          0000000180057768     flightControlSystem_sfun_registry.obj
 0002:00007770       $unwind$mdl_disable_processing 0000000180057770     flightControlSystem_sfun_registry.obj
 0002:00007778       $unwind$mdlDisable         0000000180057778     flightControlSystem_sfun_registry.obj
 0002:00007780       $unwind$mdlOutputs         0000000180057780     flightControlSystem_sfun_registry.obj
 0002:00007788       $unwind$mdl_update_processing 0000000180057788     flightControlSystem_sfun_registry.obj
 0002:00007790       $unwind$mdlUpdate          0000000180057790     flightControlSystem_sfun_registry.obj
 0002:00007798       $unwind$ProcessMexSfunctionEveryCall 0000000180057798     flightControlSystem_sfun_registry.obj
 0002:000077a0       $unwind$_RegNumInputPortsCB 00000001800577a0     flightControlSystem_sfun_registry.obj
 0002:000077a8       $unwind$_RegNumOutputPortsCB 00000001800577a8     flightControlSystem_sfun_registry.obj
 0002:000077b0       $unwind$_CreateSimStruct   00000001800577b0     flightControlSystem_sfun_registry.obj
 0002:000077b8       $unwind$_ProcessMexSfunctionCmdLineCall 00000001800577b8     flightControlSystem_sfun_registry.obj
 0002:000077c8       $unwind$ReportIndexOutOfBoundsError 00000001800577c8     flightControlSystem_sfun_registry.obj
 0002:000077d8       $unwind$wmemcpy            00000001800577d8     extractSurfCore.obj
 0002:000077e0       $unwind$??0exception@std@@QEAA@QEBDH@Z 00000001800577e0     extractSurfCore.obj
 0002:000077e8       $unwind$??0exception@std@@QEAA@AEBV01@@Z 00000001800577e8     extractSurfCore.obj
 0002:000077f8       $cppxdata$??0exception@std@@QEAA@AEBV01@@Z 00000001800577f8     extractSurfCore.obj
 0002:000077fd       $ip2state$??0exception@std@@QEAA@AEBV01@@Z 00000001800577fd     extractSurfCore.obj
 0002:00007800       $unwind$??1exception@std@@UEAA@XZ 0000000180057800     extractSurfCore.obj
 0002:00007810       $cppxdata$??1exception@std@@UEAA@XZ 0000000180057810     extractSurfCore.obj
 0002:00007815       $ip2state$??1exception@std@@UEAA@XZ 0000000180057815     extractSurfCore.obj
 0002:00007818       $unwind$?what@exception@std@@UEBAPEBDXZ 0000000180057818     extractSurfCore.obj
 0002:00007820       $unwind$??_Gexception@std@@UEAAPEAXI@Z 0000000180057820     extractSurfCore.obj
 0002:00007828       $unwind$??0bad_alloc@std@@AEAA@QEBD@Z 0000000180057828     extractSurfCore.obj
 0002:00007830       $unwind$??1bad_alloc@std@@UEAA@XZ 0000000180057830     extractSurfCore.obj
 0002:00007838       $unwind$??0bad_alloc@std@@QEAA@AEBV01@@Z 0000000180057838     extractSurfCore.obj
 0002:00007840       $unwind$??_Gbad_alloc@std@@UEAAPEAXI@Z 0000000180057840     extractSurfCore.obj
 0002:00007848       $unwind$??0bad_array_new_length@std@@QEAA@XZ 0000000180057848     extractSurfCore.obj
 0002:00007850       $unwind$??1bad_array_new_length@std@@UEAA@XZ 0000000180057850     extractSurfCore.obj
 0002:00007858       $unwind$??0bad_array_new_length@std@@QEAA@AEBV01@@Z 0000000180057858     extractSurfCore.obj
 0002:00007860       $unwind$??_Gbad_array_new_length@std@@UEAAPEAXI@Z 0000000180057860     extractSurfCore.obj
 0002:00007868       $unwind$?_Throw_bad_array_new_length@std@@YAXXZ 0000000180057868     extractSurfCore.obj
 0002:00007870       $unwind$?_Allocate@_Default_allocate_traits@std@@SAPEAX_K@Z 0000000180057870     extractSurfCore.obj
 0002:00007878       $unwind$?_Adjust_manually_vector_aligned@std@@YAXAEAPEAXAEA_K@Z 0000000180057878     extractSurfCore.obj
 0002:00007880       $unwind$?copy@?$_Char_traits@DH@std@@SAPEADQEADQEBD_K@Z 0000000180057880     extractSurfCore.obj
 0002:00007890       $cppxdata$?copy@?$_Char_traits@DH@std@@SAPEADQEADQEBD_K@Z 0000000180057890     extractSurfCore.obj
 0002:00007895       $ip2state$?copy@?$_Char_traits@DH@std@@SAPEADQEADQEBD_K@Z 0000000180057895     extractSurfCore.obj
 0002:00007898       $unwind$?move@?$_Char_traits@DH@std@@SAPEADQEADQEBD_K@Z 0000000180057898     extractSurfCore.obj
 0002:000078a8       $cppxdata$?move@?$_Char_traits@DH@std@@SAPEADQEADQEBD_K@Z 00000001800578a8     extractSurfCore.obj
 0002:000078ad       $ip2state$?move@?$_Char_traits@DH@std@@SAPEADQEADQEBD_K@Z 00000001800578ad     extractSurfCore.obj
 0002:000078b0       $unwind$?length@?$_Narrow_char_traits@DH@std@@SA_KQEBD@Z 00000001800578b0     extractSurfCore.obj
 0002:000078c0       $cppxdata$?length@?$_Narrow_char_traits@DH@std@@SA_KQEBD@Z 00000001800578c0     extractSurfCore.obj
 0002:000078c5       $ip2state$?length@?$_Narrow_char_traits@DH@std@@SA_KQEBD@Z 00000001800578c5     extractSurfCore.obj
 0002:000078c8       $unwind$?eq_int_type@?$_Narrow_char_traits@DH@std@@SA_NAEBH0@Z 00000001800578c8     extractSurfCore.obj
 0002:000078d0       $unwind$?_Xlen_string@std@@YAXXZ 00000001800578d0     extractSurfCore.obj
 0002:000078d8       $unwind$?deallocate@?$allocator@D@std@@QEAAXQEAD_K@Z 00000001800578d8     extractSurfCore.obj
 0002:000078e0       $unwind$?allocate@?$allocator@D@std@@QEAAPEAD_K@Z 00000001800578e0     extractSurfCore.obj
 0002:000078e8       $unwind$??0?$_String_val@U?$_Simple_types@D@std@@@std@@QEAA@XZ 00000001800578e8     extractSurfCore.obj
 0002:000078f0       $unwind$?_Myptr@?$_String_val@U?$_Simple_types@D@std@@@std@@QEAAPEADXZ 00000001800578f0     extractSurfCore.obj
 0002:000078f8       $unwind$?_Myptr@?$_String_val@U?$_Simple_types@D@std@@@std@@QEBAPEBDXZ 00000001800578f8     extractSurfCore.obj
 0002:00007900       $unwind$?_Large_string_engaged@?$_String_val@U?$_Simple_types@D@std@@@std@@QEBA_NXZ 0000000180057900     extractSurfCore.obj
 0002:00007908       $unwind$??1?$_String_val@U?$_Simple_types@D@std@@@std@@QEAA@XZ 0000000180057908     extractSurfCore.obj
 0002:00007910       $unwind$??0?$basic_string@DU?$char_traits@D@std@@V?$allocator@D@2@@std@@QEAA@AEBV01@@Z 0000000180057910     extractSurfCore.obj
 0002:00007920       $cppxdata$??0?$basic_string@DU?$char_traits@D@std@@V?$allocator@D@2@@std@@QEAA@AEBV01@@Z 0000000180057920     extractSurfCore.obj
 0002:00007929       $stateUnwindMap$??0?$basic_string@DU?$char_traits@D@std@@V?$allocator@D@2@@std@@QEAA@AEBV01@@Z 0000000180057929     extractSurfCore.obj
 0002:0000792f       $ip2state$??0?$basic_string@DU?$char_traits@D@std@@V?$allocator@D@2@@std@@QEAA@AEBV01@@Z 000000018005792f     extractSurfCore.obj
 0002:00007938       $unwind$?dtor$0@?0???0?$basic_string@DU?$char_traits@D@std@@V?$allocator@D@2@@std@@QEAA@AEBV01@@Z@4HA 0000000180057938     extractSurfCore.obj
 0002:00007940       $unwind$??0?$basic_string@DU?$char_traits@D@std@@V?$allocator@D@2@@std@@QEAA@QEBD@Z 0000000180057940     extractSurfCore.obj
 0002:00007950       $cppxdata$??0?$basic_string@DU?$char_traits@D@std@@V?$allocator@D@2@@std@@QEAA@QEBD@Z 0000000180057950     extractSurfCore.obj
 0002:00007959       $stateUnwindMap$??0?$basic_string@DU?$char_traits@D@std@@V?$allocator@D@2@@std@@QEAA@QEBD@Z 0000000180057959     extractSurfCore.obj
 0002:0000795f       $ip2state$??0?$basic_string@DU?$char_traits@D@std@@V?$allocator@D@2@@std@@QEAA@QEBD@Z 000000018005795f     extractSurfCore.obj
 0002:00007968       $unwind$?dtor$0@?0???0?$basic_string@DU?$char_traits@D@std@@V?$allocator@D@2@@std@@QEAA@QEBD@Z@4HA 0000000180057968     extractSurfCore.obj
 0002:00007970       $unwind$?_Construct_lv_contents@?$basic_string@DU?$char_traits@D@std@@V?$allocator@D@2@@std@@AEAAXAEBV12@@Z 0000000180057970     extractSurfCore.obj
 0002:00007978       $unwind$??1?$basic_string@DU?$char_traits@D@std@@V?$allocator@D@2@@std@@QEAA@XZ 0000000180057978     extractSurfCore.obj
 0002:00007980       $unwind$?_Copy_assign@?$basic_string@DU?$char_traits@D@std@@V?$allocator@D@2@@std@@AEAAXAEBV12@U?$integral_constant@_N$0A@@2@@Z 0000000180057980     extractSurfCore.obj
 0002:00007988       $unwind$??4?$basic_string@DU?$char_traits@D@std@@V?$allocator@D@2@@std@@QEAAAEAV01@AEBV01@@Z 0000000180057988     extractSurfCore.obj
 0002:00007990       $unwind$?assign@?$basic_string@DU?$char_traits@D@std@@V?$allocator@D@2@@std@@QEAAAEAV12@QEBD_K@Z 0000000180057990     extractSurfCore.obj
 0002:00007998       $unwind$?assign@?$basic_string@DU?$char_traits@D@std@@V?$allocator@D@2@@std@@QEAAAEAV12@QEBD@Z 0000000180057998     extractSurfCore.obj
 0002:000079a0       $unwind$?c_str@?$basic_string@DU?$char_traits@D@std@@V?$allocator@D@2@@std@@QEBAPEBDXZ 00000001800579a0     extractSurfCore.obj
 0002:000079a8       $unwind$?max_size@?$basic_string@DU?$char_traits@D@std@@V?$allocator@D@2@@std@@QEBA_KXZ 00000001800579a8     extractSurfCore.obj
 0002:000079b0       $unwind$?_Calculate_growth@?$basic_string@DU?$char_traits@D@std@@V?$allocator@D@2@@std@@CA_K_K00@Z 00000001800579b0     extractSurfCore.obj
 0002:000079b8       $unwind$?_Calculate_growth@?$basic_string@DU?$char_traits@D@std@@V?$allocator@D@2@@std@@AEBA_K_K@Z 00000001800579b8     extractSurfCore.obj
 0002:000079c0       $unwind$?_Tidy_init@?$basic_string@DU?$char_traits@D@std@@V?$allocator@D@2@@std@@AEAAXXZ 00000001800579c0     extractSurfCore.obj
 0002:000079c8       $unwind$?_Tidy_deallocate@?$basic_string@DU?$char_traits@D@std@@V?$allocator@D@2@@std@@AEAAXXZ 00000001800579c8     extractSurfCore.obj
 0002:000079d8       $cppxdata$?_Tidy_deallocate@?$basic_string@DU?$char_traits@D@std@@V?$allocator@D@2@@std@@AEAAXXZ 00000001800579d8     extractSurfCore.obj
 0002:000079dd       $ip2state$?_Tidy_deallocate@?$basic_string@DU?$char_traits@D@std@@V?$allocator@D@2@@std@@AEAAXXZ 00000001800579dd     extractSurfCore.obj
 0002:000079e0       $unwind$?_Getal@?$basic_string@DU?$char_traits@D@std@@V?$allocator@D@2@@std@@AEAAAEAV?$allocator@D@2@XZ 00000001800579e0     extractSurfCore.obj
 0002:000079e8       $unwind$?_Getal@?$basic_string@DU?$char_traits@D@std@@V?$allocator@D@2@@std@@AEBAAEBV?$allocator@D@2@XZ 00000001800579e8     extractSurfCore.obj
 0002:000079f0       $unwind$??1?$_Compressed_pair@V?$allocator@D@std@@V?$_String_val@U?$_Simple_types@D@std@@@2@$00@std@@QEAA@XZ 00000001800579f0     extractSurfCore.obj
 0002:000079f8       $unwind$??_G?$basic_string@DU?$char_traits@D@std@@V?$allocator@D@2@@std@@QEAAPEAXI@Z 00000001800579f8     extractSurfCore.obj
 0002:00007a00       $unwind$?_Decref@_Ref_count_base@std@@QEAAXXZ 0000000180057a00     extractSurfCore.obj
 0002:00007a08       $unwind$?_Decwref@_Ref_count_base@std@@QEAAXXZ 0000000180057a08     extractSurfCore.obj
 0002:00007a10       $unwind$?cvRound@@YAHM@Z   0000000180057a10     extractSurfCore.obj
 0002:00007a18       $unwind$extractSurf_assignOutput 0000000180057a18     extractSurfCore.obj
 0002:00007a2c       $cppxdata$extractSurf_assignOutput 0000000180057a2c     extractSurfCore.obj
 0002:00007a35       $stateUnwindMap$extractSurf_assignOutput 0000000180057a35     extractSurfCore.obj
 0002:00007a40       $ip2state$extractSurf_assignOutput 0000000180057a40     extractSurfCore.obj
 0002:00007a4c       $unwind$extractSurf_assignOutput$dtor$0 0000000180057a4c     extractSurfCore.obj
 0002:00007a54       $unwind$extractSurf_assignOutput$dtor$1 0000000180057a54     extractSurfCore.obj
 0002:00007a5c       $unwind$extractSurf_assignOutputRM 0000000180057a5c     extractSurfCore.obj
 0002:00007a70       $cppxdata$extractSurf_assignOutputRM 0000000180057a70     extractSurfCore.obj
 0002:00007a79       $stateUnwindMap$extractSurf_assignOutputRM 0000000180057a79     extractSurfCore.obj
 0002:00007a84       $ip2state$extractSurf_assignOutputRM 0000000180057a84     extractSurfCore.obj
 0002:00007a90       $unwind$extractSurf_assignOutputRM$dtor$0 0000000180057a90     extractSurfCore.obj
 0002:00007a98       $unwind$extractSurf_assignOutputRM$dtor$1 0000000180057a98     extractSurfCore.obj
 0002:00007aa0       $unwind$extractSurf_compute 0000000180057aa0     extractSurfCore.obj
 0002:00007ab4       $cppxdata$extractSurf_compute 0000000180057ab4     extractSurfCore.obj
 0002:00007abd       $stateUnwindMap$extractSurf_compute 0000000180057abd     extractSurfCore.obj
 0002:00007ad2       $ip2state$extractSurf_compute 0000000180057ad2     extractSurfCore.obj
 0002:00007ae6       $cppxdata$extractSurf_computeRM 0000000180057ae6     extractSurfCore.obj
 0002:00007aef       $stateUnwindMap$extractSurf_computeRM 0000000180057aef     extractSurfCore.obj
 0002:00007b04       $unwind$extractSurf_compute$dtor$0 0000000180057b04     extractSurfCore.obj
 0002:00007b0c       $unwind$extractSurf_compute$dtor$1 0000000180057b0c     extractSurfCore.obj
 0002:00007b14       $unwind$extractSurf_compute$dtor$2 0000000180057b14     extractSurfCore.obj
 0002:00007b1c       $unwind$extractSurf_compute$dtor$3 0000000180057b1c     extractSurfCore.obj
 0002:00007b24       $unwind$extractSurf_computeRM 0000000180057b24     extractSurfCore.obj
 0002:00007b38       $ip2state$extractSurf_computeRM 0000000180057b38     extractSurfCore.obj
 0002:00007b4c       $unwind$extractSurf_computeRM$dtor$0 0000000180057b4c     extractSurfCore.obj
 0002:00007b54       $unwind$extractSurf_computeRM$dtor$1 0000000180057b54     extractSurfCore.obj
 0002:00007b5c       $unwind$extractSurf_computeRM$dtor$2 0000000180057b5c     extractSurfCore.obj
 0002:00007b64       $unwind$extractSurf_computeRM$dtor$3 0000000180057b64     extractSurfCore.obj
 0002:00007b6c       $unwind$?keyPoints2Fields@@YAXAEAV?$vector@VKeyPoint@cv@@V?$allocator@VKeyPoint@cv@@@std@@@std@@_NPEAM22PEAC2@Z 0000000180057b6c     extractSurfCore.obj
 0002:00007b74       $unwind$?keyPoints2FieldsRM@@YAXAEAV?$vector@VKeyPoint@cv@@V?$allocator@VKeyPoint@cv@@@std@@@std@@_NPEAM22PEAC2@Z 0000000180057b74     extractSurfCore.obj
 0002:00007b7c       $unwind$?struct2KeyPoints@@YAXPEAM00PEACAEAV?$vector@VKeyPoint@cv@@V?$allocator@VKeyPoint@cv@@@std@@@std@@H@Z 0000000180057b7c     extractSurfCore.obj
 0002:00007b84       $unwind$?struct2KeyPointsRM@@YAXPEAM00PEACAEAV?$vector@VKeyPoint@cv@@V?$allocator@VKeyPoint@cv@@@std@@@std@@H@Z 0000000180057b84     extractSurfCore.obj
 0002:00007b8c       $unwind$??$makePtr@VMWSURF@cv@@$$V@cv@@YA?AU?$Ptr@VMWSURF@cv@@@0@XZ 0000000180057b8c     extractSurfCore.obj
 0002:00007b94       $unwind$??$min@_K@std@@YAAEB_KAEB_K0@Z 0000000180057b94     extractSurfCore.obj
 0002:00007b9c       $unwind$??0?$Point_@M@cv@@QEAA@$$QEAV01@@Z 0000000180057b9c     extractSurfCore.obj
 0002:00007ba4       $unwind$??0KeyPoint@cv@@QEAA@MMMMMHH@Z 0000000180057ba4     extractSurfCore.obj
 0002:00007bac       $unwind$??0KeyPoint@cv@@QEAA@AEBV01@@Z 0000000180057bac     extractSurfCore.obj
 0002:00007bb4       $unwind$??0KeyPoint@cv@@QEAA@$$QEAV01@@Z 0000000180057bb4     extractSurfCore.obj
 0002:00007bbc       $unwind$??RMatSize@cv@@QEBA?AV?$Size_@H@1@XZ 0000000180057bbc     extractSurfCore.obj
 0002:00007bc4       $unwind$??0Mat@cv@@QEAA@XZ 0000000180057bc4     extractSurfCore.obj
 0002:00007bcc       $unwind$??0Mat@cv@@QEAA@AEBV01@@Z 0000000180057bcc     extractSurfCore.obj
 0002:00007bd4       $unwind$??0Mat@cv@@QEAA@HHHPEAX_K@Z 0000000180057bd4     extractSurfCore.obj
 0002:00007be8       $cppxdata$??0Mat@cv@@QEAA@HHHPEAX_K@Z 0000000180057be8     extractSurfCore.obj
 0002:00007bf1       $stateUnwindMap$??0Mat@cv@@QEAA@HHHPEAX_K@Z 0000000180057bf1     extractSurfCore.obj
 0002:00007bfc       $ip2state$??0Mat@cv@@QEAA@HHHPEAX_K@Z 0000000180057bfc     extractSurfCore.obj
 0002:00007c0c       $unwind$?dtor$0@?0???0Mat@cv@@QEAA@HHHPEAX_K@Z@4HA 0000000180057c0c     extractSurfCore.obj
 0002:00007c14       $unwind$?dtor$1@?0???0Mat@cv@@QEAA@HHHPEAX_K@Z@4HA 0000000180057c14     extractSurfCore.obj
 0002:00007c1c       $unwind$??1Mat@cv@@QEAA@XZ 0000000180057c1c     extractSurfCore.obj
 0002:00007c2c       $cppxdata$??1Mat@cv@@QEAA@XZ 0000000180057c2c     extractSurfCore.obj
 0002:00007c31       $ip2state$??1Mat@cv@@QEAA@XZ 0000000180057c31     extractSurfCore.obj
 0002:00007c34       $unwind$?release@Mat@cv@@QEAAXXZ 0000000180057c34     extractSurfCore.obj
 0002:00007c3c       $unwind$?total@Mat@cv@@QEBA_KXZ 0000000180057c3c     extractSurfCore.obj
 0002:00007c44       $unwind$??_GMat@cv@@QEAAPEAXI@Z 0000000180057c44     extractSurfCore.obj
 0002:00007c4c       $unwind$?deallocate@?$allocator@VKeyPoint@cv@@@std@@QEAAXQEAVKeyPoint@cv@@_K@Z 0000000180057c4c     extractSurfCore.obj
 0002:00007c54       $unwind$?allocate@?$allocator@VKeyPoint@cv@@@std@@QEAAPEAVKeyPoint@cv@@_K@Z 0000000180057c54     extractSurfCore.obj
 0002:00007c5c       $unwind$??0?$vector@VKeyPoint@cv@@V?$allocator@VKeyPoint@cv@@@std@@@std@@QEAA@XZ 0000000180057c5c     extractSurfCore.obj
 0002:00007c64       $unwind$??0?$vector@VKeyPoint@cv@@V?$allocator@VKeyPoint@cv@@@std@@@std@@QEAA@AEBV01@@Z 0000000180057c64     extractSurfCore.obj
 0002:00007c74       $cppxdata$??0?$vector@VKeyPoint@cv@@V?$allocator@VKeyPoint@cv@@@std@@@std@@QEAA@AEBV01@@Z 0000000180057c74     extractSurfCore.obj
 0002:00007c7d       $stateUnwindMap$??0?$vector@VKeyPoint@cv@@V?$allocator@VKeyPoint@cv@@@std@@@std@@QEAA@AEBV01@@Z 0000000180057c7d     extractSurfCore.obj
 0002:00007c83       $ip2state$??0?$vector@VKeyPoint@cv@@V?$allocator@VKeyPoint@cv@@@std@@@std@@QEAA@AEBV01@@Z 0000000180057c83     extractSurfCore.obj
 0002:00007c8c       $unwind$?dtor$0@?0???0?$vector@VKeyPoint@cv@@V?$allocator@VKeyPoint@cv@@@std@@@std@@QEAA@AEBV01@@Z@4HA 0000000180057c8c     extractSurfCore.obj
 0002:00007c94       $unwind$??1?$vector@VKeyPoint@cv@@V?$allocator@VKeyPoint@cv@@@std@@@std@@QEAA@XZ 0000000180057c94     extractSurfCore.obj
 0002:00007c9c       $unwind$?push_back@?$vector@VKeyPoint@cv@@V?$allocator@VKeyPoint@cv@@@std@@@std@@QEAAXAEBVKeyPoint@cv@@@Z 0000000180057c9c     extractSurfCore.obj
 0002:00007ca4       $unwind$?size@?$vector@VKeyPoint@cv@@V?$allocator@VKeyPoint@cv@@@std@@@std@@QEBA_KXZ 0000000180057ca4     extractSurfCore.obj
 0002:00007cac       $unwind$?max_size@?$vector@VKeyPoint@cv@@V?$allocator@VKeyPoint@cv@@@std@@@std@@QEBA_KXZ 0000000180057cac     extractSurfCore.obj
 0002:00007cb4       $unwind$?capacity@?$vector@VKeyPoint@cv@@V?$allocator@VKeyPoint@cv@@@std@@@std@@QEBA_KXZ 0000000180057cb4     extractSurfCore.obj
 0002:00007cbc       $unwind$??A?$vector@VKeyPoint@cv@@V?$allocator@VKeyPoint@cv@@@std@@@std@@QEAAAEAVKeyPoint@cv@@_K@Z 0000000180057cbc     extractSurfCore.obj
 0002:00007cc4       $unwind$?_Umove@?$vector@VKeyPoint@cv@@V?$allocator@VKeyPoint@cv@@@std@@@std@@AEAAPEAVKeyPoint@cv@@PEAV34@00@Z 0000000180057cc4     extractSurfCore.obj
 0002:00007ccc       $unwind$?_Umove_if_noexcept1@?$vector@VKeyPoint@cv@@V?$allocator@VKeyPoint@cv@@@std@@@std@@AEAAXPEAVKeyPoint@cv@@00U?$integral_constant@_N$00@2@@Z 0000000180057ccc     extractSurfCore.obj
 0002:00007cd4       $unwind$?_Umove_if_noexcept@?$vector@VKeyPoint@cv@@V?$allocator@VKeyPoint@cv@@@std@@@std@@AEAAXPEAVKeyPoint@cv@@00@Z 0000000180057cd4     extractSurfCore.obj
 0002:00007cdc       $unwind$?_Destroy@?$vector@VKeyPoint@cv@@V?$allocator@VKeyPoint@cv@@@std@@@std@@AEAAXPEAVKeyPoint@cv@@0@Z 0000000180057cdc     extractSurfCore.obj
 0002:00007ce4       $unwind$?_Calculate_growth@?$vector@VKeyPoint@cv@@V?$allocator@VKeyPoint@cv@@@std@@@std@@AEBA_K_K@Z 0000000180057ce4     extractSurfCore.obj
 0002:00007cec       $unwind$?_Buy_raw@?$vector@VKeyPoint@cv@@V?$allocator@VKeyPoint@cv@@@std@@@std@@AEAAX_K@Z 0000000180057cec     extractSurfCore.obj
 0002:00007cf4       $unwind$?_Change_array@?$vector@VKeyPoint@cv@@V?$allocator@VKeyPoint@cv@@@std@@@std@@AEAAXQEAVKeyPoint@cv@@_K1@Z 0000000180057cf4     extractSurfCore.obj
 0002:00007cfc       $unwind$?_Tidy@?$vector@VKeyPoint@cv@@V?$allocator@VKeyPoint@cv@@@std@@@std@@AEAAXXZ 0000000180057cfc     extractSurfCore.obj
 0002:00007d0c       $cppxdata$?_Tidy@?$vector@VKeyPoint@cv@@V?$allocator@VKeyPoint@cv@@@std@@@std@@AEAAXXZ 0000000180057d0c     extractSurfCore.obj
 0002:00007d11       $ip2state$?_Tidy@?$vector@VKeyPoint@cv@@V?$allocator@VKeyPoint@cv@@@std@@@std@@AEAAXXZ 0000000180057d11     extractSurfCore.obj
 0002:00007d14       $unwind$?_Xlength@?$vector@VKeyPoint@cv@@V?$allocator@VKeyPoint@cv@@@std@@@std@@CAXXZ 0000000180057d14     extractSurfCore.obj
 0002:00007d1c       $unwind$?_Getal@?$vector@VKeyPoint@cv@@V?$allocator@VKeyPoint@cv@@@std@@@std@@AEAAAEAV?$allocator@VKeyPoint@cv@@@2@XZ 0000000180057d1c     extractSurfCore.obj
 0002:00007d24       $unwind$?_Getal@?$vector@VKeyPoint@cv@@V?$allocator@VKeyPoint@cv@@@std@@@std@@AEBAAEBV?$allocator@VKeyPoint@cv@@@2@XZ 0000000180057d24     extractSurfCore.obj
 0002:00007d2c       $unwind$??_G?$vector@VKeyPoint@cv@@V?$allocator@VKeyPoint@cv@@@std@@@std@@QEAAPEAXI@Z 0000000180057d2c     extractSurfCore.obj
 0002:00007d34       $unwind$??$_Maklocstr@_W@std@@YAPEA_WPEBDPEA_WAEBU_Cvtvec@@@Z 0000000180057d34     extractSurfCore.obj
 0002:00007d3c       $unwind$?_Maklocwcs@std@@YAPEA_WPEB_W@Z 0000000180057d3c     extractSurfCore.obj
 0002:00007d44       $unwind$??$?6U?$char_traits@D@std@@@std@@YAAEAV?$basic_ostream@DU?$char_traits@D@std@@@0@AEAV10@PEBD@Z 0000000180057d44     extractSurfCore.obj
 0002:00007d54       $cppxdata$??$?6U?$char_traits@D@std@@@std@@YAAEAV?$basic_ostream@DU?$char_traits@D@std@@@0@AEAV10@PEBD@Z 0000000180057d54     extractSurfCore.obj
 0002:00007d61       $stateUnwindMap$??$?6U?$char_traits@D@std@@@std@@YAAEAV?$basic_ostream@DU?$char_traits@D@std@@@0@AEAV10@PEBD@Z 0000000180057d61     extractSurfCore.obj
 0002:00007d69       $tryMap$??$?6U?$char_traits@D@std@@@std@@YAAEAV?$basic_ostream@DU?$char_traits@D@std@@@0@AEAV10@PEBD@Z 0000000180057d69     extractSurfCore.obj
 0002:00007d71       $handlerMap$??$?6U?$char_traits@D@std@@@std@@YAAEAV?$basic_ostream@DU?$char_traits@D@std@@@0@AEAV10@PEBD@Z 0000000180057d71     extractSurfCore.obj
 0002:00007d78       $ip2state$??$?6U?$char_traits@D@std@@@std@@YAAEAV?$basic_ostream@DU?$char_traits@D@std@@@0@AEAV10@PEBD@Z 0000000180057d78     extractSurfCore.obj
 0002:00007d88       $unwind$?dtor$0@?0???$?6U?$char_traits@D@std@@@std@@YAAEAV?$basic_ostream@DU?$char_traits@D@std@@@0@AEAV10@PEBD@Z@4HA 0000000180057d88     extractSurfCore.obj
 0002:00007d90       $unwind$?catch$1@?0???$?6U?$char_traits@D@std@@@std@@YAAEAV?$basic_ostream@DU?$char_traits@D@std@@@0@AEAV10@PEBD@Z@4HA 0000000180057d90     extractSurfCore.obj
 0002:00007d98       $unwind$??6anyimpl@cvflann@@YAAEAV?$basic_ostream@DU?$char_traits@D@std@@@std@@AEAV23@AEBUempty_any@01@@Z 0000000180057d98     extractSurfCore.obj
 0002:00007da0       $unwind$??_Gbase_any_policy@anyimpl@cvflann@@UEAAPEAXI@Z 0000000180057da0     extractSurfCore.obj
 0002:00007da8       $unwind$??1?$typed_base_any_policy@W4flann_centers_init_t@cvflann@@@anyimpl@cvflann@@UEAA@XZ 0000000180057da8     extractSurfCore.obj
 0002:00007db0       $unwind$?static_delete@?$big_any_policy@W4flann_centers_init_t@cvflann@@@anyimpl@cvflann@@UEAAXPEAPEAX@Z 0000000180057db0     extractSurfCore.obj
 0002:00007db8       $unwind$?copy_from_value@?$big_any_policy@W4flann_centers_init_t@cvflann@@@anyimpl@cvflann@@UEAAXPEBXPEAPEAX@Z 0000000180057db8     extractSurfCore.obj
 0002:00007dc0       $unwind$?clone@?$big_any_policy@W4flann_centers_init_t@cvflann@@@anyimpl@cvflann@@UEAAXPEBQEAXPEAPEAX@Z 0000000180057dc0     extractSurfCore.obj
 0002:00007dc8       $unwind$?print@?$big_any_policy@W4flann_centers_init_t@cvflann@@@anyimpl@cvflann@@UEAAXAEAV?$basic_ostream@DU?$char_traits@D@std@@@std@@PEBQEAX@Z 0000000180057dc8     extractSurfCore.obj
 0002:00007dd0       $unwind$??1?$big_any_policy@W4flann_centers_init_t@cvflann@@@anyimpl@cvflann@@UEAA@XZ 0000000180057dd0     extractSurfCore.obj
 0002:00007dd8       $unwind$??_G?$big_any_policy@W4flann_centers_init_t@cvflann@@@anyimpl@cvflann@@UEAAPEAXI@Z 0000000180057dd8     extractSurfCore.obj
 0002:00007de0       $unwind$??1?$typed_base_any_policy@W4flann_algorithm_t@cvflann@@@anyimpl@cvflann@@UEAA@XZ 0000000180057de0     extractSurfCore.obj
 0002:00007de8       $unwind$?static_delete@?$big_any_policy@W4flann_algorithm_t@cvflann@@@anyimpl@cvflann@@UEAAXPEAPEAX@Z 0000000180057de8     extractSurfCore.obj
 0002:00007df0       $unwind$?copy_from_value@?$big_any_policy@W4flann_algorithm_t@cvflann@@@anyimpl@cvflann@@UEAAXPEBXPEAPEAX@Z 0000000180057df0     extractSurfCore.obj
 0002:00007df8       $unwind$?clone@?$big_any_policy@W4flann_algorithm_t@cvflann@@@anyimpl@cvflann@@UEAAXPEBQEAXPEAPEAX@Z 0000000180057df8     extractSurfCore.obj
 0002:00007e00       $unwind$?print@?$big_any_policy@W4flann_algorithm_t@cvflann@@@anyimpl@cvflann@@UEAAXAEAV?$basic_ostream@DU?$char_traits@D@std@@@std@@PEBQEAX@Z 0000000180057e00     extractSurfCore.obj
 0002:00007e08       $unwind$??1?$big_any_policy@W4flann_algorithm_t@cvflann@@@anyimpl@cvflann@@UEAA@XZ 0000000180057e08     extractSurfCore.obj
 0002:00007e10       $unwind$??_G?$big_any_policy@W4flann_algorithm_t@cvflann@@@anyimpl@cvflann@@UEAAPEAXI@Z 0000000180057e10     extractSurfCore.obj
 0002:00007e18       $unwind$??1?$typed_base_any_policy@V?$basic_string@DU?$char_traits@D@std@@V?$allocator@D@2@@std@@@anyimpl@cvflann@@UEAA@XZ 0000000180057e18     extractSurfCore.obj
 0002:00007e20       $unwind$?static_delete@?$big_any_policy@V?$basic_string@DU?$char_traits@D@std@@V?$allocator@D@2@@std@@@anyimpl@cvflann@@UEAAXPEAPEAX@Z 0000000180057e20     extractSurfCore.obj
 0002:00007e28       $unwind$?copy_from_value@?$big_any_policy@V?$basic_string@DU?$char_traits@D@std@@V?$allocator@D@2@@std@@@anyimpl@cvflann@@UEAAXPEBXPEAPEAX@Z 0000000180057e28     extractSurfCore.obj
 0002:00007e38       $cppxdata$?copy_from_value@?$big_any_policy@V?$basic_string@DU?$char_traits@D@std@@V?$allocator@D@2@@std@@@anyimpl@cvflann@@UEAAXPEBXPEAPEAX@Z 0000000180057e38     extractSurfCore.obj
 0002:00007e41       $stateUnwindMap$?copy_from_value@?$big_any_policy@V?$basic_string@DU?$char_traits@D@std@@V?$allocator@D@2@@std@@@anyimpl@cvflann@@UEAAXPEBXPEAPEAX@Z 0000000180057e41     extractSurfCore.obj
 0002:00007e47       $ip2state$?copy_from_value@?$big_any_policy@V?$basic_string@DU?$char_traits@D@std@@V?$allocator@D@2@@std@@@anyimpl@cvflann@@UEAAXPEBXPEAPEAX@Z 0000000180057e47     extractSurfCore.obj
 0002:00007e50       $unwind$?dtor$0@?0??copy_from_value@?$big_any_policy@V?$basic_string@DU?$char_traits@D@std@@V?$allocator@D@2@@std@@@anyimpl@cvflann@@UEAAXPEBXPEAPEAX@Z@4HA 0000000180057e50     extractSurfCore.obj
 0002:00007e58       $unwind$?clone@?$big_any_policy@V?$basic_string@DU?$char_traits@D@std@@V?$allocator@D@2@@std@@@anyimpl@cvflann@@UEAAXPEBQEAXPEAPEAX@Z 0000000180057e58     extractSurfCore.obj
 0002:00007e68       $cppxdata$?clone@?$big_any_policy@V?$basic_string@DU?$char_traits@D@std@@V?$allocator@D@2@@std@@@anyimpl@cvflann@@UEAAXPEBQEAXPEAPEAX@Z 0000000180057e68     extractSurfCore.obj
 0002:00007e71       $stateUnwindMap$?clone@?$big_any_policy@V?$basic_string@DU?$char_traits@D@std@@V?$allocator@D@2@@std@@@anyimpl@cvflann@@UEAAXPEBQEAXPEAPEAX@Z 0000000180057e71     extractSurfCore.obj
 0002:00007e77       $ip2state$?clone@?$big_any_policy@V?$basic_string@DU?$char_traits@D@std@@V?$allocator@D@2@@std@@@anyimpl@cvflann@@UEAAXPEBQEAXPEAPEAX@Z 0000000180057e77     extractSurfCore.obj
 0002:00007e80       $unwind$?dtor$0@?0??clone@?$big_any_policy@V?$basic_string@DU?$char_traits@D@std@@V?$allocator@D@2@@std@@@anyimpl@cvflann@@UEAAXPEBQEAXPEAPEAX@Z@4HA 0000000180057e80     extractSurfCore.obj
 0002:00007e88       $unwind$?move@?$big_any_policy@V?$basic_string@DU?$char_traits@D@std@@V?$allocator@D@2@@std@@@anyimpl@cvflann@@UEAAXPEBQEAXPEAPEAX@Z 0000000180057e88     extractSurfCore.obj
 0002:00007e90       $unwind$?print@?$big_any_policy@V?$basic_string@DU?$char_traits@D@std@@V?$allocator@D@2@@std@@@anyimpl@cvflann@@UEAAXAEAV?$basic_ostream@DU?$char_traits@D@std@@@std@@PEBQEAX@Z 0000000180057e90     extractSurfCore.obj
 0002:00007e98       $unwind$??1?$big_any_policy@V?$basic_string@DU?$char_traits@D@std@@V?$allocator@D@2@@std@@@anyimpl@cvflann@@UEAA@XZ 0000000180057e98     extractSurfCore.obj
 0002:00007ea0       $unwind$??_G?$big_any_policy@V?$basic_string@DU?$char_traits@D@std@@V?$allocator@D@2@@std@@@anyimpl@cvflann@@UEAAPEAXI@Z 0000000180057ea0     extractSurfCore.obj
 0002:00007ea8       $unwind$??$_Getvals@_W@?$time_get@DV?$istreambuf_iterator@DU?$char_traits@D@std@@@std@@@std@@IEAAX_WAEBV_Locinfo@1@@Z 0000000180057ea8     extractSurfCore.obj
 0002:00007ebc       $unwind$??$_Getvals@_W@?$time_get@_WV?$istreambuf_iterator@_WU?$char_traits@_W@std@@@std@@@std@@IEAAX_WAEBV_Locinfo@1@@Z 0000000180057ebc     extractSurfCore.obj
 0002:00007ed0       $unwind$?_Decref@?$_Ptr_base@VMWSURF@cv@@@std@@IEAAXXZ 0000000180057ed0     extractSurfCore.obj
 0002:00007ed8       $unwind$??0?$shared_ptr@VMWSURF@cv@@@std@@QEAA@XZ 0000000180057ed8     extractSurfCore.obj
 0002:00007ee0       $unwind$??0?$shared_ptr@VMWSURF@cv@@@std@@QEAA@$$QEAV01@@Z 0000000180057ee0     extractSurfCore.obj
 0002:00007ee8       $unwind$??1?$shared_ptr@VMWSURF@cv@@@std@@QEAA@XZ 0000000180057ee8     extractSurfCore.obj
 0002:00007ef0       $unwind$??0?$Ptr@VMWSURF@cv@@@cv@@QEAA@$$QEAV?$shared_ptr@VMWSURF@cv@@@std@@@Z 0000000180057ef0     extractSurfCore.obj
 0002:00007ef8       $unwind$??C?$Ptr@VMWSURF@cv@@@cv@@QEBAPEAVMWSURF@1@XZ 0000000180057ef8     extractSurfCore.obj
 0002:00007f00       $unwind$?empty@?$Ptr@VMWSURF@cv@@@cv@@QEBA_NXZ 0000000180057f00     extractSurfCore.obj
 0002:00007f08       $unwind$??1?$Ptr@VMWSURF@cv@@@cv@@QEAA@XZ 0000000180057f08     extractSurfCore.obj
 0002:00007f10       $unwind$??$cArrayFromMat@M@@YAXPEAMAEBVMat@cv@@@Z 0000000180057f10     extractSurfCore.obj
 0002:00007f20       $unwind$??$cArrayFromMat_RowMaj@M@@YAXPEAMAEBVMat@cv@@@Z 0000000180057f20     extractSurfCore.obj
 0002:00007f30       $unwind$??0_Sentry_base@?$basic_ostream@DU?$char_traits@D@std@@@std@@QEAA@AEAV12@@Z 0000000180057f30     extractSurfCore.obj
 0002:00007f38       $unwind$??1_Sentry_base@?$basic_ostream@DU?$char_traits@D@std@@@std@@QEAA@XZ 0000000180057f38     extractSurfCore.obj
 0002:00007f48       $cppxdata$??1_Sentry_base@?$basic_ostream@DU?$char_traits@D@std@@@std@@QEAA@XZ 0000000180057f48     extractSurfCore.obj
 0002:00007f4d       $ip2state$??1_Sentry_base@?$basic_ostream@DU?$char_traits@D@std@@@std@@QEAA@XZ 0000000180057f4d     extractSurfCore.obj
 0002:00007f50       $unwind$??0sentry@?$basic_ostream@DU?$char_traits@D@std@@@std@@QEAA@AEAV12@@Z 0000000180057f50     extractSurfCore.obj
 0002:00007f60       $cppxdata$??0sentry@?$basic_ostream@DU?$char_traits@D@std@@@std@@QEAA@AEAV12@@Z 0000000180057f60     extractSurfCore.obj
 0002:00007f69       $stateUnwindMap$??0sentry@?$basic_ostream@DU?$char_traits@D@std@@@std@@QEAA@AEAV12@@Z 0000000180057f69     extractSurfCore.obj
 0002:00007f6f       $ip2state$??0sentry@?$basic_ostream@DU?$char_traits@D@std@@@std@@QEAA@AEAV12@@Z 0000000180057f6f     extractSurfCore.obj
 0002:00007f78       $unwind$?dtor$0@?0???0sentry@?$basic_ostream@DU?$char_traits@D@std@@@std@@QEAA@AEAV12@@Z@4HA 0000000180057f78     extractSurfCore.obj
 0002:00007f80       $unwind$??1sentry@?$basic_ostream@DU?$char_traits@D@std@@@std@@QEAA@XZ 0000000180057f80     extractSurfCore.obj
 0002:00007f90       $cppxdata$??1sentry@?$basic_ostream@DU?$char_traits@D@std@@@std@@QEAA@XZ 0000000180057f90     extractSurfCore.obj
 0002:00007f95       $ip2state$??1sentry@?$basic_ostream@DU?$char_traits@D@std@@@std@@QEAA@XZ 0000000180057f95     extractSurfCore.obj
 0002:00007f98       $unwind$??$emplace_back@AEBVKeyPoint@cv@@@?$vector@VKeyPoint@cv@@V?$allocator@VKeyPoint@cv@@@std@@@std@@QEAAXAEBVKeyPoint@cv@@@Z 0000000180057f98     extractSurfCore.obj
 0002:00007fa0       $unwind$??$_Emplace_back_with_unused_capacity@AEBVKeyPoint@cv@@@?$vector@VKeyPoint@cv@@V?$allocator@VKeyPoint@cv@@@std@@@std@@AEAAXAEBVKeyPoint@cv@@@Z 0000000180057fa0     extractSurfCore.obj
 0002:00007fa8       $unwind$??$construct@VKeyPoint@cv@@AEBV12@@?$_Default_allocator_traits@V?$allocator@VKeyPoint@cv@@@std@@@std@@SAXAEAV?$allocator@VKeyPoint@cv@@@1@QEAVKeyPoint@cv@@AEBV34@@Z 0000000180057fa8     extractSurfCore.obj
 0002:00007fb0       $unwind$??$_Emplace_reallocate@AEBVKeyPoint@cv@@@?$vector@VKeyPoint@cv@@V?$allocator@VKeyPoint@cv@@@std@@@std@@QEAAPEAVKeyPoint@cv@@QEAV23@AEBV23@@Z 0000000180057fb0     extractSurfCore.obj
 0002:00007fc0       $cppxdata$??$_Emplace_reallocate@AEBVKeyPoint@cv@@@?$vector@VKeyPoint@cv@@V?$allocator@VKeyPoint@cv@@@std@@@std@@QEAAPEAVKeyPoint@cv@@QEAV23@AEBV23@@Z 0000000180057fc0     extractSurfCore.obj
 0002:00007fcd       $stateUnwindMap$??$_Emplace_reallocate@AEBVKeyPoint@cv@@@?$vector@VKeyPoint@cv@@V?$allocator@VKeyPoint@cv@@@std@@@std@@QEAAPEAVKeyPoint@cv@@QEAV23@AEBV23@@Z 0000000180057fcd     extractSurfCore.obj
 0002:00007fd0       $tryMap$??$_Emplace_reallocate@AEBVKeyPoint@cv@@@?$vector@VKeyPoint@cv@@V?$allocator@VKeyPoint@cv@@@std@@@std@@QEAAPEAVKeyPoint@cv@@QEAV23@AEBV23@@Z 0000000180057fd0     extractSurfCore.obj
 0002:00007fd8       $handlerMap$??$_Emplace_reallocate@AEBVKeyPoint@cv@@@?$vector@VKeyPoint@cv@@V?$allocator@VKeyPoint@cv@@@std@@@std@@QEAAPEAVKeyPoint@cv@@QEAV23@AEBV23@@Z 0000000180057fd8     extractSurfCore.obj
 0002:00007fdf       $ip2state$??$_Emplace_reallocate@AEBVKeyPoint@cv@@@?$vector@VKeyPoint@cv@@V?$allocator@VKeyPoint@cv@@@std@@@std@@QEAAPEAVKeyPoint@cv@@QEAV23@AEBV23@@Z 0000000180057fdf     extractSurfCore.obj
 0002:00007fe8       $unwind$?catch$0@?0???$_Emplace_reallocate@AEBVKeyPoint@cv@@@?$vector@VKeyPoint@cv@@V?$allocator@VKeyPoint@cv@@@std@@@std@@QEAAPEAVKeyPoint@cv@@QEAV23@AEBV23@@Z@4HA 0000000180057fe8     extractSurfCore.obj
 0002:00007ff0       $unwind$??$?0V?$allocator@VKeyPoint@cv@@@std@@$$V@?$_Compressed_pair@V?$allocator@VKeyPoint@cv@@@std@@V?$_Vector_val@U?$_Simple_types@VKeyPoint@cv@@@std@@@2@$00@std@@QEAA@U_One_then_variadic_args_t@1@$$QEAV?$allocator@VKeyPoint@cv@@@1@@Z 0000000180057ff0     extractSurfCore.obj
 0002:00007ff8       $unwind$??1?$_Tidy_guard@V?$vector@VKeyPoint@cv@@V?$allocator@VKeyPoint@cv@@@std@@@std@@@std@@QEAA@XZ 0000000180057ff8     extractSurfCore.obj
 0002:00008000       $unwind$??$_Ucopy@PEAVKeyPoint@cv@@@?$vector@VKeyPoint@cv@@V?$allocator@VKeyPoint@cv@@@std@@@std@@AEAAPEAVKeyPoint@cv@@PEAV23@00@Z 0000000180058000     extractSurfCore.obj
 0002:00008008       $unwind$??$?0$$V@?$_Compressed_pair@V?$allocator@VKeyPoint@cv@@@std@@V?$_Vector_val@U?$_Simple_types@VKeyPoint@cv@@@std@@@2@$00@std@@QEAA@U_Zero_then_variadic_args_t@1@@Z 0000000180058008     extractSurfCore.obj
 0002:00008010       $unwind$??$?0V?$allocator@D@std@@$$V@?$_Compressed_pair@V?$allocator@D@std@@V?$_String_val@U?$_Simple_types@D@std@@@2@$00@std@@QEAA@U_One_then_variadic_args_t@1@$$QEAV?$allocator@D@1@@Z 0000000180058010     extractSurfCore.obj
 0002:00008018       $unwind$??$?0$$V@?$_Compressed_pair@V?$allocator@D@std@@V?$_String_val@U?$_Simple_types@D@std@@@2@$00@std@@QEAA@U_Zero_then_variadic_args_t@1@@Z 0000000180058018     extractSurfCore.obj
 0002:00008020       $unwind$??R<lambda_66f57f934f28d61049862f64df852ff0>@@QEBAXQEAD_KQEBD@Z 0000000180058020     extractSurfCore.obj
 0002:00008028       $unwind$??$_Reallocate_for@V<lambda_66f57f934f28d61049862f64df852ff0>@@PEBD@?$basic_string@DU?$char_traits@D@std@@V?$allocator@D@2@@std@@AEAAAEAV01@_KV<lambda_66f57f934f28d61049862f64df852ff0>@@PEBD@Z 0000000180058028     extractSurfCore.obj
 0002:00008030       $unwind$??$_Construct_in_place@PEADAEBQEAD@std@@YAXAEAPEADAEBQEAD@Z 0000000180058030     extractSurfCore.obj
 0002:00008038       $unwind$??$max@_K@std@@YAAEB_KAEB_K0@Z 0000000180058038     extractSurfCore.obj
 0002:00008040       $unwind$??$_Allocate@$0BA@U_Default_allocate_traits@std@@$0A@@std@@YAPEAX_K@Z 0000000180058040     extractSurfCore.obj
 0002:00008048       $unwind$??$_Deallocate@$0BA@$0A@@std@@YAXPEAX_K@Z 0000000180058048     extractSurfCore.obj
 0002:00008058       $cppxdata$??$_Deallocate@$0BA@$0A@@std@@YAXPEAX_K@Z 0000000180058058     extractSurfCore.obj
 0002:0000805d       $ip2state$??$_Deallocate@$0BA@$0A@@std@@YAXPEAX_K@Z 000000018005805d     extractSurfCore.obj
 0002:00008060       $unwind$??$_Get_size_of_n@$0BM@@std@@YA_K_K@Z 0000000180058060     extractSurfCore.obj
 0002:00008068       $unwind$??$_Get_size_of_n@$00@std@@YA_K_K@Z 0000000180058068     extractSurfCore.obj
 0002:00008070       $unwind$??1?$typed_base_any_policy@Uempty_any@anyimpl@cvflann@@@anyimpl@cvflann@@UEAA@XZ 0000000180058070     extractSurfCore.obj
 0002:00008078       $unwind$?static_delete@?$big_any_policy@Uempty_any@anyimpl@cvflann@@@anyimpl@cvflann@@UEAAXPEAPEAX@Z 0000000180058078     extractSurfCore.obj
 0002:00008080       $unwind$?copy_from_value@?$big_any_policy@Uempty_any@anyimpl@cvflann@@@anyimpl@cvflann@@UEAAXPEBXPEAPEAX@Z 0000000180058080     extractSurfCore.obj
 0002:00008088       $unwind$?clone@?$big_any_policy@Uempty_any@anyimpl@cvflann@@@anyimpl@cvflann@@UEAAXPEBQEAXPEAPEAX@Z 0000000180058088     extractSurfCore.obj
 0002:00008090       $unwind$?print@?$big_any_policy@Uempty_any@anyimpl@cvflann@@@anyimpl@cvflann@@UEAAXAEAV?$basic_ostream@DU?$char_traits@D@std@@@std@@PEBQEAX@Z 0000000180058090     extractSurfCore.obj
 0002:00008098       $unwind$??1?$big_any_policy@Uempty_any@anyimpl@cvflann@@@anyimpl@cvflann@@UEAA@XZ 0000000180058098     extractSurfCore.obj
 0002:000080a0       $unwind$??_G?$big_any_policy@Uempty_any@anyimpl@cvflann@@@anyimpl@cvflann@@UEAAPEAXI@Z 00000001800580a0     extractSurfCore.obj
 0002:000080a8       $unwind$??$_Maklocstr@D@std@@YAPEADPEBDPEADAEBU_Cvtvec@@@Z 00000001800580a8     extractSurfCore.obj
 0002:000080b0       $unwind$??$make_shared@VMWSURF@cv@@$$V@std@@YA?AV?$shared_ptr@VMWSURF@cv@@@0@XZ 00000001800580b0     extractSurfCore.obj
 0002:000080c0       $cppxdata$??$make_shared@VMWSURF@cv@@$$V@std@@YA?AV?$shared_ptr@VMWSURF@cv@@@0@XZ 00000001800580c0     extractSurfCore.obj
 0002:000080c9       $stateUnwindMap$??$make_shared@VMWSURF@cv@@$$V@std@@YA?AV?$shared_ptr@VMWSURF@cv@@@0@XZ 00000001800580c9     extractSurfCore.obj
 0002:000080cf       $ip2state$??$make_shared@VMWSURF@cv@@$$V@std@@YA?AV?$shared_ptr@VMWSURF@cv@@@0@XZ 00000001800580cf     extractSurfCore.obj
 0002:000080d8       $unwind$?dtor$0@?0???$make_shared@VMWSURF@cv@@$$V@std@@YA?AV?$shared_ptr@VMWSURF@cv@@@0@XZ@4HA 00000001800580d8     extractSurfCore.obj
 0002:000080e0       $unwind$??$copyToArray_RowMaj@M@@YAXPEAM0HH@Z 00000001800580e0     extractSurfCore.obj
 0002:000080e8       $unwind$??$copyToArrayBGR_RowMaj@M@@YAXPEAM0HHH@Z 00000001800580e8     extractSurfCore.obj
 0002:000080f0       $unwind$??$_Uninitialized_copy@PEAVKeyPoint@cv@@V?$allocator@VKeyPoint@cv@@@std@@@std@@YAPEAVKeyPoint@cv@@QEAV12@0PEAV12@AEAV?$allocator@VKeyPoint@cv@@@0@@Z 00000001800580f0     extractSurfCore.obj
 0002:00008100       $cppxdata$??$_Uninitialized_copy@PEAVKeyPoint@cv@@V?$allocator@VKeyPoint@cv@@@std@@@std@@YAPEAVKeyPoint@cv@@QEAV12@0PEAV12@AEAV?$allocator@VKeyPoint@cv@@@0@@Z 0000000180058100     extractSurfCore.obj
 0002:00008109       $stateUnwindMap$??$_Uninitialized_copy@PEAVKeyPoint@cv@@V?$allocator@VKeyPoint@cv@@@std@@@std@@YAPEAVKeyPoint@cv@@QEAV12@0PEAV12@AEAV?$allocator@VKeyPoint@cv@@@0@@Z 0000000180058109     extractSurfCore.obj
 0002:0000810f       $ip2state$??$_Uninitialized_copy@PEAVKeyPoint@cv@@V?$allocator@VKeyPoint@cv@@@std@@@std@@YAPEAVKeyPoint@cv@@QEAV12@0PEAV12@AEAV?$allocator@VKeyPoint@cv@@@0@@Z 000000018005810f     extractSurfCore.obj
 0002:00008118       $unwind$?dtor$0@?0???$_Uninitialized_copy@PEAVKeyPoint@cv@@V?$allocator@VKeyPoint@cv@@@std@@@std@@YAPEAVKeyPoint@cv@@QEAV12@0PEAV12@AEAV?$allocator@VKeyPoint@cv@@@0@@Z@4HA 0000000180058118     extractSurfCore.obj
 0002:00008120       $unwind$??$_Allocate_manually_vector_aligned@U_Default_allocate_traits@std@@@std@@YAPEAX_K@Z 0000000180058120     extractSurfCore.obj
 0002:00008128       $unwind$??$_Uninitialized_move@PEAVKeyPoint@cv@@V?$allocator@VKeyPoint@cv@@@std@@@std@@YAPEAVKeyPoint@cv@@QEAV12@0PEAV12@AEAV?$allocator@VKeyPoint@cv@@@0@@Z 0000000180058128     extractSurfCore.obj
 0002:00008138       $cppxdata$??$_Uninitialized_move@PEAVKeyPoint@cv@@V?$allocator@VKeyPoint@cv@@@std@@@std@@YAPEAVKeyPoint@cv@@QEAV12@0PEAV12@AEAV?$allocator@VKeyPoint@cv@@@0@@Z 0000000180058138     extractSurfCore.obj
 0002:00008141       $stateUnwindMap$??$_Uninitialized_move@PEAVKeyPoint@cv@@V?$allocator@VKeyPoint@cv@@@std@@@std@@YAPEAVKeyPoint@cv@@QEAV12@0PEAV12@AEAV?$allocator@VKeyPoint@cv@@@0@@Z 0000000180058141     extractSurfCore.obj
 0002:00008147       $ip2state$??$_Uninitialized_move@PEAVKeyPoint@cv@@V?$allocator@VKeyPoint@cv@@@std@@@std@@YAPEAVKeyPoint@cv@@QEAV12@0PEAV12@AEAV?$allocator@VKeyPoint@cv@@@0@@Z 0000000180058147     extractSurfCore.obj
 0002:00008150       $unwind$?dtor$0@?0???$_Uninitialized_move@PEAVKeyPoint@cv@@V?$allocator@VKeyPoint@cv@@@std@@@std@@YAPEAVKeyPoint@cv@@QEAV12@0PEAV12@AEAV?$allocator@VKeyPoint@cv@@@0@@Z@4HA 0000000180058150     extractSurfCore.obj
 0002:00008158       $unwind$??__F?policy@?$SinglePolicy@Uempty_any@anyimpl@cvflann@@@anyimpl@cvflann@@0U?$big_any_policy@Uempty_any@anyimpl@cvflann@@@23@A@@YAXXZ 0000000180058158     extractSurfCore.obj
 0002:00008160       $unwind$??__F?policy@?$SinglePolicy@Uempty_any@anyimpl@cvflann@@@anyimpl@cvflann@@0U?$big_any_policy@Uempty_any@anyimpl@cvflann@@@23@A@@YAXXZ 0000000180058160     extractSurfCore.obj
 0002:00008168       $unwind$??1?$typed_base_any_policy@PEBD@anyimpl@cvflann@@UEAA@XZ 0000000180058168     extractSurfCore.obj
 0002:00008170       $unwind$?copy_from_value@?$small_any_policy@PEBD@anyimpl@cvflann@@UEAAXPEBXPEAPEAX@Z 0000000180058170     extractSurfCore.obj
 0002:00008178       $unwind$?print@?$small_any_policy@PEBD@anyimpl@cvflann@@UEAAXAEAV?$basic_ostream@DU?$char_traits@D@std@@@std@@PEBQEAX@Z 0000000180058178     extractSurfCore.obj
 0002:00008180       $unwind$??1?$small_any_policy@PEBD@anyimpl@cvflann@@UEAA@XZ 0000000180058180     extractSurfCore.obj
 0002:00008188       $unwind$??_G?$small_any_policy@PEBD@anyimpl@cvflann@@UEAAPEAXI@Z 0000000180058188     extractSurfCore.obj
 0002:00008190       $unwind$??1?$_Ref_count_obj2@VMWSURF@cv@@@std@@UEAA@XZ 0000000180058190     extractSurfCore.obj
 0002:00008198       $unwind$?_Destroy@?$_Ref_count_obj2@VMWSURF@cv@@@std@@EEAAXXZ 0000000180058198     extractSurfCore.obj
 0002:000081a0       $unwind$?_Delete_this@?$_Ref_count_obj2@VMWSURF@cv@@@std@@EEAAXXZ 00000001800581a0     extractSurfCore.obj
 0002:000081a8       $unwind$??_G?$_Ref_count_obj2@VMWSURF@cv@@@std@@UEAAPEAXI@Z 00000001800581a8     extractSurfCore.obj
 0002:000081b0       $unwind$??$?0$$V@?$_Ref_count_obj2@VMWSURF@cv@@@std@@QEAA@XZ 00000001800581b0     extractSurfCore.obj
 0002:000081c0       $cppxdata$??$?0$$V@?$_Ref_count_obj2@VMWSURF@cv@@@std@@QEAA@XZ 00000001800581c0     extractSurfCore.obj
 0002:000081c9       $stateUnwindMap$??$?0$$V@?$_Ref_count_obj2@VMWSURF@cv@@@std@@QEAA@XZ 00000001800581c9     extractSurfCore.obj
 0002:000081cf       $ip2state$??$?0$$V@?$_Ref_count_obj2@VMWSURF@cv@@@std@@QEAA@XZ 00000001800581cf     extractSurfCore.obj
 0002:000081d8       $unwind$?dtor$0@?0???$?0$$V@?$_Ref_count_obj2@VMWSURF@cv@@@std@@QEAA@XZ@4HA 00000001800581d8     extractSurfCore.obj
 0002:000081e0       $unwind$??1?$_Uninitialized_backout_al@V?$allocator@VKeyPoint@cv@@@std@@@std@@QEAA@XZ 00000001800581e0     extractSurfCore.obj
 0002:000081e8       $unwind$??$_Emplace_back@AEAVKeyPoint@cv@@@?$_Uninitialized_backout_al@V?$allocator@VKeyPoint@cv@@@std@@@std@@QEAAXAEAVKeyPoint@cv@@@Z 00000001800581e8     extractSurfCore.obj
 0002:000081f0       $unwind$??$_Emplace_back@VKeyPoint@cv@@@?$_Uninitialized_backout_al@V?$allocator@VKeyPoint@cv@@@std@@@std@@QEAAX$$QEAVKeyPoint@cv@@@Z 00000001800581f0     extractSurfCore.obj
 0002:000081f8       $unwind$??$_Destroy_in_place@VMWSURF@cv@@@std@@YAXAEAVMWSURF@cv@@@Z 00000001800581f8     extractSurfCore.obj
 0002:00008200       $unwind$??__F?policy@?$SinglePolicy@PEBD@anyimpl@cvflann@@0U?$small_any_policy@PEBD@23@A@@YAXXZ 0000000180058200     extractSurfCore.obj
 0002:00008208       $unwind$??__F?policy@?$SinglePolicy@PEBD@anyimpl@cvflann@@0U?$small_any_policy@PEBD@23@A@@YAXXZ 0000000180058208     extractSurfCore.obj
 0002:00008210       $unwind$??1?$typed_base_any_policy@H@anyimpl@cvflann@@UEAA@XZ 0000000180058210     extractSurfCore.obj
 0002:00008218       $unwind$?copy_from_value@?$small_any_policy@H@anyimpl@cvflann@@UEAAXPEBXPEAPEAX@Z 0000000180058218     extractSurfCore.obj
 0002:00008220       $unwind$?print@?$small_any_policy@H@anyimpl@cvflann@@UEAAXAEAV?$basic_ostream@DU?$char_traits@D@std@@@std@@PEBQEAX@Z 0000000180058220     extractSurfCore.obj
 0002:00008228       $unwind$??1?$small_any_policy@H@anyimpl@cvflann@@UEAA@XZ 0000000180058228     extractSurfCore.obj
 0002:00008230       $unwind$??_G?$small_any_policy@H@anyimpl@cvflann@@UEAAPEAXI@Z 0000000180058230     extractSurfCore.obj
 0002:00008238       $unwind$??1?$typed_base_any_policy@M@anyimpl@cvflann@@UEAA@XZ 0000000180058238     extractSurfCore.obj
 0002:00008240       $unwind$?copy_from_value@?$small_any_policy@M@anyimpl@cvflann@@UEAAXPEBXPEAPEAX@Z 0000000180058240     extractSurfCore.obj
 0002:00008248       $unwind$?print@?$small_any_policy@M@anyimpl@cvflann@@UEAAXAEAV?$basic_ostream@DU?$char_traits@D@std@@@std@@PEBQEAX@Z 0000000180058248     extractSurfCore.obj
 0002:00008250       $unwind$??1?$small_any_policy@M@anyimpl@cvflann@@UEAA@XZ 0000000180058250     extractSurfCore.obj
 0002:00008258       $unwind$??_G?$small_any_policy@M@anyimpl@cvflann@@UEAAPEAXI@Z 0000000180058258     extractSurfCore.obj
 0002:00008260       $unwind$??1?$typed_base_any_policy@_N@anyimpl@cvflann@@UEAA@XZ 0000000180058260     extractSurfCore.obj
 0002:00008268       $unwind$?copy_from_value@?$small_any_policy@_N@anyimpl@cvflann@@UEAAXPEBXPEAPEAX@Z 0000000180058268     extractSurfCore.obj
 0002:00008270       $unwind$?print@?$small_any_policy@_N@anyimpl@cvflann@@UEAAXAEAV?$basic_ostream@DU?$char_traits@D@std@@@std@@PEBQEAX@Z 0000000180058270     extractSurfCore.obj
 0002:00008278       $unwind$??1?$small_any_policy@_N@anyimpl@cvflann@@UEAA@XZ 0000000180058278     extractSurfCore.obj
 0002:00008280       $unwind$??_G?$small_any_policy@_N@anyimpl@cvflann@@UEAAPEAXI@Z 0000000180058280     extractSurfCore.obj
 0002:00008288       $unwind$??1?$typed_base_any_policy@I@anyimpl@cvflann@@UEAA@XZ 0000000180058288     extractSurfCore.obj
 0002:00008290       $unwind$?copy_from_value@?$small_any_policy@I@anyimpl@cvflann@@UEAAXPEBXPEAPEAX@Z 0000000180058290     extractSurfCore.obj
 0002:00008298       $unwind$?print@?$small_any_policy@I@anyimpl@cvflann@@UEAAXAEAV?$basic_ostream@DU?$char_traits@D@std@@@std@@PEBQEAX@Z 0000000180058298     extractSurfCore.obj
 0002:000082a0       $unwind$??1?$small_any_policy@I@anyimpl@cvflann@@UEAA@XZ 00000001800582a0     extractSurfCore.obj
 0002:000082a8       $unwind$??_G?$small_any_policy@I@anyimpl@cvflann@@UEAAPEAXI@Z 00000001800582a8     extractSurfCore.obj
 0002:000082b0       $unwind$??$_Construct_in_place@VMWSURF@cv@@$$V@std@@YAXAEAVMWSURF@cv@@@Z 00000001800582b0     extractSurfCore.obj
 0002:000082b8       $unwind$??$construct@VKeyPoint@cv@@AEAV12@@?$_Default_allocator_traits@V?$allocator@VKeyPoint@cv@@@std@@@std@@SAXAEAV?$allocator@VKeyPoint@cv@@@1@QEAVKeyPoint@cv@@AEAV34@@Z 00000001800582b8     extractSurfCore.obj
 0002:000082c0       $unwind$??$construct@VKeyPoint@cv@@V12@@?$_Default_allocator_traits@V?$allocator@VKeyPoint@cv@@@std@@@std@@SAXAEAV?$allocator@VKeyPoint@cv@@@1@QEAVKeyPoint@cv@@$$QEAV34@@Z 00000001800582c0     extractSurfCore.obj
 0002:000082c8       $unwind$??__F?policy@?$SinglePolicy@H@anyimpl@cvflann@@0U?$small_any_policy@H@23@A@@YAXXZ 00000001800582c8     extractSurfCore.obj
 0002:000082d0       $unwind$??__F?policy@?$SinglePolicy@H@anyimpl@cvflann@@0U?$small_any_policy@H@23@A@@YAXXZ 00000001800582d0     extractSurfCore.obj
 0002:000082d8       $unwind$??__F?policy@?$SinglePolicy@M@anyimpl@cvflann@@0U?$small_any_policy@M@23@A@@YAXXZ 00000001800582d8     extractSurfCore.obj
 0002:000082e0       $unwind$??__F?policy@?$SinglePolicy@M@anyimpl@cvflann@@0U?$small_any_policy@M@23@A@@YAXXZ 00000001800582e0     extractSurfCore.obj
 0002:000082e8       $unwind$??__F?policy@?$SinglePolicy@_N@anyimpl@cvflann@@0U?$small_any_policy@_N@23@A@@YAXXZ 00000001800582e8     extractSurfCore.obj
 0002:000082f0       $unwind$??__F?policy@?$SinglePolicy@_N@anyimpl@cvflann@@0U?$small_any_policy@_N@23@A@@YAXXZ 00000001800582f0     extractSurfCore.obj
 0002:000082f8       $unwind$??__F?policy@?$SinglePolicy@W4flann_algorithm_t@cvflann@@@anyimpl@cvflann@@0U?$big_any_policy@W4flann_algorithm_t@cvflann@@@23@A@@YAXXZ 00000001800582f8     extractSurfCore.obj
 0002:00008300       $unwind$??__F?policy@?$SinglePolicy@W4flann_algorithm_t@cvflann@@@anyimpl@cvflann@@0U?$big_any_policy@W4flann_algorithm_t@cvflann@@@23@A@@YAXXZ 0000000180058300     extractSurfCore.obj
 0002:00008308       $unwind$??__F?policy@?$SinglePolicy@W4flann_centers_init_t@cvflann@@@anyimpl@cvflann@@0U?$big_any_policy@W4flann_centers_init_t@cvflann@@@23@A@@YAXXZ 0000000180058308     extractSurfCore.obj
 0002:00008310       $unwind$??__F?policy@?$SinglePolicy@W4flann_centers_init_t@cvflann@@@anyimpl@cvflann@@0U?$big_any_policy@W4flann_centers_init_t@cvflann@@@23@A@@YAXXZ 0000000180058310     extractSurfCore.obj
 0002:00008318       $unwind$??__F?policy@?$SinglePolicy@I@anyimpl@cvflann@@0U?$small_any_policy@I@23@A@@YAXXZ 0000000180058318     extractSurfCore.obj
 0002:00008320       $unwind$??__F?policy@?$SinglePolicy@I@anyimpl@cvflann@@0U?$small_any_policy@I@23@A@@YAXXZ 0000000180058320     extractSurfCore.obj
 0002:00008328       $unwind$??__F?policy@?$SinglePolicy@V?$basic_string@DU?$char_traits@D@std@@V?$allocator@D@2@@std@@@anyimpl@cvflann@@0U?$big_any_policy@V?$basic_string@DU?$char_traits@D@std@@V?$allocator@D@2@@std@@@23@A@@YAXXZ 0000000180058328     extractSurfCore.obj
 0002:00008330       $unwind$??__F?policy@?$SinglePolicy@V?$basic_string@DU?$char_traits@D@std@@V?$allocator@D@2@@std@@@anyimpl@cvflann@@0U?$big_any_policy@V?$basic_string@DU?$char_traits@D@std@@V?$allocator@D@2@@std@@@23@A@@YAXXZ 0000000180058330     extractSurfCore.obj
 0002:00008338       $unwind$?begin@?$vector@V?$Rect_@H@cv@@V?$allocator@V?$Rect_@H@cv@@@std@@@std@@QEBA?AV?$_Vector_const_iterator@V?$_Vector_val@U?$_Simple_types@V?$Rect_@H@cv@@@std@@@std@@@2@XZ 0000000180058338     cgCommon.obj
 0002:00008340       $unwind$?end@?$vector@V?$Rect_@H@cv@@V?$allocator@V?$Rect_@H@cv@@@std@@@std@@QEBA?AV?$_Vector_const_iterator@V?$_Vector_val@U?$_Simple_types@V?$Rect_@H@cv@@@std@@@std@@@2@XZ 0000000180058340     cgCommon.obj
 0002:00008348       $unwind$?size@?$vector@V?$Rect_@H@cv@@V?$allocator@V?$Rect_@H@cv@@@std@@@std@@QEBA_KXZ 0000000180058348     cgCommon.obj
 0002:00008350       $unwind$cvRectToBoundingBox 0000000180058350     cgCommon.obj
 0002:00008358       $unwind$cvRectToBoundingBoxRowMajor 0000000180058358     cgCommon.obj
 0002:00008360       $unwind$??0?$_Vector_const_iterator@V?$_Vector_val@U?$_Simple_types@V?$Rect_@H@cv@@@std@@@std@@@std@@QEAA@PEAV?$Rect_@H@cv@@PEBU_Container_base0@1@@Z 0000000180058360     cgCommon.obj
 0002:00008368       $unwind$??8?$_Vector_const_iterator@V?$_Vector_val@U?$_Simple_types@V?$Rect_@H@cv@@@std@@@std@@@std@@QEBA_NAEBV01@@Z 0000000180058368     cgCommon.obj
 0002:00008370       $unwind$??9?$_Vector_const_iterator@V?$_Vector_val@U?$_Simple_types@V?$Rect_@H@cv@@@std@@@std@@@std@@QEBA_NAEBV01@@Z 0000000180058370     cgCommon.obj
 0002:00008378       $unwind$??__F?policy@?$SinglePolicy@Uempty_any@anyimpl@cvflann@@@anyimpl@cvflann@@0U?$big_any_policy@Uempty_any@anyimpl@cvflann@@@23@A@@YAXXZ 0000000180058378     cgCommon.obj
 0002:00008380       $unwind$??__F?policy@?$SinglePolicy@Uempty_any@anyimpl@cvflann@@@anyimpl@cvflann@@0U?$big_any_policy@Uempty_any@anyimpl@cvflann@@@23@A@@YAXXZ 0000000180058380     cgCommon.obj
 0002:00008388       $unwind$??__F?policy@?$SinglePolicy@PEBD@anyimpl@cvflann@@0U?$small_any_policy@PEBD@23@A@@YAXXZ 0000000180058388     cgCommon.obj
 0002:00008390       $unwind$??__F?policy@?$SinglePolicy@PEBD@anyimpl@cvflann@@0U?$small_any_policy@PEBD@23@A@@YAXXZ 0000000180058390     cgCommon.obj
 0002:00008398       $unwind$??__F?policy@?$SinglePolicy@H@anyimpl@cvflann@@0U?$small_any_policy@H@23@A@@YAXXZ 0000000180058398     cgCommon.obj
 0002:000083a0       $unwind$??__F?policy@?$SinglePolicy@H@anyimpl@cvflann@@0U?$small_any_policy@H@23@A@@YAXXZ 00000001800583a0     cgCommon.obj
 0002:000083a8       $unwind$??__F?policy@?$SinglePolicy@M@anyimpl@cvflann@@0U?$small_any_policy@M@23@A@@YAXXZ 00000001800583a8     cgCommon.obj
 0002:000083b0       $unwind$??__F?policy@?$SinglePolicy@M@anyimpl@cvflann@@0U?$small_any_policy@M@23@A@@YAXXZ 00000001800583b0     cgCommon.obj
 0002:000083b8       $unwind$??__F?policy@?$SinglePolicy@_N@anyimpl@cvflann@@0U?$small_any_policy@_N@23@A@@YAXXZ 00000001800583b8     cgCommon.obj
 0002:000083c0       $unwind$??__F?policy@?$SinglePolicy@_N@anyimpl@cvflann@@0U?$small_any_policy@_N@23@A@@YAXXZ 00000001800583c0     cgCommon.obj
 0002:000083c8       $unwind$??__F?policy@?$SinglePolicy@W4flann_algorithm_t@cvflann@@@anyimpl@cvflann@@0U?$big_any_policy@W4flann_algorithm_t@cvflann@@@23@A@@YAXXZ 00000001800583c8     cgCommon.obj
 0002:000083d0       $unwind$??__F?policy@?$SinglePolicy@W4flann_algorithm_t@cvflann@@@anyimpl@cvflann@@0U?$big_any_policy@W4flann_algorithm_t@cvflann@@@23@A@@YAXXZ 00000001800583d0     cgCommon.obj
 0002:000083d8       $unwind$??__F?policy@?$SinglePolicy@W4flann_centers_init_t@cvflann@@@anyimpl@cvflann@@0U?$big_any_policy@W4flann_centers_init_t@cvflann@@@23@A@@YAXXZ 00000001800583d8     cgCommon.obj
 0002:000083e0       $unwind$??__F?policy@?$SinglePolicy@W4flann_centers_init_t@cvflann@@@anyimpl@cvflann@@0U?$big_any_policy@W4flann_centers_init_t@cvflann@@@23@A@@YAXXZ 00000001800583e0     cgCommon.obj
 0002:000083e8       $unwind$??__F?policy@?$SinglePolicy@I@anyimpl@cvflann@@0U?$small_any_policy@I@23@A@@YAXXZ 00000001800583e8     cgCommon.obj
 0002:000083f0       $unwind$??__F?policy@?$SinglePolicy@I@anyimpl@cvflann@@0U?$small_any_policy@I@23@A@@YAXXZ 00000001800583f0     cgCommon.obj
 0002:000083f8       $unwind$??__F?policy@?$SinglePolicy@V?$basic_string@DU?$char_traits@D@std@@V?$allocator@D@2@@std@@@anyimpl@cvflann@@0U?$big_any_policy@V?$basic_string@DU?$char_traits@D@std@@V?$allocator@D@2@@std@@@23@A@@YAXXZ 00000001800583f8     cgCommon.obj
 0002:00008400       $unwind$??__F?policy@?$SinglePolicy@V?$basic_string@DU?$char_traits@D@std@@V?$allocator@D@2@@std@@@anyimpl@cvflann@@0U?$big_any_policy@V?$basic_string@DU?$char_traits@D@std@@V?$allocator@D@2@@std@@@23@A@@YAXXZ 0000000180058400     cgCommon.obj
 0002:00008408       $unwind$??_H@YAXPEAX_K1P6APEAX0@Z@Z 0000000180058408     mwsurf.obj
 0002:00008410       $unwind$fabsf              0000000180058410     mwsurf.obj
 0002:00008418       $unwind$?abs@@YAMM@Z       0000000180058418     mwsurf.obj
 0002:00008428       $cppxdata$?abs@@YAMM@Z     0000000180058428     mwsurf.obj
 0002:0000842d       $ip2state$?abs@@YAMM@Z     000000018005842d     mwsurf.obj
 0002:00008430       $unwind$?cos@@YAMM@Z       0000000180058430     mwsurf.obj
 0002:00008440       $cppxdata$?cos@@YAMM@Z     0000000180058440     mwsurf.obj
 0002:00008445       $ip2state$?cos@@YAMM@Z     0000000180058445     mwsurf.obj
 0002:00008448       $unwind$?fabs@@YAMM@Z      0000000180058448     mwsurf.obj
 0002:00008458       $cppxdata$?fabs@@YAMM@Z    0000000180058458     mwsurf.obj
 0002:0000845d       $ip2state$?fabs@@YAMM@Z    000000018005845d     mwsurf.obj
 0002:00008460       $unwind$?sin@@YAMM@Z       0000000180058460     mwsurf.obj
 0002:00008470       $cppxdata$?sin@@YAMM@Z     0000000180058470     mwsurf.obj
 0002:00008475       $ip2state$?sin@@YAMM@Z     0000000180058475     mwsurf.obj
 0002:00008478       $unwind$??8type_info@@QEBA_NAEBV0@@Z 0000000180058478     mwsurf.obj
 0002:00008488       $cppxdata$??8type_info@@QEBA_NAEBV0@@Z 0000000180058488     mwsurf.obj
 0002:0000848d       $ip2state$??8type_info@@QEBA_NAEBV0@@Z 000000018005848d     mwsurf.obj
 0002:00008490       $unwind$?cvRound@@YAHM@Z   0000000180058490     mwsurf.obj
 0002:00008498       $unwind$?cvCeil@@YAHM@Z    0000000180058498     mwsurf.obj
 0002:000084a0       $unwind$?cvMat@@YA?AUCvMat@@HHHPEAX@Z 00000001800584a0     mwsurf.obj
 0002:000084ac       $unwind$?cvPoint@@YA?AUCvPoint@@HH@Z 00000001800584ac     mwsurf.obj
 0002:000084b4       $unwind$??0MWSURF@cv@@QEAA@XZ 00000001800584b4     mwsurf.obj
 0002:000084c4       $cppxdata$??0MWSURF@cv@@QEAA@XZ 00000001800584c4     mwsurf.obj
 0002:000084cd       $stateUnwindMap$??0MWSURF@cv@@QEAA@XZ 00000001800584cd     mwsurf.obj
 0002:000084d3       $ip2state$??0MWSURF@cv@@QEAA@XZ 00000001800584d3     mwsurf.obj
 0002:000084db       $cppxdata$??0MWSURF@cv@@QEAA@NHH_N0@Z 00000001800584db     mwsurf.obj
 0002:000084e4       $unwind$?dtor$0@?0???0MWSURF@cv@@QEAA@XZ@4HA 00000001800584e4     mwsurf.obj
 0002:000084ec       $unwind$??0MWSURF@cv@@QEAA@NHH_N0@Z 00000001800584ec     mwsurf.obj
 0002:000084fc       $stateUnwindMap$??0MWSURF@cv@@QEAA@NHH_N0@Z 00000001800584fc     mwsurf.obj
 0002:00008502       $ip2state$??0MWSURF@cv@@QEAA@NHH_N0@Z 0000000180058502     mwsurf.obj
 0002:0000850a       $cppxdata$??RMWSURF@cv@@QEBAXAEBV_InputArray@1@0AEAV?$vector@VKeyPoint@cv@@V?$allocator@VKeyPoint@cv@@@std@@@std@@AEBV_OutputArray@1@_N@Z 000000018005850a     mwsurf.obj
 0002:00008513       $cppxdata$?detectImpl@MWSURF@cv@@IEBAXAEBVMat@2@AEAV?$vector@VKeyPoint@cv@@V?$allocator@VKeyPoint@cv@@@std@@@std@@0@Z 0000000180058513     mwsurf.obj
 0002:0000851c       $unwind$?dtor$0@?0???0MWSURF@cv@@QEAA@NHH_N0@Z@4HA 000000018005851c     mwsurf.obj
 0002:00008524       $unwind$?descriptorSize@MWSURF@cv@@UEBAHXZ 0000000180058524     mwsurf.obj
 0002:0000852c       $unwind$??RMWSURF@cv@@QEBAXAEBV_InputArray@1@0AEAV?$vector@VKeyPoint@cv@@V?$allocator@VKeyPoint@cv@@@std@@@std@@@Z 000000018005852c     mwsurf.obj
 0002:00008534       $unwind$??RMWSURF@cv@@QEBAXAEBV_InputArray@1@0AEAV?$vector@VKeyPoint@cv@@V?$allocator@VKeyPoint@cv@@@std@@@std@@AEBV_OutputArray@1@_N@Z 0000000180058534     mwsurf.obj
 0002:00008548       $stateUnwindMap$??RMWSURF@cv@@QEBAXAEBV_InputArray@1@0AEAV?$vector@VKeyPoint@cv@@V?$allocator@VKeyPoint@cv@@@std@@@std@@AEBV_OutputArray@1@_N@Z 0000000180058548     mwsurf.obj
 0002:000085d0       $ip2state$??RMWSURF@cv@@QEBAXAEBV_InputArray@1@0AEAV?$vector@VKeyPoint@cv@@V?$allocator@VKeyPoint@cv@@@std@@@std@@AEBV_OutputArray@1@_N@Z 00000001800585d0     mwsurf.obj
 0002:0000864b       $cppxdata$?computeImpl@MWSURF@cv@@IEBAXAEBVMat@2@AEAV?$vector@VKeyPoint@cv@@V?$allocator@VKeyPoint@cv@@@std@@@std@@AEAV32@@Z 000000018005864b     mwsurf.obj
 0002:00008654       $unwind$?dtor$0@?0???RMWSURF@cv@@QEBAXAEBV_InputArray@1@0AEAV?$vector@VKeyPoint@cv@@V?$allocator@VKeyPoint@cv@@@std@@@std@@AEBV_OutputArray@1@_N@Z@4HA 0000000180058654     mwsurf.obj
 0002:0000865c       $unwind$?dtor$1@?0???RMWSURF@cv@@QEBAXAEBV_InputArray@1@0AEAV?$vector@VKeyPoint@cv@@V?$allocator@VKeyPoint@cv@@@std@@@std@@AEBV_OutputArray@1@_N@Z@4HA 000000018005865c     mwsurf.obj
 0002:00008664       $unwind$?dtor$2@?0???RMWSURF@cv@@QEBAXAEBV_InputArray@1@0AEAV?$vector@VKeyPoint@cv@@V?$allocator@VKeyPoint@cv@@@std@@@std@@AEBV_OutputArray@1@_N@Z@4HA 0000000180058664     mwsurf.obj
 0002:0000866c       $unwind$?dtor$3@?0???RMWSURF@cv@@QEBAXAEBV_InputArray@1@0AEAV?$vector@VKeyPoint@cv@@V?$allocator@VKeyPoint@cv@@@std@@@std@@AEBV_OutputArray@1@_N@Z@4HA 000000018005866c     mwsurf.obj
 0002:00008674       $unwind$?dtor$4@?0???RMWSURF@cv@@QEBAXAEBV_InputArray@1@0AEAV?$vector@VKeyPoint@cv@@V?$allocator@VKeyPoint@cv@@@std@@@std@@AEBV_OutputArray@1@_N@Z@4HA 0000000180058674     mwsurf.obj
 0002:0000867c       $unwind$?dtor$5@?0???RMWSURF@cv@@QEBAXAEBV_InputArray@1@0AEAV?$vector@VKeyPoint@cv@@V?$allocator@VKeyPoint@cv@@@std@@@std@@AEBV_OutputArray@1@_N@Z@4HA 000000018005867c     mwsurf.obj
 0002:00008684       $unwind$?dtor$6@?0???RMWSURF@cv@@QEBAXAEBV_InputArray@1@0AEAV?$vector@VKeyPoint@cv@@V?$allocator@VKeyPoint@cv@@@std@@@std@@AEBV_OutputArray@1@_N@Z@4HA 0000000180058684     mwsurf.obj
 0002:0000868c       $unwind$?dtor$7@?0???RMWSURF@cv@@QEBAXAEBV_InputArray@1@0AEAV?$vector@VKeyPoint@cv@@V?$allocator@VKeyPoint@cv@@@std@@@std@@AEBV_OutputArray@1@_N@Z@4HA 000000018005868c     mwsurf.obj
 0002:00008694       $unwind$?dtor$8@?0???RMWSURF@cv@@QEBAXAEBV_InputArray@1@0AEAV?$vector@VKeyPoint@cv@@V?$allocator@VKeyPoint@cv@@@std@@@std@@AEBV_OutputArray@1@_N@Z@4HA 0000000180058694     mwsurf.obj
 0002:0000869c       $unwind$?dtor$9@?0???RMWSURF@cv@@QEBAXAEBV_InputArray@1@0AEAV?$vector@VKeyPoint@cv@@V?$allocator@VKeyPoint@cv@@@std@@@std@@AEBV_OutputArray@1@_N@Z@4HA 000000018005869c     mwsurf.obj
 0002:000086a4       $unwind$?dtor$10@?0???RMWSURF@cv@@QEBAXAEBV_InputArray@1@0AEAV?$vector@VKeyPoint@cv@@V?$allocator@VKeyPoint@cv@@@std@@@std@@AEBV_OutputArray@1@_N@Z@4HA 00000001800586a4     mwsurf.obj
 0002:000086ac       $unwind$?dtor$11@?0???RMWSURF@cv@@QEBAXAEBV_InputArray@1@0AEAV?$vector@VKeyPoint@cv@@V?$allocator@VKeyPoint@cv@@@std@@@std@@AEBV_OutputArray@1@_N@Z@4HA 00000001800586ac     mwsurf.obj
 0002:000086b4       $unwind$?dtor$12@?0???RMWSURF@cv@@QEBAXAEBV_InputArray@1@0AEAV?$vector@VKeyPoint@cv@@V?$allocator@VKeyPoint@cv@@@std@@@std@@AEBV_OutputArray@1@_N@Z@4HA 00000001800586b4     mwsurf.obj
 0002:000086bc       $unwind$?dtor$13@?0???RMWSURF@cv@@QEBAXAEBV_InputArray@1@0AEAV?$vector@VKeyPoint@cv@@V?$allocator@VKeyPoint@cv@@@std@@@std@@AEBV_OutputArray@1@_N@Z@4HA 00000001800586bc     mwsurf.obj
 0002:000086c4       $unwind$?dtor$14@?0???RMWSURF@cv@@QEBAXAEBV_InputArray@1@0AEAV?$vector@VKeyPoint@cv@@V?$allocator@VKeyPoint@cv@@@std@@@std@@AEBV_OutputArray@1@_N@Z@4HA 00000001800586c4     mwsurf.obj
 0002:000086cc       $unwind$?dtor$15@?0???RMWSURF@cv@@QEBAXAEBV_InputArray@1@0AEAV?$vector@VKeyPoint@cv@@V?$allocator@VKeyPoint@cv@@@std@@@std@@AEBV_OutputArray@1@_N@Z@4HA 00000001800586cc     mwsurf.obj
 0002:000086d4       $unwind$?dtor$16@?0???RMWSURF@cv@@QEBAXAEBV_InputArray@1@0AEAV?$vector@VKeyPoint@cv@@V?$allocator@VKeyPoint@cv@@@std@@@std@@AEBV_OutputArray@1@_N@Z@4HA 00000001800586d4     mwsurf.obj
 0002:000086dc       $unwind$?dtor$17@?0???RMWSURF@cv@@QEBAXAEBV_InputArray@1@0AEAV?$vector@VKeyPoint@cv@@V?$allocator@VKeyPoint@cv@@@std@@@std@@AEBV_OutputArray@1@_N@Z@4HA 00000001800586dc     mwsurf.obj
 0002:000086e4       $unwind$?dtor$18@?0???RMWSURF@cv@@QEBAXAEBV_InputArray@1@0AEAV?$vector@VKeyPoint@cv@@V?$allocator@VKeyPoint@cv@@@std@@@std@@AEBV_OutputArray@1@_N@Z@4HA 00000001800586e4     mwsurf.obj
 0002:000086ec       $unwind$?dtor$19@?0???RMWSURF@cv@@QEBAXAEBV_InputArray@1@0AEAV?$vector@VKeyPoint@cv@@V?$allocator@VKeyPoint@cv@@@std@@@std@@AEBV_OutputArray@1@_N@Z@4HA 00000001800586ec     mwsurf.obj
 0002:000086f4       $unwind$?dtor$20@?0???RMWSURF@cv@@QEBAXAEBV_InputArray@1@0AEAV?$vector@VKeyPoint@cv@@V?$allocator@VKeyPoint@cv@@@std@@@std@@AEBV_OutputArray@1@_N@Z@4HA 00000001800586f4     mwsurf.obj
 0002:000086fc       $unwind$?dtor$21@?0???RMWSURF@cv@@QEBAXAEBV_InputArray@1@0AEAV?$vector@VKeyPoint@cv@@V?$allocator@VKeyPoint@cv@@@std@@@std@@AEBV_OutputArray@1@_N@Z@4HA 00000001800586fc     mwsurf.obj
 0002:00008704       $unwind$?dtor$22@?0???RMWSURF@cv@@QEBAXAEBV_InputArray@1@0AEAV?$vector@VKeyPoint@cv@@V?$allocator@VKeyPoint@cv@@@std@@@std@@AEBV_OutputArray@1@_N@Z@4HA 0000000180058704     mwsurf.obj
 0002:0000870c       $unwind$?dtor$23@?0???RMWSURF@cv@@QEBAXAEBV_InputArray@1@0AEAV?$vector@VKeyPoint@cv@@V?$allocator@VKeyPoint@cv@@@std@@@std@@AEBV_OutputArray@1@_N@Z@4HA 000000018005870c     mwsurf.obj
 0002:00008714       $unwind$?dtor$24@?0???RMWSURF@cv@@QEBAXAEBV_InputArray@1@0AEAV?$vector@VKeyPoint@cv@@V?$allocator@VKeyPoint@cv@@@std@@@std@@AEBV_OutputArray@1@_N@Z@4HA 0000000180058714     mwsurf.obj
 0002:0000871c       $unwind$?dtor$25@?0???RMWSURF@cv@@QEBAXAEBV_InputArray@1@0AEAV?$vector@VKeyPoint@cv@@V?$allocator@VKeyPoint@cv@@@std@@@std@@AEBV_OutputArray@1@_N@Z@4HA 000000018005871c     mwsurf.obj
 0002:00008724       $unwind$?detect@MWSURF@cv@@QEBAXAEBVMat@2@AEAV?$vector@VKeyPoint@cv@@V?$allocator@VKeyPoint@cv@@@std@@@std@@0@Z 0000000180058724     mwsurf.obj
 0002:0000872c       $unwind$?compute@MWSURF@cv@@QEBAXAEBVMat@2@AEAV?$vector@VKeyPoint@cv@@V?$allocator@VKeyPoint@cv@@@std@@@std@@AEAV32@@Z 000000018005872c     mwsurf.obj
 0002:00008734       $unwind$?detectImpl@MWSURF@cv@@IEBAXAEBVMat@2@AEAV?$vector@VKeyPoint@cv@@V?$allocator@VKeyPoint@cv@@@std@@@std@@0@Z 0000000180058734     mwsurf.obj
 0002:00008744       $stateUnwindMap$?detectImpl@MWSURF@cv@@IEBAXAEBVMat@2@AEAV?$vector@VKeyPoint@cv@@V?$allocator@VKeyPoint@cv@@@std@@@std@@0@Z 0000000180058744     mwsurf.obj
 0002:0000874f       $ip2state$?detectImpl@MWSURF@cv@@IEBAXAEBVMat@2@AEAV?$vector@VKeyPoint@cv@@V?$allocator@VKeyPoint@cv@@@std@@@std@@0@Z 000000018005874f     mwsurf.obj
 0002:0000875a       $stateUnwindMap$?computeImpl@MWSURF@cv@@IEBAXAEBVMat@2@AEAV?$vector@VKeyPoint@cv@@V?$allocator@VKeyPoint@cv@@@std@@@std@@AEAV32@@Z 000000018005875a     mwsurf.obj
 0002:0000876f       $cppxdata$?findMaximaInLayer@MWSURFFindInvoker@cv@@SAXAEBVMat@2@0AEBV?$vector@VMat@cv@@V?$allocator@VMat@cv@@@std@@@std@@1AEBV?$vector@HV?$allocator@H@std@@@5@AEAV?$vector@VKeyPoint@cv@@V?$allocator@VKeyPoint@cv@@@std@@@5@HHMH@Z 000000018005876f     mwsurf.obj
 0002:00008778       $unwind$?dtor$0@?0??detectImpl@MWSURF@cv@@IEBAXAEBVMat@2@AEAV?$vector@VKeyPoint@cv@@V?$allocator@VKeyPoint@cv@@@std@@@std@@0@Z@4HA 0000000180058778     mwsurf.obj
 0002:00008780       $unwind$?dtor$1@?0??detectImpl@MWSURF@cv@@IEBAXAEBVMat@2@AEAV?$vector@VKeyPoint@cv@@V?$allocator@VKeyPoint@cv@@@std@@@std@@0@Z@4HA 0000000180058780     mwsurf.obj
 0002:00008788       $unwind$?computeImpl@MWSURF@cv@@IEBAXAEBVMat@2@AEAV?$vector@VKeyPoint@cv@@V?$allocator@VKeyPoint@cv@@@std@@@std@@AEAV32@@Z 0000000180058788     mwsurf.obj
 0002:0000879c       $ip2state$?computeImpl@MWSURF@cv@@IEBAXAEBVMat@2@AEAV?$vector@VKeyPoint@cv@@V?$allocator@VKeyPoint@cv@@@std@@@std@@AEAV32@@Z 000000018005879c     mwsurf.obj
 0002:000087af       $cppxdata$?fastHessianDetector@cv@@YAXAEBVMat@1@0AEAV?$vector@VKeyPoint@cv@@V?$allocator@VKeyPoint@cv@@@std@@@std@@HHM@Z 00000001800587af     mwsurf.obj
 0002:000087b8       $unwind$?dtor$0@?0??computeImpl@MWSURF@cv@@IEBAXAEBVMat@2@AEAV?$vector@VKeyPoint@cv@@V?$allocator@VKeyPoint@cv@@@std@@@std@@AEAV32@@Z@4HA 00000001800587b8     mwsurf.obj
 0002:000087c0       $unwind$?dtor$1@?0??computeImpl@MWSURF@cv@@IEBAXAEBVMat@2@AEAV?$vector@VKeyPoint@cv@@V?$allocator@VKeyPoint@cv@@@std@@@std@@AEAV32@@Z@4HA 00000001800587c0     mwsurf.obj
 0002:000087c8       $unwind$?dtor$2@?0??computeImpl@MWSURF@cv@@IEBAXAEBVMat@2@AEAV?$vector@VKeyPoint@cv@@V?$allocator@VKeyPoint@cv@@@std@@@std@@AEAV32@@Z@4HA 00000001800587c8     mwsurf.obj
 0002:000087d0       $unwind$?dtor$3@?0??computeImpl@MWSURF@cv@@IEBAXAEBVMat@2@AEAV?$vector@VKeyPoint@cv@@V?$allocator@VKeyPoint@cv@@@std@@@std@@AEAV32@@Z@4HA 00000001800587d0     mwsurf.obj
 0002:000087d8       $unwind$?resizeHaarPattern@cv@@YAXQEAY04$$CBHPEAUMWSurfHF@1@HHHH@Z 00000001800587d8     mwsurf.obj
 0002:000087e0       $unwind$?calcLayerDetAndTrace@cv@@YAXAEBVMat@1@HHAEAV21@1@Z 00000001800587e0     mwsurf.obj
 0002:000087f0       $unwind$?interpolateKeypoint@cv@@YAHQEAY08MHHHAEAVKeyPoint@1@@Z 00000001800587f0     mwsurf.obj
 0002:00008810       $unwind$?findMaximaInLayer@MWSURFFindInvoker@cv@@SAXAEBVMat@2@0AEBV?$vector@VMat@cv@@V?$allocator@VMat@cv@@@std@@@std@@1AEBV?$vector@HV?$allocator@H@std@@@5@AEAV?$vector@VKeyPoint@cv@@V?$allocator@VKeyPoint@cv@@@std@@@5@HHMH@Z 0000000180058810     mwsurf.obj
 0002:00008824       $stateUnwindMap$?findMaximaInLayer@MWSURFFindInvoker@cv@@SAXAEBVMat@2@0AEBV?$vector@VMat@cv@@V?$allocator@VMat@cv@@@std@@@std@@1AEBV?$vector@HV?$allocator@H@std@@@5@AEAV?$vector@VKeyPoint@cv@@V?$allocator@VKeyPoint@cv@@@std@@@5@HHMH@Z 0000000180058824     mwsurf.obj
 0002:0000882a       $ip2state$?findMaximaInLayer@MWSURFFindInvoker@cv@@SAXAEBVMat@2@0AEBV?$vector@VMat@cv@@V?$allocator@VMat@cv@@@std@@@std@@1AEBV?$vector@HV?$allocator@H@std@@@5@AEAV?$vector@VKeyPoint@cv@@V?$allocator@VKeyPoint@cv@@@std@@@5@HHMH@Z 000000018005882a     mwsurf.obj
 0002:00008832       $ip2state$?fastHessianDetector@cv@@YAXAEBVMat@1@0AEAV?$vector@VKeyPoint@cv@@V?$allocator@VKeyPoint@cv@@@std@@@std@@HHM@Z 0000000180058832     mwsurf.obj
 0002:00008854       $unwind$?dtor$0@?0??findMaximaInLayer@MWSURFFindInvoker@cv@@SAXAEBVMat@2@0AEBV?$vector@VMat@cv@@V?$allocator@VMat@cv@@@std@@@std@@1AEBV?$vector@HV?$allocator@H@std@@@5@AEAV?$vector@VKeyPoint@cv@@V?$allocator@VKeyPoint@cv@@@std@@@5@HHMH@Z@4HA 0000000180058854     mwsurf.obj
 0002:0000885c       $unwind$?fastHessianDetector@cv@@YAXAEBVMat@1@0AEAV?$vector@VKeyPoint@cv@@V?$allocator@VKeyPoint@cv@@@std@@@std@@HHM@Z 000000018005885c     mwsurf.obj
 0002:0000886c       $stateUnwindMap$?fastHessianDetector@cv@@YAXAEBVMat@1@0AEAV?$vector@VKeyPoint@cv@@V?$allocator@VKeyPoint@cv@@@std@@@std@@HHM@Z 000000018005886c     mwsurf.obj
 0002:00008890       $unwind$?dtor$0@?0??fastHessianDetector@cv@@YAXAEBVMat@1@0AEAV?$vector@VKeyPoint@cv@@V?$allocator@VKeyPoint@cv@@@std@@@std@@HHM@Z@4HA 0000000180058890     mwsurf.obj
 0002:00008898       $unwind$?dtor$1@?0??fastHessianDetector@cv@@YAXAEBVMat@1@0AEAV?$vector@VKeyPoint@cv@@V?$allocator@VKeyPoint@cv@@@std@@@std@@HHM@Z@4HA 0000000180058898     mwsurf.obj
 0002:000088a0       $unwind$?dtor$2@?0??fastHessianDetector@cv@@YAXAEBVMat@1@0AEAV?$vector@VKeyPoint@cv@@V?$allocator@VKeyPoint@cv@@@std@@@std@@HHM@Z@4HA 00000001800588a0     mwsurf.obj
 0002:000088a8       $unwind$?dtor$3@?0??fastHessianDetector@cv@@YAXAEBVMat@1@0AEAV?$vector@VKeyPoint@cv@@V?$allocator@VKeyPoint@cv@@@std@@@std@@HHM@Z@4HA 00000001800588a8     mwsurf.obj
 0002:000088b0       $unwind$?dtor$4@?0??fastHessianDetector@cv@@YAXAEBVMat@1@0AEAV?$vector@VKeyPoint@cv@@V?$allocator@VKeyPoint@cv@@@std@@@std@@HHM@Z@4HA 00000001800588b0     mwsurf.obj
 0002:000088b8       $unwind$?dtor$5@?0??fastHessianDetector@cv@@YAXAEBVMat@1@0AEAV?$vector@VKeyPoint@cv@@V?$allocator@VKeyPoint@cv@@@std@@@std@@HHM@Z@4HA 00000001800588b8     mwsurf.obj
 0002:000088c0       $unwind$?dtor$6@?0??fastHessianDetector@cv@@YAXAEBVMat@1@0AEAV?$vector@VKeyPoint@cv@@V?$allocator@VKeyPoint@cv@@@std@@@std@@HHM@Z@4HA 00000001800588c0     mwsurf.obj
 0002:000088c8       $unwind$??$?8H@cv@@YA_NAEBV?$Size_@H@0@0@Z 00000001800588c8     mwsurf.obj
 0002:000088d0       $unwind$??$determinant@M$02@cv@@YANAEBV?$Matx@M$02$02@0@@Z 00000001800588d0     mwsurf.obj
 0002:000088d8       $unwind$??$max@H@std@@YAAEBHAEBH0@Z 00000001800588d8     mwsurf.obj
 0002:000088e0       $unwind$??$min@H@std@@YAAEBHAEBH0@Z 00000001800588e0     mwsurf.obj
 0002:000088e8       $unwind$??0?$Matx@M$02$00@cv@@QEAA@XZ 00000001800588e8     mwsurf.obj
 0002:000088f0       $unwind$??0?$Matx@M$02$00@cv@@QEAA@MMM@Z 00000001800588f0     mwsurf.obj
 0002:000088f8       $unwind$??0?$Matx@M$02$00@cv@@QEAA@PEBM@Z 00000001800588f8     mwsurf.obj
 0002:00008900       $unwind$?all@?$Matx@M$02$00@cv@@SA?AV12@M@Z 0000000180058900     mwsurf.obj
 0002:00008914       $unwind$?zeros@?$Matx@M$02$00@cv@@SA?AV12@XZ 0000000180058914     mwsurf.obj
 0002:0000891c       $unwind$??0?$Vec@M$02@cv@@QEAA@MMM@Z 000000018005891c     mwsurf.obj
 0002:00008924       $unwind$??0?$Vec@M$02@cv@@QEAA@AEBV01@@Z 0000000180058924     mwsurf.obj
 0002:0000892c       $unwind$??4?$Point_@M@cv@@QEAAAEAV01@$$QEAV01@@Z 000000018005892c     mwsurf.obj
 0002:00008934       $unwind$?all@Range@cv@@SA?AV12@XZ 0000000180058934     mwsurf.obj
 0002:0000893c       $unwind$??0KeyPoint@cv@@QEAA@XZ 000000018005893c     mwsurf.obj
 0002:00008944       $unwind$??4KeyPoint@cv@@QEAAAEAV01@AEBV01@@Z 0000000180058944     mwsurf.obj
 0002:0000894c       $unwind$??4KeyPoint@cv@@QEAAAEAV01@$$QEAV01@@Z 000000018005894c     mwsurf.obj
 0002:00008954       $unwind$?deallocate@?$allocator@H@std@@QEAAXQEAH_K@Z 0000000180058954     mwsurf.obj
 0002:0000895c       $unwind$?allocate@?$allocator@H@std@@QEAAPEAH_K@Z 000000018005895c     mwsurf.obj
 0002:00008964       $unwind$??0?$vector@HV?$allocator@H@std@@@std@@QEAA@_KAEBV?$allocator@H@1@@Z 0000000180058964     mwsurf.obj
 0002:0000896c       $unwind$??1?$vector@HV?$allocator@H@std@@@std@@QEAA@XZ 000000018005896c     mwsurf.obj
 0002:00008974       $unwind$?max_size@?$vector@HV?$allocator@H@std@@@std@@QEBA_KXZ 0000000180058974     mwsurf.obj
 0002:0000897c       $unwind$??A?$vector@HV?$allocator@H@std@@@std@@QEAAAEAH_K@Z 000000018005897c     mwsurf.obj
 0002:00008984       $unwind$??A?$vector@HV?$allocator@H@std@@@std@@QEBAAEBH_K@Z 0000000180058984     mwsurf.obj
 0002:0000898c       $unwind$?_Ufill@?$vector@HV?$allocator@H@std@@@std@@AEAAPEAHPEAH_KU_Value_init_tag@2@@Z 000000018005898c     mwsurf.obj
 0002:00008994       $unwind$?_Destroy@?$vector@HV?$allocator@H@std@@@std@@AEAAXPEAH0@Z 0000000180058994     mwsurf.obj
 0002:0000899c       $unwind$?_Buy_raw@?$vector@HV?$allocator@H@std@@@std@@AEAAX_K@Z 000000018005899c     mwsurf.obj
 0002:000089a4       $unwind$?_Buy_nonzero@?$vector@HV?$allocator@H@std@@@std@@AEAAX_K@Z 00000001800589a4     mwsurf.obj
 0002:000089ac       $unwind$?_Tidy@?$vector@HV?$allocator@H@std@@@std@@AEAAXXZ 00000001800589ac     mwsurf.obj
 0002:000089bc       $cppxdata$?_Tidy@?$vector@HV?$allocator@H@std@@@std@@AEAAXXZ 00000001800589bc     mwsurf.obj
 0002:000089c1       $ip2state$?_Tidy@?$vector@HV?$allocator@H@std@@@std@@AEAAXXZ 00000001800589c1     mwsurf.obj
 0002:000089c4       $unwind$?_Xlength@?$vector@HV?$allocator@H@std@@@std@@CAXXZ 00000001800589c4     mwsurf.obj
 0002:000089cc       $unwind$?_Getal@?$vector@HV?$allocator@H@std@@@std@@AEAAAEAV?$allocator@H@2@XZ 00000001800589cc     mwsurf.obj
 0002:000089d4       $unwind$?_Getal@?$vector@HV?$allocator@H@std@@@std@@AEBAAEBV?$allocator@H@2@XZ 00000001800589d4     mwsurf.obj
 0002:000089dc       $unwind$??0?$Point_@H@cv@@QEAA@$$QEAV01@@Z 00000001800589dc     mwsurf.obj
 0002:000089e4       $unwind$??4?$Point_@H@cv@@QEAAAEAV01@$$QEAV01@@Z 00000001800589e4     mwsurf.obj
 0002:000089ec       $unwind$??0_InputArray@cv@@QEAA@XZ 00000001800589ec     mwsurf.obj
 0002:000089f4       $unwind$??0_InputArray@cv@@QEAA@AEBVMat@1@@Z 00000001800589f4     mwsurf.obj
 0002:000089fc       $unwind$??0_InputArray@cv@@QEAA@AEBN@Z 00000001800589fc     mwsurf.obj
 0002:00008a04       $unwind$?getMat@_InputArray@cv@@QEBA?AVMat@2@H@Z 0000000180058a04     mwsurf.obj
 0002:00008a0c       $unwind$?init@_InputArray@cv@@IEAAXHPEBXV?$Size_@H@2@@Z 0000000180058a0c     mwsurf.obj
 0002:00008a14       $unwind$??0_OutputArray@cv@@QEAA@AEAVMat@1@@Z 0000000180058a14     mwsurf.obj
 0002:00008a24       $cppxdata$??0_OutputArray@cv@@QEAA@AEAVMat@1@@Z 0000000180058a24     mwsurf.obj
 0002:00008a2d       $stateUnwindMap$??0_OutputArray@cv@@QEAA@AEAVMat@1@@Z 0000000180058a2d     mwsurf.obj
 0002:00008a33       $ip2state$??0_OutputArray@cv@@QEAA@AEAVMat@1@@Z 0000000180058a33     mwsurf.obj
 0002:00008a3c       $unwind$?dtor$0@?0???0_OutputArray@cv@@QEAA@AEAVMat@1@@Z@4HA 0000000180058a3c     mwsurf.obj
 0002:00008a44       $unwind$??1_OutputArray@cv@@QEAA@XZ 0000000180058a44     mwsurf.obj
 0002:00008a4c       $unwind$?rowRange@Mat@cv@@QEBA?AV12@HH@Z 0000000180058a4c     mwsurf.obj
 0002:00008a54       $unwind$?create@Mat@cv@@QEAAXHHH@Z 0000000180058a54     mwsurf.obj
 0002:00008a5c       $unwind$?elemSize@Mat@cv@@QEBA_KXZ 0000000180058a5c     mwsurf.obj
 0002:00008a64       $unwind$?empty@Mat@cv@@QEBA_NXZ 0000000180058a64     mwsurf.obj
 0002:00008a6c       $unwind$??4Mat@cv@@QEAAAEAV01@$$QEAV01@@Z 0000000180058a6c     mwsurf.obj
 0002:00008a74       $unwind$?deallocate@?$allocator@VMat@cv@@@std@@QEAAXQEAVMat@cv@@_K@Z 0000000180058a74     mwsurf.obj
 0002:00008a7c       $unwind$?allocate@?$allocator@VMat@cv@@@std@@QEAAPEAVMat@cv@@_K@Z 0000000180058a7c     mwsurf.obj
 0002:00008a84       $unwind$??0?$vector@VMat@cv@@V?$allocator@VMat@cv@@@std@@@std@@QEAA@_KAEBV?$allocator@VMat@cv@@@1@@Z 0000000180058a84     mwsurf.obj
 0002:00008a8c       $unwind$??1?$vector@VMat@cv@@V?$allocator@VMat@cv@@@std@@@std@@QEAA@XZ 0000000180058a8c     mwsurf.obj
 0002:00008a94       $unwind$?max_size@?$vector@VMat@cv@@V?$allocator@VMat@cv@@@std@@@std@@QEBA_KXZ 0000000180058a94     mwsurf.obj
 0002:00008a9c       $unwind$??A?$vector@VMat@cv@@V?$allocator@VMat@cv@@@std@@@std@@QEAAAEAVMat@cv@@_K@Z 0000000180058a9c     mwsurf.obj
 0002:00008aa4       $unwind$??A?$vector@VMat@cv@@V?$allocator@VMat@cv@@@std@@@std@@QEBAAEBVMat@cv@@_K@Z 0000000180058aa4     mwsurf.obj
 0002:00008aac       $unwind$?_Ufill@?$vector@VMat@cv@@V?$allocator@VMat@cv@@@std@@@std@@AEAAPEAVMat@cv@@PEAV34@_KU_Value_init_tag@2@@Z 0000000180058aac     mwsurf.obj
 0002:00008ab4       $unwind$?_Destroy@?$vector@VMat@cv@@V?$allocator@VMat@cv@@@std@@@std@@AEAAXPEAVMat@cv@@0@Z 0000000180058ab4     mwsurf.obj
 0002:00008abc       $unwind$?_Buy_raw@?$vector@VMat@cv@@V?$allocator@VMat@cv@@@std@@@std@@AEAAX_K@Z 0000000180058abc     mwsurf.obj
 0002:00008ac4       $unwind$?_Buy_nonzero@?$vector@VMat@cv@@V?$allocator@VMat@cv@@@std@@@std@@AEAAX_K@Z 0000000180058ac4     mwsurf.obj
 0002:00008acc       $unwind$?_Tidy@?$vector@VMat@cv@@V?$allocator@VMat@cv@@@std@@@std@@AEAAXXZ 0000000180058acc     mwsurf.obj
 0002:00008adc       $cppxdata$?_Tidy@?$vector@VMat@cv@@V?$allocator@VMat@cv@@@std@@@std@@AEAAXXZ 0000000180058adc     mwsurf.obj
 0002:00008ae1       $ip2state$?_Tidy@?$vector@VMat@cv@@V?$allocator@VMat@cv@@@std@@@std@@AEAAXXZ 0000000180058ae1     mwsurf.obj
 0002:00008ae4       $unwind$?_Xlength@?$vector@VMat@cv@@V?$allocator@VMat@cv@@@std@@@std@@CAXXZ 0000000180058ae4     mwsurf.obj
 0002:00008aec       $unwind$?_Getal@?$vector@VMat@cv@@V?$allocator@VMat@cv@@@std@@@std@@AEAAAEAV?$allocator@VMat@cv@@@2@XZ 0000000180058aec     mwsurf.obj
 0002:00008af4       $unwind$?_Getal@?$vector@VMat@cv@@V?$allocator@VMat@cv@@@std@@@std@@AEBAAEBV?$allocator@VMat@cv@@@2@XZ 0000000180058af4     mwsurf.obj
 0002:00008afc       $unwind$?resize@?$vector@VKeyPoint@cv@@V?$allocator@VKeyPoint@cv@@@std@@@std@@QEAAX_K@Z 0000000180058afc     mwsurf.obj
 0002:00008b04       $unwind$?clear@?$vector@VKeyPoint@cv@@V?$allocator@VKeyPoint@cv@@@std@@@std@@QEAAXXZ 0000000180058b04     mwsurf.obj
 0002:00008b14       $cppxdata$?clear@?$vector@VKeyPoint@cv@@V?$allocator@VKeyPoint@cv@@@std@@@std@@QEAAXXZ 0000000180058b14     mwsurf.obj
 0002:00008b19       $ip2state$?clear@?$vector@VKeyPoint@cv@@V?$allocator@VKeyPoint@cv@@@std@@@std@@QEAAXXZ 0000000180058b19     mwsurf.obj
 0002:00008b1c       $unwind$?begin@?$vector@VKeyPoint@cv@@V?$allocator@VKeyPoint@cv@@@std@@@std@@QEAA?AV?$_Vector_iterator@V?$_Vector_val@U?$_Simple_types@VKeyPoint@cv@@@std@@@std@@@2@XZ 0000000180058b1c     mwsurf.obj
 0002:00008b24       $unwind$?end@?$vector@VKeyPoint@cv@@V?$allocator@VKeyPoint@cv@@@std@@@std@@QEAA?AV?$_Vector_iterator@V?$_Vector_val@U?$_Simple_types@VKeyPoint@cv@@@std@@@std@@@2@XZ 0000000180058b24     mwsurf.obj
 0002:00008b2c       $unwind$?_Ufill@?$vector@VKeyPoint@cv@@V?$allocator@VKeyPoint@cv@@@std@@@std@@AEAAPEAVKeyPoint@cv@@PEAV34@_KU_Value_init_tag@2@@Z 0000000180058b2c     mwsurf.obj
 0002:00008b34       $unwind$?_Check_C_return@std@@YAHH@Z 0000000180058b34     mwsurf.obj
 0002:00008b3c       $unwind$??0_Mutex_base@std@@QEAA@H@Z 0000000180058b3c     mwsurf.obj
 0002:00008b4c       $cppxdata$??0_Mutex_base@std@@QEAA@H@Z 0000000180058b4c     mwsurf.obj
 0002:00008b51       $ip2state$??0_Mutex_base@std@@QEAA@H@Z 0000000180058b51     mwsurf.obj
 0002:00008b54       $unwind$??1_Mutex_base@std@@QEAA@XZ 0000000180058b54     mwsurf.obj
 0002:00008b64       $cppxdata$??1_Mutex_base@std@@QEAA@XZ 0000000180058b64     mwsurf.obj
 0002:00008b69       $ip2state$??1_Mutex_base@std@@QEAA@XZ 0000000180058b69     mwsurf.obj
 0002:00008b6c       $unwind$?lock@_Mutex_base@std@@QEAAXXZ 0000000180058b6c     mwsurf.obj
 0002:00008b74       $unwind$?unlock@_Mutex_base@std@@QEAAXXZ 0000000180058b74     mwsurf.obj
 0002:00008b7c       $unwind$??0recursive_mutex@std@@QEAA@XZ 0000000180058b7c     mwsurf.obj
 0002:00008b84       $unwind$??1recursive_mutex@std@@QEAA@XZ 0000000180058b84     mwsurf.obj
 0002:00008b8c       $unwind$??_GParallelLoopBody@cv@@UEAAPEAXI@Z 0000000180058b8c     mwsurf.obj
 0002:00008b94       $unwind$??0Feature2D@cv@@QEAA@XZ 0000000180058b94     mwsurf.obj
 0002:00008b9c       $unwind$??_GFeature2D@cv@@UEAAPEAXI@Z 0000000180058b9c     mwsurf.obj
 0002:00008ba4       $unwind$??_DFeature2D@cv@@QEAAXXZ 0000000180058ba4     mwsurf.obj
 0002:00008bac       $unwind$??1MWSURF@cv@@UEAA@XZ 0000000180058bac     mwsurf.obj
 0002:00008bb4       $unwind$??_GMWSURF@cv@@UEAAPEAXI@Z 0000000180058bb4     mwsurf.obj
 0002:00008bbc       $unwind$??_DMWSURF@cv@@QEAAXXZ 0000000180058bbc     mwsurf.obj
 0002:00008bc4       $unwind$?calcHaarPattern@cv@@YAMPEBHPEBUMWSurfHF@1@H@Z 0000000180058bc4     mwsurf.obj
 0002:00008bcc       $unwind$??0?$Matx@M$02$02@cv@@QEAA@MMMMMMMMM@Z 0000000180058bcc     mwsurf.obj
 0002:00008bd4       $unwind$?solve@?$Matx@M$02$02@cv@@QEBA?AV?$Vec@M$02@2@AEBV32@H@Z 0000000180058bd4     mwsurf.obj
 0002:00008be4       $unwind$??$solve@$00@?$Matx@M$02$02@cv@@QEBA?AV?$Matx@M$02$00@1@AEBV21@H@Z 0000000180058be4     mwsurf.obj
 0002:00008bf8       $unwind$??0MWSURFBuildInvoker@cv@@QEAA@AEBVMat@1@AEBV?$vector@HV?$allocator@H@std@@@std@@1AEAV?$vector@VMat@cv@@V?$allocator@VMat@cv@@@std@@@4@2@Z 0000000180058bf8     mwsurf.obj
 0002:00008c00       $unwind$??RMWSURFBuildInvoker@cv@@UEBAXAEBVRange@1@@Z 0000000180058c00     mwsurf.obj
 0002:00008c08       $unwind$??1MWSURFBuildInvoker@cv@@UEAA@XZ 0000000180058c08     mwsurf.obj
 0002:00008c10       $unwind$??_GMWSURFBuildInvoker@cv@@UEAAPEAXI@Z 0000000180058c10     mwsurf.obj
 0002:00008c18       $unwind$??0MWSURFFindInvoker@cv@@QEAA@AEBVMat@1@0AEBV?$vector@VMat@cv@@V?$allocator@VMat@cv@@@std@@@std@@1AEBV?$vector@HV?$allocator@H@std@@@4@22AEAV?$vector@VKeyPoint@cv@@V?$allocator@VKeyPoint@cv@@@std@@@4@HM@Z 0000000180058c18     mwsurf.obj
 0002:00008c20       $unwind$??RMWSURFFindInvoker@cv@@UEBAXAEBVRange@1@@Z 0000000180058c20     mwsurf.obj
 0002:00008c28       $unwind$??1MWSURFFindInvoker@cv@@UEAA@XZ 0000000180058c28     mwsurf.obj
 0002:00008c30       $unwind$??_GMWSURFFindInvoker@cv@@UEAAPEAXI@Z 0000000180058c30     mwsurf.obj
 0002:00008c38       $unwind$??__E?findMaximaInLayer_m@MWSURFFindInvoker@cv@@2Vrecursive_mutex@std@@A@@YAXXZ 0000000180058c38     mwsurf.obj
 0002:00008c40       $unwind$??__F?findMaximaInLayer_m@MWSURFFindInvoker@cv@@2Vrecursive_mutex@std@@A@@YAXXZ 0000000180058c40     mwsurf.obj
 0002:00008c48       $unwind$??0?$lock_guard@Vrecursive_mutex@std@@@std@@QEAA@AEAVrecursive_mutex@1@@Z 0000000180058c48     mwsurf.obj
 0002:00008c50       $unwind$??1?$lock_guard@Vrecursive_mutex@std@@@std@@QEAA@XZ 0000000180058c50     mwsurf.obj
 0002:00008c60       $cppxdata$??1?$lock_guard@Vrecursive_mutex@std@@@std@@QEAA@XZ 0000000180058c60     mwsurf.obj
 0002:00008c65       $ip2state$??1?$lock_guard@Vrecursive_mutex@std@@@std@@QEAA@XZ 0000000180058c65     mwsurf.obj
 0002:00008c68       $unwind$??RKeypointGreater@cv@@QEBA_NAEBVKeyPoint@1@0@Z 0000000180058c68     mwsurf.obj
 0002:00008c70       $unwind$??0?$_Vector_const_iterator@V?$_Vector_val@U?$_Simple_types@VKeyPoint@cv@@@std@@@std@@@std@@QEAA@PEAVKeyPoint@cv@@PEBU_Container_base0@1@@Z 0000000180058c70     mwsurf.obj
 0002:00008c78       $unwind$?_Unwrapped@?$_Vector_iterator@V?$_Vector_val@U?$_Simple_types@VKeyPoint@cv@@@std@@@std@@@std@@QEBAPEAVKeyPoint@cv@@XZ 0000000180058c78     mwsurf.obj
 0002:00008c80       $unwind$??0?$_Vector_iterator@V?$_Vector_val@U?$_Simple_types@VKeyPoint@cv@@@std@@@std@@@std@@QEAA@PEAVKeyPoint@cv@@PEBU_Container_base0@1@@Z 0000000180058c80     mwsurf.obj
 0002:00008c88       $unwind$??$sort@V?$_Vector_iterator@V?$_Vector_val@U?$_Simple_types@VKeyPoint@cv@@@std@@@std@@@std@@UKeypointGreater@cv@@@std@@YAXV?$_Vector_iterator@V?$_Vector_val@U?$_Simple_types@VKeyPoint@cv@@@std@@@std@@@0@0UKeypointGreater@cv@@@Z 0000000180058c88     mwsurf.obj
 0002:00008c90       $unwind$??0MWSURFInvoker@cv@@QEAA@AEBVMat@1@0AEAV?$vector@VKeyPoint@cv@@V?$allocator@VKeyPoint@cv@@@std@@@std@@AEAV21@_N3@Z 0000000180058c90     mwsurf.obj
 0002:00008ca4       $cppxdata$??0MWSURFInvoker@cv@@QEAA@AEBVMat@1@0AEAV?$vector@VKeyPoint@cv@@V?$allocator@VKeyPoint@cv@@@std@@@std@@AEAV21@_N3@Z 0000000180058ca4     mwsurf.obj
 0002:00008cad       $stateUnwindMap$??0MWSURFInvoker@cv@@QEAA@AEBVMat@1@0AEAV?$vector@VKeyPoint@cv@@V?$allocator@VKeyPoint@cv@@@std@@@std@@AEAV21@_N3@Z 0000000180058cad     mwsurf.obj
 0002:00008cd1       $ip2state$??0MWSURFInvoker@cv@@QEAA@AEBVMat@1@0AEAV?$vector@VKeyPoint@cv@@V?$allocator@VKeyPoint@cv@@@std@@@std@@AEAV21@_N3@Z 0000000180058cd1     mwsurf.obj
 0002:00008cf0       $unwind$?dtor$0@?0???0MWSURFInvoker@cv@@QEAA@AEBVMat@1@0AEAV?$vector@VKeyPoint@cv@@V?$allocator@VKeyPoint@cv@@@std@@@std@@AEAV21@_N3@Z@4HA 0000000180058cf0     mwsurf.obj
 0002:00008cf8       $unwind$?dtor$1@?0???0MWSURFInvoker@cv@@QEAA@AEBVMat@1@0AEAV?$vector@VKeyPoint@cv@@V?$allocator@VKeyPoint@cv@@@std@@@std@@AEAV21@_N3@Z@4HA 0000000180058cf8     mwsurf.obj
 0002:00008d00       $unwind$?dtor$2@?0???0MWSURFInvoker@cv@@QEAA@AEBVMat@1@0AEAV?$vector@VKeyPoint@cv@@V?$allocator@VKeyPoint@cv@@@std@@@std@@AEAV21@_N3@Z@4HA 0000000180058d00     mwsurf.obj
 0002:00008d08       $unwind$?dtor$3@?0???0MWSURFInvoker@cv@@QEAA@AEBVMat@1@0AEAV?$vector@VKeyPoint@cv@@V?$allocator@VKeyPoint@cv@@@std@@@std@@AEAV21@_N3@Z@4HA 0000000180058d08     mwsurf.obj
 0002:00008d10       $unwind$?dtor$4@?0???0MWSURFInvoker@cv@@QEAA@AEBVMat@1@0AEAV?$vector@VKeyPoint@cv@@V?$allocator@VKeyPoint@cv@@@std@@@std@@AEAV21@_N3@Z@4HA 0000000180058d10     mwsurf.obj
 0002:00008d18       $unwind$?dtor$5@?0???0MWSURFInvoker@cv@@QEAA@AEBVMat@1@0AEAV?$vector@VKeyPoint@cv@@V?$allocator@VKeyPoint@cv@@@std@@@std@@AEAV21@_N3@Z@4HA 0000000180058d18     mwsurf.obj
 0002:00008d20       $unwind$?dtor$6@?0???0MWSURFInvoker@cv@@QEAA@AEBVMat@1@0AEAV?$vector@VKeyPoint@cv@@V?$allocator@VKeyPoint@cv@@@std@@@std@@AEAV21@_N3@Z@4HA 0000000180058d20     mwsurf.obj
 0002:00008d28       $unwind$??RMWSURFInvoker@cv@@UEBAXAEBVRange@1@@Z 0000000180058d28     mwsurf.obj
 0002:00008d40       $cppxdata$??RMWSURFInvoker@cv@@UEBAXAEBVRange@1@@Z 0000000180058d40     mwsurf.obj
 0002:00008d49       $stateUnwindMap$??RMWSURFInvoker@cv@@UEBAXAEBVRange@1@@Z 0000000180058d49     mwsurf.obj
 0002:00008d68       $ip2state$??RMWSURFInvoker@cv@@UEBAXAEBVRange@1@@Z 0000000180058d68     mwsurf.obj
 0002:00008d88       $unwind$?dtor$0@?0???RMWSURFInvoker@cv@@UEBAXAEBVRange@1@@Z@4HA 0000000180058d88     mwsurf.obj
 0002:00008d90       $unwind$?dtor$1@?0???RMWSURFInvoker@cv@@UEBAXAEBVRange@1@@Z@4HA 0000000180058d90     mwsurf.obj
 0002:00008d98       $unwind$?dtor$2@?0???RMWSURFInvoker@cv@@UEBAXAEBVRange@1@@Z@4HA 0000000180058d98     mwsurf.obj
 0002:00008da0       $unwind$?dtor$3@?0???RMWSURFInvoker@cv@@UEBAXAEBVRange@1@@Z@4HA 0000000180058da0     mwsurf.obj
 0002:00008da8       $unwind$?dtor$4@?0???RMWSURFInvoker@cv@@UEBAXAEBVRange@1@@Z@4HA 0000000180058da8     mwsurf.obj
 0002:00008db0       $unwind$?dtor$5@?0???RMWSURFInvoker@cv@@UEBAXAEBVRange@1@@Z@4HA 0000000180058db0     mwsurf.obj
 0002:00008db8       $unwind$?deallocate@?$allocator@V?$Point_@H@cv@@@std@@QEAAXQEAV?$Point_@H@cv@@_K@Z 0000000180058db8     mwsurf.obj
 0002:00008dc0       $unwind$?allocate@?$allocator@V?$Point_@H@cv@@@std@@QEAAPEAV?$Point_@H@cv@@_K@Z 0000000180058dc0     mwsurf.obj
 0002:00008dc8       $unwind$??0?$vector@V?$Point_@H@cv@@V?$allocator@V?$Point_@H@cv@@@std@@@std@@QEAA@XZ 0000000180058dc8     mwsurf.obj
 0002:00008dd0       $unwind$??1?$vector@V?$Point_@H@cv@@V?$allocator@V?$Point_@H@cv@@@std@@@std@@QEAA@XZ 0000000180058dd0     mwsurf.obj
 0002:00008dd8       $unwind$?resize@?$vector@V?$Point_@H@cv@@V?$allocator@V?$Point_@H@cv@@@std@@@std@@QEAAX_K@Z 0000000180058dd8     mwsurf.obj
 0002:00008de0       $unwind$?max_size@?$vector@V?$Point_@H@cv@@V?$allocator@V?$Point_@H@cv@@@std@@@std@@QEBA_KXZ 0000000180058de0     mwsurf.obj
 0002:00008de8       $unwind$?capacity@?$vector@V?$Point_@H@cv@@V?$allocator@V?$Point_@H@cv@@@std@@@std@@QEBA_KXZ 0000000180058de8     mwsurf.obj
 0002:00008df0       $unwind$??A?$vector@V?$Point_@H@cv@@V?$allocator@V?$Point_@H@cv@@@std@@@std@@QEAAAEAV?$Point_@H@cv@@_K@Z 0000000180058df0     mwsurf.obj
 0002:00008df8       $unwind$??A?$vector@V?$Point_@H@cv@@V?$allocator@V?$Point_@H@cv@@@std@@@std@@QEBAAEBV?$Point_@H@cv@@_K@Z 0000000180058df8     mwsurf.obj
 0002:00008e00       $unwind$?_Ufill@?$vector@V?$Point_@H@cv@@V?$allocator@V?$Point_@H@cv@@@std@@@std@@AEAAPEAV?$Point_@H@cv@@PEAV34@_KU_Value_init_tag@2@@Z 0000000180058e00     mwsurf.obj
 0002:00008e08       $unwind$?_Umove_if_noexcept1@?$vector@V?$Point_@H@cv@@V?$allocator@V?$Point_@H@cv@@@std@@@std@@AEAAXPEAV?$Point_@H@cv@@00U?$integral_constant@_N$00@2@@Z 0000000180058e08     mwsurf.obj
 0002:00008e10       $unwind$?_Umove_if_noexcept@?$vector@V?$Point_@H@cv@@V?$allocator@V?$Point_@H@cv@@@std@@@std@@AEAAXPEAV?$Point_@H@cv@@00@Z 0000000180058e10     mwsurf.obj
 0002:00008e18       $unwind$?_Destroy@?$vector@V?$Point_@H@cv@@V?$allocator@V?$Point_@H@cv@@@std@@@std@@AEAAXPEAV?$Point_@H@cv@@0@Z 0000000180058e18     mwsurf.obj
 0002:00008e20       $unwind$?_Calculate_growth@?$vector@V?$Point_@H@cv@@V?$allocator@V?$Point_@H@cv@@@std@@@std@@AEBA_K_K@Z 0000000180058e20     mwsurf.obj
 0002:00008e28       $unwind$?_Change_array@?$vector@V?$Point_@H@cv@@V?$allocator@V?$Point_@H@cv@@@std@@@std@@AEAAXQEAV?$Point_@H@cv@@_K1@Z 0000000180058e28     mwsurf.obj
 0002:00008e30       $unwind$?_Tidy@?$vector@V?$Point_@H@cv@@V?$allocator@V?$Point_@H@cv@@@std@@@std@@AEAAXXZ 0000000180058e30     mwsurf.obj
 0002:00008e40       $cppxdata$?_Tidy@?$vector@V?$Point_@H@cv@@V?$allocator@V?$Point_@H@cv@@@std@@@std@@AEAAXXZ 0000000180058e40     mwsurf.obj
 0002:00008e45       $ip2state$?_Tidy@?$vector@V?$Point_@H@cv@@V?$allocator@V?$Point_@H@cv@@@std@@@std@@AEAAXXZ 0000000180058e45     mwsurf.obj
 0002:00008e48       $unwind$?_Xlength@?$vector@V?$Point_@H@cv@@V?$allocator@V?$Point_@H@cv@@@std@@@std@@CAXXZ 0000000180058e48     mwsurf.obj
 0002:00008e50       $unwind$?_Getal@?$vector@V?$Point_@H@cv@@V?$allocator@V?$Point_@H@cv@@@std@@@std@@AEAAAEAV?$allocator@V?$Point_@H@cv@@@2@XZ 0000000180058e50     mwsurf.obj
 0002:00008e58       $unwind$?_Getal@?$vector@V?$Point_@H@cv@@V?$allocator@V?$Point_@H@cv@@@std@@@std@@AEBAAEBV?$allocator@V?$Point_@H@cv@@@2@XZ 0000000180058e58     mwsurf.obj
 0002:00008e60       $unwind$?deallocate@?$allocator@M@std@@QEAAXQEAM_K@Z 0000000180058e60     mwsurf.obj
 0002:00008e68       $unwind$?allocate@?$allocator@M@std@@QEAAPEAM_K@Z 0000000180058e68     mwsurf.obj
 0002:00008e70       $unwind$??0?$vector@MV?$allocator@M@std@@@std@@QEAA@XZ 0000000180058e70     mwsurf.obj
 0002:00008e78       $unwind$??1?$vector@MV?$allocator@M@std@@@std@@QEAA@XZ 0000000180058e78     mwsurf.obj
 0002:00008e80       $unwind$?resize@?$vector@MV?$allocator@M@std@@@std@@QEAAX_K@Z 0000000180058e80     mwsurf.obj
 0002:00008e88       $unwind$?max_size@?$vector@MV?$allocator@M@std@@@std@@QEBA_KXZ 0000000180058e88     mwsurf.obj
 0002:00008e90       $unwind$?capacity@?$vector@MV?$allocator@M@std@@@std@@QEBA_KXZ 0000000180058e90     mwsurf.obj
 0002:00008e98       $unwind$??A?$vector@MV?$allocator@M@std@@@std@@QEAAAEAM_K@Z 0000000180058e98     mwsurf.obj
 0002:00008ea0       $unwind$??A?$vector@MV?$allocator@M@std@@@std@@QEBAAEBM_K@Z 0000000180058ea0     mwsurf.obj
 0002:00008ea8       $unwind$?_Ufill@?$vector@MV?$allocator@M@std@@@std@@AEAAPEAMPEAM_KU_Value_init_tag@2@@Z 0000000180058ea8     mwsurf.obj
 0002:00008eb0       $unwind$?_Umove_if_noexcept1@?$vector@MV?$allocator@M@std@@@std@@AEAAXPEAM00U?$integral_constant@_N$00@2@@Z 0000000180058eb0     mwsurf.obj
 0002:00008eb8       $unwind$?_Umove_if_noexcept@?$vector@MV?$allocator@M@std@@@std@@AEAAXPEAM00@Z 0000000180058eb8     mwsurf.obj
 0002:00008ec0       $unwind$?_Destroy@?$vector@MV?$allocator@M@std@@@std@@AEAAXPEAM0@Z 0000000180058ec0     mwsurf.obj
